 isolated_vm

 Timestamp is 5cf1f4a6 (Fri May 31 21:44:38 2019)

 Preferred load address is 0000000180000000

 Start         Length     Name                   Class
 0001:00000000 00000280H .text$di                CODE
 0001:00000280 00080bc0H .text$mn                CODE
 0001:00080e40 000000e0H .text$mn$00             CODE
 0001:00080f20 0000d8d0H .text$x                 CODE
 0001:0008e7f0 000002faH .text$yd                CODE
 0002:00000000 000003c0H .idata$5                DATA
 0002:000003c0 00000020H .00cfg                  DATA
 0002:000003e0 00000008H .CRT$XCA                DATA
 0002:000003e8 00000028H .CRT$XCC                DATA
 0002:00000410 00000010H .CRT$XCL                DATA
 0002:00000420 00000050H .CRT$XCU                DATA
 0002:00000470 00000008H .CRT$XCZ                DATA
 0002:00000478 00000008H .CRT$XIA                DATA
 0002:00000480 00000030H .CRT$XIC                DATA
 0002:000004b0 00000008H .CRT$XIZ                DATA
 0002:000004b8 00000008H .CRT$XLA                DATA
 0002:000004c0 00000008H .CRT$XLZ                DATA
 0002:000004c8 00000008H .CRT$XPA                DATA
 0002:000004d0 00000008H .CRT$XPB                DATA
 0002:000004d8 00000010H .CRT$XPX                DATA
 0002:000004e8 00000008H .CRT$XPXA               DATA
 0002:000004f0 00000008H .CRT$XPZ                DATA
 0002:000004f8 00000008H .CRT$XTA                DATA
 0002:00000500 00000010H .CRT$XTZ                DATA
 0002:00000508 00000000H .gfids$y                DATA
 0002:00000510 0001b440H .rdata                  DATA
 0002:0001b950 00000030H .rdata$T                DATA
 0002:0001b980 00008394H .rdata$r                DATA
 0002:00023d14 000004a4H .rdata$zzzdbg           DATA
 0002:000241b8 00000008H .rtc$IAA                DATA
 0002:000241c0 00000008H .rtc$IZZ                DATA
 0002:000241c8 00000008H .rtc$TAA                DATA
 0002:000241d0 00000008H .rtc$TZZ                DATA
 0002:000241d8 00000008H .tls                    DATA
 0002:000241e0 00000018H .stls                   DATA
 0002:000241f8 00000014H .tls$                   DATA
 0002:0002420c 00000004H .tls$ZZZ                DATA
 0002:00024210 00018098H .xdata                  DATA
 0002:0003c2a8 00000f24H .xdata$x                DATA
 0002:0003d1cc 00000020H .didat$2                DATA
 0002:0003d1ec 00000024H .didat$3                DATA
 0002:0003d210 00000998H .didat$4                DATA
 0002:0003dba8 00005188H .didat$6                DATA
 0002:00042d30 000009a0H .didat$7                DATA
 0002:000436d0 0000005cH .edata                  DATA
 0002:0004372c 00000014H .idata$2                DATA
 0002:00043740 00000018H .idata$3                DATA
 0002:00043758 000003c0H .idata$4                DATA
 0002:00043b18 00000910H .idata$6                DATA
 0003:00000000 00000bd0H .data                   DATA
 0003:00000bd0 00004940H .data$r                 DATA
 0003:00005510 000009a0H .didat$5                DATA
 0003:00005eb0 00002304H .bss                    DATA
 0004:00000000 00008e80H .pdata                  DATA
 0005:00000000 00000060H .rsrc$01                DATA
 0005:00000060 00000180H .rsrc$02                DATA

  Address         Publics by Value              Rva+Base               Lib:Object

 0000:00000000       __guard_longjmp_count      0000000000000000     <absolute>
 0000:00000000       __hybrid_code_map_count    0000000000000000     <absolute>
 0000:00000000       __hybrid_code_map          0000000000000000     <absolute>
 0000:00000000       __guard_iat_count          0000000000000000     <absolute>
 0000:00000000       __guard_iat_table          0000000000000000     <absolute>
 0000:00000000       __guard_longjmp_table      0000000000000000     <absolute>
 0000:00000000       __hybrid_auxiliary_iat     0000000000000000     <absolute>
 0000:00000000       __guard_fids_count         0000000000000000     <absolute>
 0000:00000000       __enclave_config           0000000000000000     <absolute>
 0000:00000000       ___safe_se_handler_table   0000000000000000     <absolute>
 0000:00000000       __dynamic_value_reloc_table 0000000000000000     <absolute>
 0000:00000000       ___safe_se_handler_count   0000000000000000     <absolute>
 0000:00000000       __guard_fids_table         0000000000000000     <absolute>
 0000:00000100       __guard_flags              0000000000000100     <absolute>
 0000:00000000       __ImageBase                0000000180000000     <linker-defined>
 0001:00000280       ?Check@LimitedAllocator@ivm@@QEAA_N_K@Z 0000000180001280 f   allocator.obj
 0001:00000380       ??_GLimitedAllocator@ivm@@UEAAPEAXI@Z 0000000180001380 f i allocator.obj
 0001:00000380       ??_ELimitedAllocator@ivm@@UEAAPEAXI@Z 0000000180001380 f i * CIL library *:* CIL module *
 0001:000003c0       ?Allocate@LimitedAllocator@ivm@@UEAAPEAX_K@Z 00000001800013c0 f   allocator.obj
 0001:00000430       ?AllocateUninitialized@LimitedAllocator@ivm@@UEAAPEAX_K@Z 0000000180001430 f   allocator.obj
 0001:000004b0       ?Free@LimitedAllocator@ivm@@UEAAXPEAX_K@Z 00000001800014b0 f   allocator.obj
 0001:000004d0       __local_stdio_printf_options 00000001800014d0 f i environment.obj
 0001:000004e0       fprintf                    00000001800014e0 f i environment.obj
 0001:00000530       ??0exception@stdext@@QEAA@PEBDH@Z 0000000180001530 f i environment.obj
 0001:00000550       ??0exception@stdext@@QEAA@AEBV01@@Z 0000000180001550 f i environment.obj
 0001:00000570       ??1system_error@std@@UEAA@XZ 0000000180001570 f i environment.obj
 0001:00000570       ??1logic_error@std@@UEAA@XZ 0000000180001570 f i environment.obj
 0001:00000570       ??1param_incorrect@ivm@@UEAA@XZ 0000000180001570 f i context_handle.obj
 0001:00000570       ??1exception@stdext@@UEAA@XZ 0000000180001570 f i environment.obj
 0001:00000570       ??1param_required@ivm@@UEAA@XZ 0000000180001570 f i context_handle.obj
 0001:00000570       ??1failure@ios_base@std@@UEAA@XZ 0000000180001570 f i stack_trace.obj
 0001:00000570       ??1runtime_error@std@@UEAA@XZ 0000000180001570 f i environment.obj
 0001:00000570       ??1js_runtime_error@ivm@@UEAA@XZ 0000000180001570 f i environment.obj
 0001:00000580       ?what@exception@stdext@@UEBAPEBDXZ 0000000180001580 f i environment.obj
 0001:000005a0       ?_Raise@exception@stdext@@QEBAXXZ 00000001800015a0 f i environment.obj
 0001:000005e0       ?destroy@stl_condition_variable_win7@details@Concurrency@@UEAAXXZ 00000001800015e0 f i libcpmt:cond.obj
 0001:000005e0       _guard_check_icall_nop     00000001800015e0 f i LIBCMT:guard_support.obj
 0001:000005e0       ?NotifyResourcesExternallyIdle@ThreadScheduler@details@Concurrency@@UEAAXPEAPEAUIVirtualProcessorRoot@3@I@Z 00000001800015e0 f i libconcrt:ThreadScheduler.obj
 0001:000005e0       ?_Unlock@?$basic_streambuf@DU?$char_traits@D@std@@@std@@UEAAXXZ 00000001800015e0 f i stack_trace.obj
 0001:000005e0       ?_Destroy@?$_Ref_count_obj@_N@std@@EEAAXXZ 00000001800015e0 f i reference_handle.obj
 0001:000005e0       ?NotifyAffinitizedWork@FairScheduleGroupSegment@details@Concurrency@@UEAAXXZ 00000001800015e0 f i libconcrt:SchedulerBase.obj
 0001:000005e0       ?flushProtocolNotifications@SessionImpl@ivm@@EEAAXXZ 00000001800015e0 f i session_handle.obj
 0001:000005e0       ??3@YAXPEAX0@Z             00000001800015e0 f i environment.obj
 0001:000005e0       ?_Lock@?$basic_streambuf@DU?$char_traits@D@std@@@std@@UEAAXXZ 00000001800015e0 f i stack_trace.obj
 0001:000005e0       ?CreateNodeTopology@ResourceManager@details@Concurrency@@UEAAXIPEAIPEAPEAI0@Z 00000001800015e0 f i libconcrt:ResourceManager.obj
 0001:000005e0       ?NotifyResourcesExternallyBusy@ThreadScheduler@details@Concurrency@@UEAAXPEAPEAUIVirtualProcessorRoot@3@I@Z 00000001800015e0 f i libconcrt:ThreadScheduler.obj
 0001:000005e0       ?destroy@stl_condition_variable_vista@details@Concurrency@@UEAAXXZ 00000001800015e0 f i libcpmt:cond.obj
 0001:000005e0       ??1critical_section@Concurrency@@QEAA@XZ 00000001800015e0 f i libconcrt:rtlocks.obj
 0001:000005e0       ?VirtualProcessorActiveNotification@SchedulerBase@details@Concurrency@@MEAAX_NJ@Z 00000001800015e0 f i libconcrt:SchedulerBase.obj
 0001:000005e0       ?RMAwaken@InternalContextBase@details@Concurrency@@EEAAXXZ 00000001800015e0 f i libconcrt:InternalContextBase.obj
 0001:000005e0       ?imbue@?$basic_streambuf@DU?$char_traits@D@std@@@std@@MEAAXAEBVlocale@2@@Z 00000001800015e0 f i stack_trace.obj
 0001:000005e0       ?_Doraise@exception@stdext@@MEBAXXZ 00000001800015e0 f i environment.obj
 0001:000005e0       ?Destroy@WaitAnyBlock@details@Concurrency@@UEAAXXZ 00000001800015e0 f i libconcrt:event.obj
 0001:000005e0       ?destroy@stl_critical_section_win7@details@Concurrency@@UEAAXXZ 00000001800015e0 f i libcpmt:mutex.obj
 0001:000005e0       ?OnCriticalMemoryPressure@Platform@v8@@UEAAXXZ 00000001800015e0 f i environment.obj
 0001:000005f0       ??_Gparam_required@ivm@@UEAAPEAXI@Z 00000001800015f0 f i context_handle.obj
 0001:000005f0       ??_Eparam_required@ivm@@UEAAPEAXI@Z 00000001800015f0 f i * CIL library *:* CIL module *
 0001:000005f0       ??_Elogic_error@std@@UEAAPEAXI@Z 00000001800015f0 f i * CIL library *:* CIL module *
 0001:000005f0       ??_Eruntime_error@std@@UEAAPEAXI@Z 00000001800015f0 f i * CIL library *:* CIL module *
 0001:000005f0       ??_Gjs_runtime_error@ivm@@UEAAPEAXI@Z 00000001800015f0 f i environment.obj
 0001:000005f0       ??_Glogic_error@std@@UEAAPEAXI@Z 00000001800015f0 f i environment.obj
 0001:000005f0       ??_Gexception@stdext@@UEAAPEAXI@Z 00000001800015f0 f i environment.obj
 0001:000005f0       ??_Gruntime_error@std@@UEAAPEAXI@Z 00000001800015f0 f i environment.obj
 0001:000005f0       ??_Eexception@stdext@@UEAAPEAXI@Z 00000001800015f0 f i * CIL library *:* CIL module *
 0001:000005f0       ??_Ejs_runtime_error@ivm@@UEAAPEAXI@Z 00000001800015f0 f i * CIL library *:* CIL module *
 0001:00000620       ??1_Ref_count_base@std@@UEAA@XZ 0000000180001620 f i environment.obj
 0001:00000630       ?GetContextKind@ExternalContextBase@details@Concurrency@@EEBA?AW4ContextKind@ContextBase@23@XZ 0000000180001630 f i libconcrt:ExternalContextBase.obj
 0001:00000630       ?showmanyc@?$basic_streambuf@DU?$char_traits@D@std@@@std@@MEAA_JXZ 0000000180001630 f i stack_trace.obj
 0001:00000630       ?GetDefaultDestination@VirtualProcessor@details@Concurrency@@UEAAPEAUIExecutionContext@3@XZ 0000000180001630 f i libconcrt:VirtualProcessor.obj
 0001:00000630       ?NumberOfAvailableBackgroundThreads@Platform@v8@@UEAA_KXZ 0000000180001630 f i environment.obj
 0001:00000630       ?GetPageAllocator@Platform@v8@@UEAAPEAVPageAllocator@2@XZ 0000000180001630 f i environment.obj
 0001:00000630       ?EnterHyperCriticalRegion@ContextBase@details@Concurrency@@QEAAHXZ 0000000180001630 f i libconcrt:ContextBase.obj
 0001:00000630       ?PreRunnableSearch@VirtualProcessor@details@Concurrency@@UEAAPEAVInternalContextBase@23@XZ 0000000180001630 f i libconcrt:VirtualProcessor.obj
 0001:00000630       ?sync@?$basic_streambuf@DU?$char_traits@D@std@@@std@@MEAAHXZ 0000000180001630 f i stack_trace.obj
 0001:00000630       ?ExitCriticalRegion@ContextBase@details@Concurrency@@QEAAHXZ 0000000180001630 f i libconcrt:ContextBase.obj
 0001:00000630       ?EnterCriticalRegion@ContextBase@details@Concurrency@@QEAAHXZ 0000000180001630 f i libconcrt:ContextBase.obj
 0001:00000630       ?GetStackTracePrinter@Platform@v8@@UEAAP6AXXZXZ 0000000180001630 f i environment.obj
 0001:00000630       ?_Get_deleter@_Ref_count_base@std@@UEBAPEAXAEBVtype_info@@@Z 0000000180001630 f i environment.obj
 0001:00000630       ?ExitHyperCriticalRegion@ContextBase@details@Concurrency@@QEAAHXZ 0000000180001630 f i libconcrt:ContextBase.obj
 0001:00000640       ??_E_Ref_count_base@std@@UEAAPEAXI@Z 0000000180001640 f i * CIL library *:* CIL module *
 0001:00000640       ??_G_Ref_count_base@std@@UEAAPEAXI@Z 0000000180001640 f i environment.obj
 0001:00000670       ??0logic_error@std@@QEAA@PEBD@Z 0000000180001670 f i environment.obj
 0001:00000690       ?_Doraise@failure@ios_base@std@@MEBAXXZ 0000000180001690 f i stack_trace.obj
 0001:00000690       ?_Doraise@runtime_error@std@@MEBAXXZ 0000000180001690 f i environment.obj
 0001:00000690       ?_Doraise@system_error@std@@MEBAXXZ 0000000180001690 f i environment.obj
 0001:00000690       ?_Doraise@logic_error@std@@MEBAXXZ 0000000180001690 f i environment.obj
 0001:000006b0       ??0runtime_error@std@@QEAA@PEBD@Z 00000001800016b0 f i environment.obj
 0001:000006d0       ??1Scope@Context@v8@@QEAA@XZ 00000001800016d0 f i environment.obj
 0001:000006f0       ??1_Auto_cnd@std@@QEAA@XZ  00000001800016f0 f i environment.obj
 0001:00000700       ??1_Auto_mtx@std@@QEAA@XZ  0000000180001700 f i environment.obj
 0001:00000710       ?_Call_func@_Pad@std@@CAIPEAX@Z 0000000180001710 f i environment.obj
 0001:00000720       ??_E_Iostream_error_category@std@@UEAAPEAXI@Z 0000000180001720 f i * CIL library *:* CIL module *
 0001:00000720       ??_Gerror_category@std@@UEAAPEAXI@Z 0000000180001720 f i environment.obj
 0001:00000720       ??_G_Iostream_error_category@std@@UEAAPEAXI@Z 0000000180001720 f i stack_trace.obj
 0001:00000720       ??_Eerror_category@std@@UEAAPEAXI@Z 0000000180001720 f i * CIL library *:* CIL module *
 0001:00000720       ??_E_Generic_error_category@std@@UEAAPEAXI@Z 0000000180001720 f i * CIL library *:* CIL module *
 0001:00000720       ??_G_Generic_error_category@std@@UEAAPEAXI@Z 0000000180001720 f i environment.obj
 0001:00000750       ?default_error_condition@error_category@std@@UEBA?AVerror_condition@2@H@Z 0000000180001750 f i environment.obj
 0001:00000760       ?equivalent@error_category@std@@UEBA_NHAEBVerror_condition@2@@Z 0000000180001760 f i environment.obj
 0001:000007a0       ?equivalent@error_category@std@@UEBA_NAEBVerror_code@2@H@Z 00000001800017a0 f i environment.obj
 0001:000007c0       ?make_error_code@std@@YA?AVerror_code@1@W4errc@1@@Z 00000001800017c0 f i environment.obj
 0001:00000810       ??0_System_error@std@@IEAA@Verror_code@1@AEBV?$basic_string@DU?$char_traits@D@std@@V?$allocator@D@2@@1@@Z 0000000180001810 f i environment.obj
 0001:00000950       ??_Esystem_error@std@@UEAAPEAXI@Z 0000000180001950 f i * CIL library *:* CIL module *
 0001:00000950       ??_G_System_error@std@@UEAAPEAXI@Z 0000000180001950 f i environment.obj
 0001:00000950       ??_Efailure@ios_base@std@@UEAAPEAXI@Z 0000000180001950 f i * CIL library *:* CIL module *
 0001:00000950       ??_Gfailure@ios_base@std@@UEAAPEAXI@Z 0000000180001950 f i stack_trace.obj
 0001:00000950       ??_Gsystem_error@std@@UEAAPEAXI@Z 0000000180001950 f i environment.obj
 0001:00000950       ??_E_System_error@std@@UEAAPEAXI@Z 0000000180001950 f i * CIL library *:* CIL module *
 0001:00000980       ??0system_error@std@@QEAA@Verror_code@1@@Z 0000000180001980 f i environment.obj
 0001:00000a30       ?name@_Generic_error_category@std@@UEBAPEBDXZ 0000000180001a30 f i environment.obj
 0001:00000a40       ?message@_Generic_error_category@std@@UEBA?AV?$basic_string@DU?$char_traits@D@std@@V?$allocator@D@2@@2@H@Z 0000000180001a40 f i environment.obj
 0001:00000a90       ?generic_category@std@@YAAEBVerror_category@1@XZ 0000000180001a90 f i environment.obj
 0001:00000ac0       ??1condition_variable@std@@QEAA@XZ 0000000180001ac0 f i environment.obj
 0001:00000ad0       ??1mutex@std@@QEAA@XZ      0000000180001ad0 f i environment.obj
 0001:00000ae0       ??1condition_variable_any@std@@QEAA@XZ 0000000180001ae0 f i environment.obj
 0001:00000b50       ?notify_one@condition_variable_any@std@@QEAAXXZ 0000000180001b50 f i environment.obj
 0001:00000bc0       ?new_thread@thread_pool_t@@AEAA_KXZ 0000000180001bc0 f i environment.obj
 0001:00000ea0       ??$emplace_back@$$V@?$vector@Uthread_data_t@thread_pool_t@@V?$allocator@Uthread_data_t@thread_pool_t@@@std@@@std@@QEAAXXZ 0000000180001ea0 f i environment.obj
 0001:000011c0       ??1thread_pool_t@@QEAA@XZ  00000001800021c0 f i environment.obj
 0001:00001360       ?exec@thread_pool_t@@QEAAXAEAVaffinity_t@1@P6AX_NPEAX@Z2@Z 0000000180002360 f i environment.obj
 0001:000017f0       ?resize@thread_pool_t@@QEAAX_K@Z 00000001800027f0 f i environment.obj
 0001:000019f0       ??D?$StringValueWrapper@VUtf8Value@String@v8@@@ivm@@QEBAPEBDXZ 00000001800029f0 f i stack_trace.obj
 0001:000019f0       ??$?D_N$0A@@?$shared_ptr@_N@std@@QEBAAEA_NXZ 00000001800029f0 f i reference_handle.obj
 0001:000019f0       ??C?$unique_ptr@VExternalCopy@ivm@@U?$default_delete@VExternalCopy@ivm@@@std@@@std@@QEBAPEAVExternalCopy@ivm@@XZ 00000001800029f0 f i three_phase_task.obj
 0001:000019f0       ??$?CV__ExceptionPtr@@$0A@@?$shared_ptr@V__ExceptionPtr@@@std@@QEBAPEAV__ExceptionPtr@@XZ 00000001800029f0 f i libcpmt:excptptr.obj
 0001:000019f0       ??CIsolateEnvironment@ivm@@QEBAPEAVIsolate@v8@@XZ 00000001800029f0 f i environment.obj
 0001:000019f0       ??$?CUModuleInfo@ivm@@$0A@@?$shared_ptr@UModuleInfo@ivm@@@std@@QEBAPEAUModuleInfo@ivm@@XZ 00000001800029f0 f i module_handle.obj
 0001:00001a00       ?DefaultContext@IsolateEnvironment@ivm@@QEBA?AV?$Local@VContext@v8@@@v8@@XZ 0000000180002a00 f i environment.obj
 0001:00001a40       ?OnCriticalMemoryPressure@Platform@v8@@UEAA_N_K@Z 0000000180002a40 f i environment.obj
 0001:00001a40       ?IdleTasksEnabled@ForegroundTaskRunner@PlatformDelegate@ivm@@UEAA_NXZ 0000000180002a40 f i environment.obj
 0001:00001a40       ?IdleTasksEnabled@TmpForegroundTaskRunner@PlatformDelegate@ivm@@UEAA_NXZ 0000000180002a40 f i environment.obj
 0001:00001a50       ?GetWorkerThreadsTaskRunner@Platform@v8@@UEAA?AV?$shared_ptr@VTaskRunner@v8@@@std@@PEAVIsolate@2@@Z 0000000180002a50 f i environment.obj
 0001:00001a70       ?CallOnBackgroundThread@Platform@v8@@UEAAXPEAVTask@2@W4ExpectedRuntime@12@@Z 0000000180002a70 f i environment.obj
 0001:00001a80       ?CallBlockingTaskOnWorkerThread@Platform@v8@@UEAAXV?$unique_ptr@VTask@v8@@U?$default_delete@VTask@v8@@@std@@@std@@@Z 0000000180002a80 f i environment.obj
 0001:00001ad0       ??0timer_data_t@timer_t@ivm@@QEAA@V?$time_point@Usteady_clock@chrono@std@@V?$duration@_JU?$ratio@$00$0DLJKMKAA@@std@@@23@@chrono@std@@PEAPEAXV?$function@$$A6AXPEAX@Z@5@@Z 0000000180002ad0 f i environment.obj
 0001:00001bb0       ??0timer_thread_t@timer_t@ivm@@QEAA@V?$shared_ptr@Utimer_data_t@timer_t@ivm@@@std@@@Z 0000000180002bb0 f i environment.obj
 0001:00001db0       ?entry@timer_thread_t@timer_t@ivm@@QEAAXXZ 0000000180002db0 f i environment.obj
 0001:00002130       ?run_next@timer_thread_t@timer_t@ivm@@QEAAXAEAV?$unique_lock@Vmutex@std@@@std@@@Z 0000000180003130 f i environment.obj
 0001:00002300       ?global_mutex@timer_t@ivm@@CAAEAVmutex@std@@XZ 0000000180003300 f i environment.obj
 0001:00002380       ?global_cv@timer_t@ivm@@CAAEAVcondition_variable@std@@XZ 0000000180003380 f i environment.obj
 0001:00002400       ?thread_list@timer_t@ivm@@CAAEAV?$unordered_set@PEAVtimer_thread_t@timer_t@ivm@@U?$hash@PEAVtimer_thread_t@timer_t@ivm@@@std@@U?$equal_to@PEAVtimer_thread_t@timer_t@ivm@@@5@V?$allocator@PEAVtimer_thread_t@timer_t@ivm@@@5@@std@@XZ 0000000180003400 f i environment.obj
 0001:00002520       ?start_or_join_timer@timer_t@ivm@@CAXV?$shared_ptr@Utimer_data_t@timer_t@ivm@@@std@@@Z 0000000180003520 f i environment.obj
 0001:00002650       ?run@timer_t@ivm@@CAXV?$shared_ptr@Utimer_data_t@timer_t@ivm@@@std@@AEAV?$unique_lock@Vmutex@std@@@4@AEAVtimer_thread_t@12@@Z 0000000180003650 f i environment.obj
 0001:00002850       ?wait_detached@timer_t@ivm@@SAXIV?$function@$$A6AXPEAX@Z@std@@@Z 0000000180003850 f i environment.obj
 0001:00002980       ?chain@timer_t@ivm@@SAXPEAX@Z 0000000180003980 f i environment.obj
 0001:00002a20       ??1?$function@$$A6AXPEAX@Z@std@@QEAA@XZ 0000000180003a20 f i environment.obj
 0001:00002a20       ??1?$_Func_class@XPEAX@std@@QEAA@XZ 0000000180003a20 f i environment.obj
 0001:00002a60       ??1?$priority_queue@V?$shared_ptr@Utimer_data_t@timer_t@ivm@@@std@@V?$deque@V?$shared_ptr@Utimer_data_t@timer_t@ivm@@@std@@V?$allocator@V?$shared_ptr@Utimer_data_t@timer_t@ivm@@@std@@@2@@2@Ucmp@timer_data_t@timer_t@ivm@@@std@@QEAA@XZ 0000000180003a60 f i environment.obj
 0001:00002a90       ??0logic_error@std@@QEAA@AEBV01@@Z 0000000180003a90 f i environment.obj
 0001:00002ab0       ??1?$_Hash@V?$_Uset_traits@PEAVtimer_thread_t@timer_t@ivm@@V?$_Uhash_compare@PEAVtimer_thread_t@timer_t@ivm@@U?$hash@PEAVtimer_thread_t@timer_t@ivm@@@std@@U?$equal_to@PEAVtimer_thread_t@timer_t@ivm@@@5@@std@@V?$allocator@PEAVtimer_thread_t@timer_t@ivm@@@5@$0A@@std@@@std@@QEAA@XZ 0000000180003ab0 f i environment.obj
 0001:00002bb0       ?Run@TaskHolder@PlatformDelegate@ivm@@UEAAXXZ 0000000180003bb0 f i environment.obj
 0001:00002bc0       ??1IsolateCtorScope@PlatformDelegate@ivm@@QEAA@XZ 0000000180003bc0 f i environment.obj
 0001:00002c30       ?DelegateInstance@PlatformDelegate@ivm@@SAAEAV12@XZ 0000000180003c30 f i environment.obj
 0001:00002ce0       ?NumberOfWorkerThreads@PlatformDelegate@ivm@@UEAAHXZ 0000000180003ce0 f i environment.obj
 0001:00002cf0       ?CallOnWorkerThread@PlatformDelegate@ivm@@UEAAXV?$unique_ptr@VTask@v8@@U?$default_delete@VTask@v8@@@std@@@std@@@Z 0000000180003cf0 f i environment.obj
 0001:00002d40       ?GetBackgroundTaskRunner@PlatformDelegate@ivm@@UEAA?AV?$shared_ptr@VTaskRunner@v8@@@std@@PEAVIsolate@v8@@@Z 0000000180003d40 f i environment.obj
 0001:00002d70       ?PostTask@ForegroundTaskRunner@PlatformDelegate@ivm@@UEAAXV?$unique_ptr@VTask@v8@@U?$default_delete@VTask@v8@@@std@@@std@@@Z 0000000180003d70 f i environment.obj
 0001:00002e90       ?PostDelayedTask@ForegroundTaskRunner@PlatformDelegate@ivm@@UEAAXV?$unique_ptr@VTask@v8@@U?$default_delete@VTask@v8@@@std@@@std@@N@Z 0000000180003e90 f i environment.obj
 0001:00003030       ?PostIdleTask@ForegroundTaskRunner@PlatformDelegate@ivm@@UEAAXV?$unique_ptr@VIdleTask@v8@@U?$default_delete@VIdleTask@v8@@@std@@@std@@@Z 0000000180004030 f i environment.obj
 0001:00003030       ?PostIdleTask@TmpForegroundTaskRunner@PlatformDelegate@ivm@@UEAAXV?$unique_ptr@VIdleTask@v8@@U?$default_delete@VIdleTask@v8@@@std@@@std@@@Z 0000000180004030 f i environment.obj
 0001:00003060       ?PostDelayedTask@TmpForegroundTaskRunner@PlatformDelegate@ivm@@UEAAXV?$unique_ptr@VTask@v8@@U?$default_delete@VTask@v8@@@std@@@std@@N@Z 0000000180004060 f i environment.obj
 0001:00003060       ?PostTask@TmpForegroundTaskRunner@PlatformDelegate@ivm@@UEAAXV?$unique_ptr@VTask@v8@@U?$default_delete@VTask@v8@@@std@@@std@@@Z 0000000180004060 f i environment.obj
 0001:000030a0       ?GetForegroundTaskRunner@PlatformDelegate@ivm@@UEAA?AV?$shared_ptr@VTaskRunner@v8@@@std@@PEAVIsolate@v8@@@Z 00000001800040a0 f i environment.obj
 0001:00003320       ?CallOnForegroundThread@PlatformDelegate@ivm@@UEAAXPEAVIsolate@v8@@PEAVTask@4@@Z 0000000180004320 f i environment.obj
 0001:000034e0       ?CallDelayedOnForegroundThread@PlatformDelegate@ivm@@UEAAXPEAVIsolate@v8@@PEAVTask@4@N@Z 00000001800044e0 f i environment.obj
 0001:00003540       ?CallIdleOnForegroundThread@PlatformDelegate@ivm@@UEAAXPEAVIsolate@v8@@PEAVIdleTask@4@@Z 0000000180004540 f i environment.obj
 0001:00003570       ?IdleTasksEnabled@PlatformDelegate@ivm@@UEAA_NPEAVIsolate@v8@@@Z 0000000180004570 f i environment.obj
 0001:00003590       ?CurrentClockTimeMillis@PlatformDelegate@ivm@@UEAANXZ 0000000180004590 f i environment.obj
 0001:000035a0       ?MonotonicallyIncreasingTime@PlatformDelegate@ivm@@UEAANXZ 00000001800045a0 f i environment.obj
 0001:000035b0       ?GetTracingController@PlatformDelegate@ivm@@UEAAPEAVTracingController@v8@@XZ 00000001800045b0 f i environment.obj
 0001:000035c0       ??_EPhase2RunnerIgnored@ThreePhaseTask@ivm@@UEAAPEAXI@Z 00000001800045c0 f i * CIL library *:* CIL module *
 0001:000035c0       ??_GTaskHolder@PlatformDelegate@ivm@@UEAAPEAXI@Z 00000001800045c0 f i environment.obj
 0001:000035c0       ??_ETaskHolder@PlatformDelegate@ivm@@UEAAPEAXI@Z 00000001800045c0 f i * CIL library *:* CIL module *
 0001:000035c0       ??_GPhase2RunnerIgnored@ThreePhaseTask@ivm@@UEAAPEAXI@Z 00000001800045c0 f i three_phase_task.obj
 0001:00003610       ??_EPlatformDelegate@ivm@@UEAAPEAXI@Z 0000000180004610 f i * CIL library *:* CIL module *
 0001:00003610       ??_GPlatformDelegate@ivm@@UEAAPEAXI@Z 0000000180004610 f i environment.obj
 0001:000036a0       ??_EForegroundTaskRunner@PlatformDelegate@ivm@@UEAAPEAXI@Z 00000001800046a0 f i * CIL library *:* CIL module *
 0001:000036a0       ??_GForegroundTaskRunner@PlatformDelegate@ivm@@UEAAPEAXI@Z 00000001800046a0 f i environment.obj
 0001:00003780       ??_GNativeModuleTransferable@NativeModuleHandle@ivm@@UEAAPEAXI@Z 0000000180004780 f i native_module_handle.obj
 0001:00003780       ??_EIsolateHandleTransferable@IsolateHandle@ivm@@UEAAPEAXI@Z 0000000180004780 f i * CIL library *:* CIL module *
 0001:00003780       ??_GDeleteSession@?4??Disconnect@InspectorSession@ivm@@QEAAXXZ@UEAAPEAXI@Z 0000000180004780 f i inspector.obj
 0001:00003780       ??_EScriptHandleTransferable@ScriptHandle@ivm@@UEAAPEAXI@Z 0000000180004780 f i * CIL library *:* CIL module *
 0001:00003780       ??_EModuleHandleTransferable@ModuleHandle@ivm@@UEAAPEAXI@Z 0000000180004780 f i * CIL library *:* CIL module *
 0001:00003780       ??_GExternalCopyTransferable@ExternalCopyHandle@ivm@@UEAAPEAXI@Z 0000000180004780 f i external_copy_handle.obj
 0001:00003780       ??_EDeleteSession@?4??Disconnect@InspectorSession@ivm@@QEAAXXZ@UEAAPEAXI@Z 0000000180004780 f i * CIL library *:* CIL module *
 0001:00003780       ??_GTmpForegroundTaskRunner@PlatformDelegate@ivm@@UEAAPEAXI@Z 0000000180004780 f i environment.obj
 0001:00003780       ??_GModuleHandleTransferable@ModuleHandle@ivm@@UEAAPEAXI@Z 0000000180004780 f i module_handle.obj
 0001:00003780       ??_ETmpForegroundTaskRunner@PlatformDelegate@ivm@@UEAAPEAXI@Z 0000000180004780 f i * CIL library *:* CIL module *
 0001:00003780       ??_EExternalCopyTransferable@ExternalCopyHandle@ivm@@UEAAPEAXI@Z 0000000180004780 f i * CIL library *:* CIL module *
 0001:00003780       ??_ENativeModuleTransferable@NativeModuleHandle@ivm@@UEAAPEAXI@Z 0000000180004780 f i * CIL library *:* CIL module *
 0001:00003780       ??_GIsolateHandleTransferable@IsolateHandle@ivm@@UEAAPEAXI@Z 0000000180004780 f i isolate_handle.obj
 0001:00003780       ??_GScriptHandleTransferable@ScriptHandle@ivm@@UEAAPEAXI@Z 0000000180004780 f i script_handle.obj
 0001:00003810       ??0runtime_error@std@@QEAA@AEBV01@@Z 0000000180004810 f i environment.obj
 0001:00003830       ??_Gjs_error_ctor_base@ivm@@UEAAPEAXI@Z 0000000180004830 f i environment.obj
 0001:00003830       ??_Gjs_error_message@ivm@@UEAAPEAXI@Z 0000000180004830 f i environment.obj
 0001:00003830       ??_Gjs_fatal_error@ivm@@UEAAPEAXI@Z 0000000180004830 f i environment.obj
 0001:00003830       ??_Ejs_error_ctor_base@ivm@@UEAAPEAXI@Z 0000000180004830 f i * CIL library *:* CIL module *
 0001:00003830       ??_Ejs_fatal_error@ivm@@UEAAPEAXI@Z 0000000180004830 f i * CIL library *:* CIL module *
 0001:00003830       ??_Ejs_error_message@ivm@@UEAAPEAXI@Z 0000000180004830 f i * CIL library *:* CIL module *
 0001:00003880       ??0js_runtime_error@ivm@@QEAA@XZ 0000000180004880 f i environment.obj
 0001:000038a0       ??0js_fatal_error@ivm@@QEAA@PEBD@Z 00000001800048a0 f i environment.obj
 0001:000038e0       ??1js_error_ctor_base@ivm@@UEAA@XZ 00000001800048e0 f i environment.obj
 0001:000038e0       ??1js_fatal_error@ivm@@UEAA@XZ 00000001800048e0 f i environment.obj
 0001:00003910       ??0Lock@Executor@IsolateEnvironment@ivm@@QEAA@AEAV23@@Z 0000000180004910 f   environment.obj
 0001:00003af0       ??1Lock@Executor@IsolateEnvironment@ivm@@QEAA@XZ 0000000180004af0 f   environment.obj
 0001:00003b70       ??1Unlock@Executor@IsolateEnvironment@ivm@@QEAA@XZ 0000000180004b70 f   environment.obj
 0001:00003ba0       ??1CpuTimer@Executor@IsolateEnvironment@ivm@@QEAA@XZ 0000000180004ba0 f   environment.obj
 0001:00003c80       ?Pause@CpuTimer@Executor@IsolateEnvironment@ivm@@QEAAXXZ 0000000180004c80 f   environment.obj
 0001:00003d40       ?Resume@CpuTimer@Executor@IsolateEnvironment@ivm@@QEAAXXZ 0000000180004d40 f   environment.obj
 0001:00003df0       ??1PauseScope@CpuTimer@Executor@IsolateEnvironment@ivm@@QEAA@XZ 0000000180004df0 f   environment.obj
 0001:00003e10       ??1UnpauseScope@CpuTimer@Executor@IsolateEnvironment@ivm@@QEAA@XZ 0000000180004e10 f   environment.obj
 0001:00003e30       ??1WallTimer@Executor@IsolateEnvironment@ivm@@QEAA@XZ 0000000180004e30 f   environment.obj
 0001:00003ee0       ??1Scope@Executor@IsolateEnvironment@ivm@@QEAA@XZ 0000000180004ee0 f   environment.obj
 0001:00003f10       ??0Scheduler@IsolateEnvironment@ivm@@QEAA@XZ 0000000180004f10 f   environment.obj
 0001:00004100       ??1?$queue@V?$unique_ptr@VRunnable@ivm@@U?$default_delete@VRunnable@ivm@@@std@@@std@@V?$deque@V?$unique_ptr@VRunnable@ivm@@U?$default_delete@VRunnable@ivm@@@std@@@std@@V?$allocator@V?$unique_ptr@VRunnable@ivm@@U?$default_delete@VRunnable@ivm@@@std@@@std@@@2@@2@@std@@QEAA@XZ 0000000180005100 f i environment.obj
 0001:00004130       ??1Scheduler@IsolateEnvironment@ivm@@QEAA@XZ 0000000180005130 f   environment.obj
 0001:000042b0       ?AsyncCallbackCommon@Scheduler@IsolateEnvironment@ivm@@CAX_NPEAX@Z 00000001800052b0 f   environment.obj
 0001:00004350       ?AsyncCallbackNonDefaultIsolate@Scheduler@IsolateEnvironment@ivm@@CAX_NPEAX@Z 0000000180005350 f   environment.obj
 0001:00004380       ?AsyncCallbackDefaultIsolate@Scheduler@IsolateEnvironment@ivm@@CAXPEAUuv_async_s@@@Z 0000000180005380 f   environment.obj
 0001:00004480       ?AsyncCallbackInterrupt@Scheduler@IsolateEnvironment@ivm@@CAXPEAVIsolate@v8@@PEAX@Z 0000000180005480 f   environment.obj
 0001:00004490       ?SyncCallbackInterrupt@Scheduler@IsolateEnvironment@ivm@@CAXPEAVIsolate@v8@@PEAX@Z 0000000180005490 f   environment.obj
 0001:000044a0       ??1Lock@Scheduler@IsolateEnvironment@ivm@@QEAA@XZ 00000001800054a0 f   environment.obj
 0001:000044d0       ?PushHandleTask@Lock@Scheduler@IsolateEnvironment@ivm@@QEAAXV?$unique_ptr@VRunnable@ivm@@U?$default_delete@VRunnable@ivm@@@std@@@std@@@Z 00000001800054d0 f   environment.obj
 0001:000045c0       ?PushInterrupt@Lock@Scheduler@IsolateEnvironment@ivm@@QEAAXV?$unique_ptr@VRunnable@ivm@@U?$default_delete@VRunnable@ivm@@@std@@@std@@@Z 00000001800055c0 f   environment.obj
 0001:000046b0       ?PushSyncInterrupt@Lock@Scheduler@IsolateEnvironment@ivm@@QEAAXV?$unique_ptr@VRunnable@ivm@@U?$default_delete@VRunnable@ivm@@@std@@@std@@@Z 00000001800056b0 f   environment.obj
 0001:000047a0       ?WakeIsolate@Lock@Scheduler@IsolateEnvironment@ivm@@QEAA_NV?$shared_ptr@VIsolateEnvironment@ivm@@@std@@@Z 00000001800057a0 f   environment.obj
 0001:00004920       ??1AsyncWait@Scheduler@IsolateEnvironment@ivm@@QEAA@XZ 0000000180005920 f   environment.obj
 0001:00004980       ?Wait@AsyncWait@Scheduler@IsolateEnvironment@ivm@@QEAAXXZ 0000000180005980 f   environment.obj
 0001:00004ad0       ?Wake@AsyncWait@Scheduler@IsolateEnvironment@ivm@@QEAAXXZ 0000000180005ad0 f   environment.obj
 0001:00004b40       ??1?$js_error_ctor@$1?Error@Exception@v8@@SA?AV?$Local@VValue@v8@@@3@V?$Local@VString@v8@@@3@@Z@ivm@@UEAA@XZ 0000000180005b40 f i environment.obj
 0001:00004b40       ??1?$js_error_ctor@$1?TypeError@Exception@v8@@SA?AV?$Local@VValue@v8@@@3@V?$Local@VString@v8@@@3@@Z@ivm@@UEAA@XZ 0000000180005b40 f i stack_trace.obj
 0001:00004b40       ??1?$js_error_ctor@$1?RangeError@Exception@v8@@SA?AV?$Local@VValue@v8@@@3@V?$Local@VString@v8@@@3@@Z@ivm@@UEAA@XZ 0000000180005b40 f i external_copy.obj
 0001:00004b70       ??0?$js_error_ctor@$1?Error@Exception@v8@@SA?AV?$Local@VValue@v8@@@3@V?$Local@VString@v8@@@3@@Z@ivm@@QEAA@AEBV01@@Z 0000000180005b70 f i environment.obj
 0001:00004bf0       ??0js_error_ctor_base@ivm@@QEAA@AEBV01@@Z 0000000180005bf0 f i environment.obj
 0001:00004c50       ??0js_error_message@ivm@@QEAA@AEBV01@@Z 0000000180005c50 f i environment.obj
 0001:00004cb0       ??0js_runtime_error@ivm@@QEAA@AEBV01@@Z 0000000180005cb0 f i environment.obj
 0001:00004cd0       ??_G?$js_error_ctor@$1?RangeError@Exception@v8@@SA?AV?$Local@VValue@v8@@@3@V?$Local@VString@v8@@@3@@Z@ivm@@UEAAPEAXI@Z 0000000180005cd0 f i external_copy.obj
 0001:00004cd0       ??_E?$js_error_ctor@$1?RangeError@Exception@v8@@SA?AV?$Local@VValue@v8@@@3@V?$Local@VString@v8@@@3@@Z@ivm@@UEAAPEAXI@Z 0000000180005cd0 f i * CIL library *:* CIL module *
 0001:00004cd0       ??_G?$js_error_ctor@$1?TypeError@Exception@v8@@SA?AV?$Local@VValue@v8@@@3@V?$Local@VString@v8@@@3@@Z@ivm@@UEAAPEAXI@Z 0000000180005cd0 f i stack_trace.obj
 0001:00004cd0       ??_E?$js_error_ctor@$1?TypeError@Exception@v8@@SA?AV?$Local@VValue@v8@@@3@V?$Local@VString@v8@@@3@@Z@ivm@@UEAAPEAXI@Z 0000000180005cd0 f i * CIL library *:* CIL module *
 0001:00004cd0       ??_E?$js_error_ctor@$1?Error@Exception@v8@@SA?AV?$Local@VValue@v8@@@3@V?$Local@VString@v8@@@3@@Z@ivm@@UEAAPEAXI@Z 0000000180005cd0 f i * CIL library *:* CIL module *
 0001:00004cd0       ??_G?$js_error_ctor@$1?Error@Exception@v8@@SA?AV?$Local@VValue@v8@@@3@V?$Local@VString@v8@@@3@@Z@ivm@@UEAAPEAXI@Z 0000000180005cd0 f i environment.obj
 0001:00004d20       ??0js_fatal_error@ivm@@QEAA@AEBV01@@Z 0000000180005d20 f i environment.obj
 0001:00004d80       ?GCEpilogueCallback@IsolateEnvironment@ivm@@CAXPEAVIsolate@v8@@W4GCType@4@W4GCCallbackFlags@4@@Z 0000000180005d80 f   environment.obj
 0001:00004f90       ??_EAddDefaultContext@?1???0InspectorAgent@ivm@@QEAA@AEAVIsolateEnvironment@2@@Z@UEAAPEAXI@Z 0000000180005f90 f i * CIL library *:* CIL module *
 0001:00004f90       ??_GAddDefaultContext@?1???0InspectorAgent@ivm@@QEAA@AEAVIsolateEnvironment@2@@Z@UEAAPEAXI@Z 0000000180005f90 f i inspector.obj
 0001:00004f90       ??_GLowMemoryTask@?7??GCEpilogueCallback@IsolateEnvironment@ivm@@CAXPEAVIsolate@v8@@W4GCType@5@W4GCCallbackFlags@5@@Z@UEAAPEAXI@Z 0000000180005f90 f i environment.obj
 0001:00004f90       ??_ELowMemoryTask@?7??GCEpilogueCallback@IsolateEnvironment@ivm@@CAXPEAVIsolate@v8@@W4GCType@5@W4GCCallbackFlags@5@@Z@UEAAPEAXI@Z 0000000180005f90 f i * CIL library *:* CIL module *
 0001:00004fc0       ?OOMErrorCallback@IsolateEnvironment@ivm@@CAXPEBD_N@Z 0000000180005fc0 f   environment.obj
 0001:00005100       ?PromiseRejectCallback@IsolateEnvironment@ivm@@CAXVPromiseRejectMessage@v8@@@Z 0000000180006100 f   environment.obj
 0001:000051b0       ?NearHeapLimitCallback@IsolateEnvironment@ivm@@CA_KPEAX_K1@Z 00000001800061b0 f   environment.obj
 0001:000051e0       ?AsyncEntry@IsolateEnvironment@ivm@@AEAAXXZ 00000001800061e0 f   environment.obj
 0001:00005ad0       ??4?$queue@V?$unique_ptr@VRunnable@ivm@@U?$default_delete@VRunnable@ivm@@@std@@@std@@V?$deque@V?$unique_ptr@VRunnable@ivm@@U?$default_delete@VRunnable@ivm@@@std@@@std@@V?$allocator@V?$unique_ptr@VRunnable@ivm@@U?$default_delete@VRunnable@ivm@@@std@@@std@@@2@@2@@std@@QEAAAEAV01@$$QEAV01@@Z 0000000180006ad0 f i environment.obj
 0001:00005b60       ??0IsolateEnvironment@ivm@@QEAA@XZ 0000000180006b60 f   environment.obj
 0001:00005e20       ??1Executor@IsolateEnvironment@ivm@@QEAA@XZ 0000000180006e20 f i environment.obj
 0001:00005e30       ??1?$unordered_map@PEAV?$Persistent@VObject@v8@@V?$NonCopyablePersistentTraits@VObject@v8@@@2@@v8@@U?$pair@P6AXPEAX@ZPEAX@std@@U?$hash@PEAV?$Persistent@VObject@v8@@V?$NonCopyablePersistentTraits@VObject@v8@@@2@@v8@@@4@U?$equal_to@PEAV?$Persistent@VObject@v8@@V?$NonCopyablePersistentTraits@VObject@v8@@@2@@v8@@@4@V?$allocator@U?$pair@QEAV?$Persistent@VObject@v8@@V?$NonCopyablePersistentTraits@VObject@v8@@@2@@v8@@U?$pair@P6AXPEAX@ZPEAX@std@@@std@@@4@@std@@QEAA@XZ 0000000180006e30 f i environment.obj
 0001:00005e40       ??1?$unordered_multimap@HPEAUModuleInfo@ivm@@U?$hash@H@std@@U?$equal_to@H@4@V?$allocator@U?$pair@$$CBHPEAUModuleInfo@ivm@@@std@@@4@@std@@QEAA@XZ 0000000180006e40 f i environment.obj
 0001:00005e50       ??1?$_Hash@V?$_Umap_traits@PEAV?$Persistent@VObject@v8@@V?$NonCopyablePersistentTraits@VObject@v8@@@2@@v8@@U?$pair@P6AXPEAX@ZPEAX@std@@V?$_Uhash_compare@PEAV?$Persistent@VObject@v8@@V?$NonCopyablePersistentTraits@VObject@v8@@@2@@v8@@U?$hash@PEAV?$Persistent@VObject@v8@@V?$NonCopyablePersistentTraits@VObject@v8@@@2@@v8@@@std@@U?$equal_to@PEAV?$Persistent@VObject@v8@@V?$NonCopyablePersistentTraits@VObject@v8@@@2@@v8@@@4@@4@V?$allocator@U?$pair@QEAV?$Persistent@VObject@v8@@V?$NonCopyablePersistentTraits@VObject@v8@@@2@@v8@@U?$pair@P6AXPEAX@ZPEAX@std@@@std@@@4@$0A@@std@@@std@@QEAA@XZ 0000000180006e50 f i environment.obj
 0001:00005f40       ??1?$_Hash@V?$_Umap_traits@PEAVIsolate@v8@@PEAVIsolateEnvironment@ivm@@V?$_Uhash_compare@PEAVIsolate@v8@@U?$hash@PEAVIsolate@v8@@@std@@U?$equal_to@PEAVIsolate@v8@@@4@@std@@V?$allocator@U?$pair@QEAVIsolate@v8@@PEAVIsolateEnvironment@ivm@@@std@@@6@$0A@@std@@@std@@QEAA@XZ 0000000180006f40 f i environment.obj
 0001:00005f40       ??1?$_Hash@V?$_Umap_traits@HPEAUModuleInfo@ivm@@V?$_Uhash_compare@HU?$hash@H@std@@U?$equal_to@H@2@@std@@V?$allocator@U?$pair@$$CBHPEAUModuleInfo@ivm@@@std@@@4@$00@std@@@std@@QEAA@XZ 0000000180006f40 f i environment.obj
 0001:00006030       ??1?$_Hash@V?$_Umap_traits@PEAVNativeModule@ivm@@V?$shared_ptr@VNativeModule@ivm@@@std@@V?$_Uhash_compare@PEAVNativeModule@ivm@@U?$hash@PEAVNativeModule@ivm@@@std@@U?$equal_to@PEAVNativeModule@ivm@@@4@@4@V?$allocator@U?$pair@QEAVNativeModule@ivm@@V?$shared_ptr@VNativeModule@ivm@@@std@@@std@@@4@$0A@@std@@@std@@QEAA@XZ 0000000180007030 f i environment.obj
 0001:00006180       ?IsolateCtor@IsolateEnvironment@ivm@@AEAAXPEAVIsolate@v8@@V?$Local@VContext@v8@@@4@@Z 0000000180007180 f   environment.obj
 0001:00006340       ?IsolateCtor@IsolateEnvironment@ivm@@AEAAX_KV?$shared_ptr@X@std@@0@Z 0000000180007340 f   environment.obj
 0001:00006880       ??1IsolateEnvironment@ivm@@QEAA@XZ 0000000180007880 f   environment.obj
 0001:000070f0       ?TaskEpilogue@IsolateEnvironment@ivm@@QEAAXXZ 00000001800080f0 f   environment.obj
 0001:00007200       ?EnableInspectorAgent@IsolateEnvironment@ivm@@QEAAXXZ 0000000180008200 f   environment.obj
 0001:000073a0       ?Terminate@IsolateEnvironment@ivm@@QEAAXXZ 00000001800083a0 f   environment.obj
 0001:000074e0       ?AddWeakCallback@IsolateEnvironment@ivm@@QEAAXPEAV?$Persistent@VObject@v8@@V?$NonCopyablePersistentTraits@VObject@v8@@@2@@v8@@P6AXPEAX@Z1@Z 00000001800084e0 f   environment.obj
 0001:000076b0       ?RemoveWeakCallback@IsolateEnvironment@ivm@@QEAAXPEAV?$Persistent@VObject@v8@@V?$NonCopyablePersistentTraits@VObject@v8@@@2@@v8@@@Z 00000001800086b0 f   environment.obj
 0001:000077f0       ?LookupIsolate@IsolateEnvironment@ivm@@SA?AV?$shared_ptr@VIsolateHolder@ivm@@@std@@PEAVIsolate@v8@@@Z 00000001800087f0 f   environment.obj
 0001:00007990       ??1?$unique_ptr@UHeapStatRunner@ivm@@U?$default_delete@UHeapStatRunner@ivm@@@std@@@std@@QEAA@XZ 0000000180008990 f   isolate_handle.obj
 0001:00007990       ??1?$unique_ptr@UCompileModuleRunner@ivm@@U?$default_delete@UCompileModuleRunner@ivm@@@std@@@std@@QEAA@XZ 0000000180008990 f   isolate_handle.obj
 0001:00007990       ??1?$unique_ptr@VDereferenceHandle@ivm@@U?$default_delete@VDereferenceHandle@ivm@@@std@@@std@@QEAA@XZ 0000000180008990 f   reference_handle.obj
 0001:00007990       ??1?$unique_ptr@VLibHandle@ivm@@U?$default_delete@VLibHandle@ivm@@@std@@@std@@QEAA@XZ 0000000180008990 f   isolate.obj
 0001:00007990       ??1?$unique_ptr@VStackTraceHolder@ivm@@U?$default_delete@VStackTraceHolder@ivm@@@std@@@std@@QEAA@XZ 0000000180008990 f   stack_trace.obj
 0001:00007990       ??1?$unique_ptr@UCopyRunner@ivm@@U?$default_delete@UCopyRunner@ivm@@@std@@@std@@QEAA@XZ 0000000180008990 f   reference_handle.obj
 0001:00007990       ??1?$unique_ptr@VExternalCopySharedArrayBuffer@ivm@@U?$default_delete@VExternalCopySharedArrayBuffer@ivm@@@std@@@std@@QEAA@XZ 0000000180008990 f   external_copy.obj
 0001:00007990       ??1?$unique_ptr@VContextHandle@ivm@@U?$default_delete@VContextHandle@ivm@@@std@@@std@@QEAA@XZ 0000000180008990 f   context_handle.obj
 0001:00007990       ??1?$unique_ptr@UCreateContextRunner@ivm@@U?$default_delete@UCreateContextRunner@ivm@@@std@@@std@@QEAA@XZ 0000000180008990 f   isolate_handle.obj
 0001:00007990       ??1?$unique_ptr@VIsolateHandle@ivm@@U?$default_delete@VIsolateHandle@ivm@@@std@@@std@@QEAA@XZ 0000000180008990 f   isolate_handle.obj
 0001:00007990       ??1?$unique_ptr@VLibraryHandle@ivm@@U?$default_delete@VLibraryHandle@ivm@@@std@@@std@@QEAA@XZ 0000000180008990 f   isolate.obj
 0001:00007990       ??1?$unique_ptr@UTimeoutRunner@ivm@@U?$default_delete@UTimeoutRunner@ivm@@@std@@@std@@QEAA@XZ 0000000180008990 f   reference_handle.obj
 0001:00007990       ??1?$unique_ptr@UPhase2Runner@ThreePhaseTask@ivm@@U?$default_delete@UPhase2Runner@ThreePhaseTask@ivm@@@std@@@std@@QEAA@XZ 0000000180008990 f   isolate_handle.obj
 0001:00007990       ??1?$unique_ptr@VExternalCopyString@ivm@@U?$default_delete@VExternalCopyString@ivm@@@std@@@std@@QEAA@XZ 0000000180008990 f   external_copy.obj
 0001:00007990       ??1?$unique_ptr@VExternalCopyArrayBuffer@ivm@@U?$default_delete@VExternalCopyArrayBuffer@ivm@@@std@@@std@@QEAA@XZ 0000000180008990 f   external_copy.obj
 0001:00007990       ??1?$unique_ptr@VNativeModuleHandle@ivm@@U?$default_delete@VNativeModuleHandle@ivm@@@std@@@std@@QEAA@XZ 0000000180008990 f   native_module_handle.obj
 0001:00007990       ??1?$unique_ptr@UGetRunner@ivm@@U?$default_delete@UGetRunner@ivm@@@std@@@std@@QEAA@XZ 0000000180008990 f   reference_handle.obj
 0001:00007990       ??1?$unique_ptr@UApplyRunner@ivm@@U?$default_delete@UApplyRunner@ivm@@@std@@@std@@QEAA@XZ 0000000180008990 f   reference_handle.obj
 0001:00007990       ??1?$unique_ptr@VExternalCopyIntoHandle@ivm@@U?$default_delete@VExternalCopyIntoHandle@ivm@@@std@@@std@@QEAA@XZ 0000000180008990 f   external_copy_handle.obj
 0001:00007990       ??1?$unique_ptr@VExternalCopyHandle@ivm@@U?$default_delete@VExternalCopyHandle@ivm@@@std@@@std@@QEAA@XZ 0000000180008990 f   external_copy_handle.obj
 0001:00007990       ??1?$unique_ptr@VClassHandle@ivm@@U?$default_delete@VClassHandle@ivm@@@std@@@std@@QEAA@XZ 0000000180008990 f   stack_trace.obj
 0001:00007990       ??1?$unique_ptr@VRunnable@ivm@@U?$default_delete@VRunnable@ivm@@@std@@@std@@QEAA@XZ 0000000180008990 f   environment.obj
 0001:00007990       ??1?$unique_ptr@URunRunner@ivm@@U?$default_delete@URunRunner@ivm@@@std@@@std@@QEAA@XZ 0000000180008990 f   script_handle.obj
 0001:00007990       ??1?$unique_ptr@UPhase2RunnerIgnored@ThreePhaseTask@ivm@@U?$default_delete@UPhase2RunnerIgnored@ThreePhaseTask@ivm@@@std@@@std@@QEAA@XZ 0000000180008990 f   isolate_handle.obj
 0001:00007990       ??1?$unique_ptr@UEvaluateRunner@ivm@@U?$default_delete@UEvaluateRunner@ivm@@@std@@@std@@QEAA@XZ 0000000180008990 f   module_handle.obj
 0001:00007990       ??1?$unique_ptr@UInstantiateRunner@ivm@@U?$default_delete@UInstantiateRunner@ivm@@@std@@@std@@QEAA@XZ 0000000180008990 f   module_handle.obj
 0001:00007990       ??1?$unique_ptr@VCreateRunner@ivm@@U?$default_delete@VCreateRunner@ivm@@@std@@@std@@QEAA@XZ 0000000180008990 f   native_module_handle.obj
 0001:00007990       ??1?$unique_ptr@VTransferable@ivm@@U?$default_delete@VTransferable@ivm@@@std@@@std@@QEAA@XZ 0000000180008990 f   context_handle.obj
 0001:00007990       ??1?$unique_ptr@VReferenceHandleTransferable@ReferenceHandle@ivm@@U?$default_delete@VReferenceHandleTransferable@ReferenceHandle@ivm@@@std@@@std@@QEAA@XZ 0000000180008990 f   reference_handle.obj
 0001:00007990       ??1?$unique_ptr@USetRunner@ivm@@U?$default_delete@USetRunner@ivm@@@std@@@std@@QEAA@XZ 0000000180008990 f   reference_handle.obj
 0001:00007990       ??1?$unique_ptr@UCompileScriptRunner@ivm@@U?$default_delete@UCompileScriptRunner@ivm@@@std@@@std@@QEAA@XZ 0000000180008990 f   isolate_handle.obj
 0001:00007990       ??1?$unique_ptr@VModuleLinker@ivm@@U?$default_delete@VModuleLinker@ivm@@@std@@@std@@QEAA@XZ 0000000180008990 f   module_handle.obj
 0001:00007990       ??1?$unique_ptr@VTaskHolder@PlatformDelegate@ivm@@U?$default_delete@VTaskHolder@PlatformDelegate@ivm@@@std@@@std@@QEAA@XZ 0000000180008990 f   environment.obj
 0001:000079b0       ?ConstructError@?$js_error_ctor@$1?Error@Exception@v8@@SA?AV?$Local@VValue@v8@@@3@V?$Local@VString@v8@@@3@@Z@ivm@@UEBA?AV?$Local@VValue@v8@@@v8@@XZ 00000001800089b0 f i environment.obj
 0001:00007bd0       ??0?$js_error_ctor@$1?Error@Exception@v8@@SA?AV?$Local@VValue@v8@@@3@V?$Local@VString@v8@@@3@@Z@ivm@@QEAA@V?$basic_string@DU?$char_traits@D@std@@V?$allocator@D@2@@std@@@Z 0000000180008bd0 f i environment.obj
 0001:00007ca0       ??1?$shared_ptr@UBookkeepingStatics@IsolateEnvironment@ivm@@@std@@QEAA@XZ 0000000180008ca0 f i environment.obj
 0001:00007ca0       ??1?$shared_ptr@X@std@@QEAA@XZ 0000000180008ca0 f i environment.obj
 0001:00007ca0       ??1?$shared_ptr@V?$vector@DV?$allocator@D@std@@@std@@@std@@QEAA@XZ 0000000180008ca0 f i external_copy.obj
 0001:00007ca0       ??1?$shared_ptr@Utimer_data_t@timer_t@ivm@@@std@@QEAA@XZ 0000000180008ca0 f i environment.obj
 0001:00007ca0       ??1?$shared_ptr@VV8InspectorSession@v8_inspector@@@std@@QEAA@XZ 0000000180008ca0 f i inspector.obj
 0001:00007ca0       ??1?$shared_ptr@VTaskRunner@v8@@@std@@QEAA@XZ 0000000180008ca0 f i environment.obj
 0001:00007ca0       ??1?$shared_ptr@_N@std@@QEAA@XZ 0000000180008ca0 f i reference_handle.obj
 0001:00007ca0       ??1?$shared_ptr@V?$RemoteHandle@VValue@v8@@@ivm@@@std@@QEAA@XZ 0000000180008ca0 f i context_handle.obj
 0001:00007ca0       ??1?$shared_ptr@V?$RemoteHandle@VUnboundScript@v8@@@ivm@@@std@@QEAA@XZ 0000000180008ca0 f i isolate_handle.obj
 0001:00007ca0       ??1?$shared_ptr@V?$vector@V?$unique_ptr@VTask@v8@@U?$default_delete@VTask@v8@@@std@@@std@@V?$allocator@V?$unique_ptr@VTask@v8@@U?$default_delete@VTask@v8@@@std@@@std@@@2@@std@@@std@@QEAA@XZ 0000000180008ca0 f i environment.obj
 0001:00007ca0       ??1?$shared_ptr@Vmutex@std@@@std@@QEAA@XZ 0000000180008ca0 f i environment.obj
 0001:00007ca0       ??1?$shared_ptr@VExternalCopy@ivm@@@std@@QEAA@XZ 0000000180008ca0 f i external_copy_handle.obj
 0001:00007ca0       ??1?$shared_ptr@VTaskHolder@PlatformDelegate@ivm@@@std@@QEAA@XZ 0000000180008ca0 f i environment.obj
 0001:00007ca0       ??1?$shared_ptr@VIsolateEnvironment@ivm@@@std@@QEAA@XZ 0000000180008ca0 f i environment.obj
 0001:00007ca0       ??1?$shared_ptr@VNativeModule@ivm@@@std@@QEAA@XZ 0000000180008ca0 f i environment.obj
 0001:00007ca0       ??1?$shared_ptr@V?$RemoteHandle@VContext@v8@@@ivm@@@std@@QEAA@XZ 0000000180008ca0 f i context_handle.obj
 0001:00007ca0       ??1?$shared_ptr@VExternalCopyArrayBuffer@ivm@@@std@@QEAA@XZ 0000000180008ca0 f i isolate_handle.obj
 0001:00007ca0       ??1?$shared_ptr@VIsolateHolder@ivm@@@std@@QEAA@XZ 0000000180008ca0 f i environment.obj
 0001:00007ca0       ??1?$shared_ptr@UModuleInfo@ivm@@@std@@QEAA@XZ 0000000180008ca0 f i isolate_handle.obj
 0001:00007d00       ??1?$weak_ptr@VIsolateHolder@ivm@@@std@@QEAA@XZ 0000000180008d00 f i environment.obj
 0001:00007d30       ??$emplace_back@V?$unique_ptr@VTask@v8@@U?$default_delete@VTask@v8@@@std@@@std@@@?$vector@V?$unique_ptr@VTask@v8@@U?$default_delete@VTask@v8@@@std@@@std@@V?$allocator@V?$unique_ptr@VTask@v8@@U?$default_delete@VTask@v8@@@std@@@std@@@2@@std@@QEAAX$$QEAV?$unique_ptr@VTask@v8@@U?$default_delete@VTask@v8@@@std@@@1@@Z 0000000180008d30 f i environment.obj
 0001:00007f40       ??1?$vector@V?$_List_unchecked_iterator@V?$_List_val@U?$_List_simple_types@U?$pair@$$CBHPEAUModuleInfo@ivm@@@std@@@std@@@std@@@std@@V?$allocator@V?$_List_unchecked_iterator@V?$_List_val@U?$_List_simple_types@U?$pair@$$CBHPEAUModuleInfo@ivm@@@std@@@std@@@std@@@std@@@2@@std@@QEAA@XZ 0000000180008f40 f i environment.obj
 0001:00007f40       ??1?$vector@V?$_List_unchecked_const_iterator@V?$_List_val@U?$_List_simple_types@PEAVInspectorSession@ivm@@@std@@@std@@U_Iterator_base0@2@@std@@V?$allocator@V?$_List_unchecked_const_iterator@V?$_List_val@U?$_List_simple_types@PEAVInspectorSession@ivm@@@std@@@std@@U_Iterator_base0@2@@std@@@2@@std@@QEAA@XZ 0000000180008f40 f i inspector.obj
 0001:00007f40       ??1?$vector@V?$_List_unchecked_iterator@V?$_List_val@U?$_List_simple_types@U?$pair@$$CBV?$basic_string@DU?$char_traits@D@std@@V?$allocator@D@2@@std@@V?$shared_ptr@UModuleInfo@ivm@@@2@@std@@@std@@@std@@@std@@V?$allocator@V?$_List_unchecked_iterator@V?$_List_val@U?$_List_simple_types@U?$pair@$$CBV?$basic_string@DU?$char_traits@D@std@@V?$allocator@D@2@@std@@V?$shared_ptr@UModuleInfo@ivm@@@2@@std@@@std@@@std@@@std@@@2@@std@@QEAA@XZ 0000000180008f40 f i module_handle.obj
 0001:00007f40       ??1?$vector@V?$_List_unchecked_const_iterator@V?$_List_val@U?$_List_simple_types@PEAVtimer_thread_t@timer_t@ivm@@@std@@@std@@U_Iterator_base0@2@@std@@V?$allocator@V?$_List_unchecked_const_iterator@V?$_List_val@U?$_List_simple_types@PEAVtimer_thread_t@timer_t@ivm@@@std@@@std@@U_Iterator_base0@2@@std@@@2@@std@@QEAA@XZ 0000000180008f40 f i environment.obj
 0001:00007f40       ??1?$vector@V?$_List_unchecked_iterator@V?$_List_val@U?$_List_simple_types@U?$pair@QEAV?$Persistent@VObject@v8@@V?$NonCopyablePersistentTraits@VObject@v8@@@2@@v8@@U?$pair@P6AXPEAX@ZPEAX@std@@@std@@@std@@@std@@@std@@V?$allocator@V?$_List_unchecked_iterator@V?$_List_val@U?$_List_simple_types@U?$pair@QEAV?$Persistent@VObject@v8@@V?$NonCopyablePersistentTraits@VObject@v8@@@2@@v8@@U?$pair@P6AXPEAX@ZPEAX@std@@@std@@@std@@@std@@@std@@@2@@std@@QEAA@XZ 0000000180008f40 f i environment.obj
 0001:00007f40       ??1?$vector@V?$Local@VValue@v8@@@v8@@V?$allocator@V?$Local@VValue@v8@@@v8@@@std@@@std@@QEAA@XZ 0000000180008f40 f i external_copy_handle.obj
 0001:00007f40       ??1?$vector@V?$_List_unchecked_iterator@V?$_List_val@U?$_List_simple_types@U?$pair@QEAVNativeModule@ivm@@V?$shared_ptr@VNativeModule@ivm@@@std@@@std@@@std@@@std@@@std@@V?$allocator@V?$_List_unchecked_iterator@V?$_List_val@U?$_List_simple_types@U?$pair@QEAVNativeModule@ivm@@V?$shared_ptr@VNativeModule@ivm@@@std@@@std@@@std@@@std@@@std@@@2@@std@@QEAA@XZ 0000000180008f40 f i environment.obj
 0001:00007f40       ??1?$vector@V?$_List_unchecked_iterator@V?$_List_val@U?$_List_simple_types@U?$pair@QEAVIsolate@v8@@PEAVIsolateEnvironment@ivm@@@std@@@std@@@std@@@std@@V?$allocator@V?$_List_unchecked_iterator@V?$_List_val@U?$_List_simple_types@U?$pair@QEAVIsolate@v8@@PEAVIsolateEnvironment@ivm@@@std@@@std@@@std@@@std@@@2@@std@@QEAA@XZ 0000000180008f40 f i environment.obj
 0001:00007fd0       ??1?$list@PEAVInspectorSession@ivm@@V?$allocator@PEAVInspectorSession@ivm@@@std@@@std@@QEAA@XZ 0000000180008fd0 f i inspector.obj
 0001:00007fd0       ??1?$list@PEAVtimer_thread_t@timer_t@ivm@@V?$allocator@PEAVtimer_thread_t@timer_t@ivm@@@std@@@std@@QEAA@XZ 0000000180008fd0 f i environment.obj
 0001:00008030       ?erase@?$_Hash@V?$_Uset_traits@PEAVInspectorSession@ivm@@V?$_Uhash_compare@PEAVInspectorSession@ivm@@U?$hash@PEAVInspectorSession@ivm@@@std@@U?$equal_to@PEAVInspectorSession@ivm@@@4@@std@@V?$allocator@PEAVInspectorSession@ivm@@@4@$0A@@std@@@std@@QEAA?AV?$_List_const_iterator@V?$_List_val@U?$_List_simple_types@PEAVInspectorSession@ivm@@@std@@@std@@@2@V32@@Z 0000000180009030 f i inspector.obj
 0001:00008030       ?erase@?$_Hash@V?$_Uset_traits@PEAVtimer_thread_t@timer_t@ivm@@V?$_Uhash_compare@PEAVtimer_thread_t@timer_t@ivm@@U?$hash@PEAVtimer_thread_t@timer_t@ivm@@@std@@U?$equal_to@PEAVtimer_thread_t@timer_t@ivm@@@5@@std@@V?$allocator@PEAVtimer_thread_t@timer_t@ivm@@@5@$0A@@std@@@std@@QEAA?AV?$_List_const_iterator@V?$_List_val@U?$_List_simple_types@PEAVtimer_thread_t@timer_t@ivm@@@std@@@std@@@2@V32@@Z 0000000180009030 f i environment.obj
 0001:00008140       ?push@?$priority_queue@V?$shared_ptr@Utimer_data_t@timer_t@ivm@@@std@@V?$deque@V?$shared_ptr@Utimer_data_t@timer_t@ivm@@@std@@V?$allocator@V?$shared_ptr@Utimer_data_t@timer_t@ivm@@@std@@@2@@2@Ucmp@timer_data_t@timer_t@ivm@@@std@@QEAAX$$QEAV?$shared_ptr@Utimer_data_t@timer_t@ivm@@@2@@Z 0000000180009140 f i environment.obj
 0001:000082d0       ??4?$shared_ptr@V?$vector@DV?$allocator@D@std@@@std@@@std@@QEAAAEAV01@$$QEAV01@@Z 00000001800092d0 f i external_copy.obj
 0001:000082d0       ??4?$shared_ptr@X@std@@QEAAAEAV01@$$QEAV01@@Z 00000001800092d0 f i environment.obj
 0001:000082d0       ??4?$shared_ptr@V?$RemoteHandle@VFunction@v8@@@ivm@@@std@@QEAAAEAV01@$$QEAV01@@Z 00000001800092d0 f i session_handle.obj
 0001:000082d0       ??4?$shared_ptr@VIsolateHolder@ivm@@@std@@QEAAAEAV01@$$QEAV01@@Z 00000001800092d0 f i environment.obj
 0001:000082d0       ??4?$shared_ptr@Utimer_data_t@timer_t@ivm@@@std@@QEAAAEAV01@$$QEAV01@@Z 00000001800092d0 f i environment.obj
 0001:000082d0       ??4?$shared_ptr@V?$RemoteHandle@VValue@v8@@@ivm@@@std@@QEAAAEAV01@$$QEAV01@@Z 00000001800092d0 f i isolate_handle.obj
 0001:000082d0       ??4?$shared_ptr@UModuleInfo@ivm@@@std@@QEAAAEAV01@$$QEAV01@@Z 00000001800092d0 f i isolate_handle.obj
 0001:000082d0       ??4?$shared_ptr@V?$RemoteHandle@VContext@v8@@@ivm@@@std@@QEAAAEAV01@$$QEAV01@@Z 00000001800092d0 f i isolate_handle.obj
 0001:00008350       ??0?$function@$$A6AXPEAX@Z@std@@QEAA@$$QEAV01@@Z 0000000180009350 f i environment.obj
 0001:000083d0       ??1?$unique_ptr@VV8Inspector@v8_inspector@@U?$default_delete@VV8Inspector@v8_inspector@@@std@@@std@@QEAA@XZ 00000001800093d0 f i inspector.obj
 0001:000083d0       ??1?$unique_ptr@VScriptHandle@ivm@@U?$default_delete@VScriptHandle@ivm@@@std@@@std@@QEAA@XZ 00000001800093d0 f i isolate_handle.obj
 0001:000083d0       ??1?$unique_ptr@VTask@v8@@U?$default_delete@VTask@v8@@@std@@@std@@QEAA@XZ 00000001800093d0 f i environment.obj
 0001:000083d0       ??1?$unique_ptr@VAllocator@ArrayBuffer@v8@@U?$default_delete@VAllocator@ArrayBuffer@v8@@@std@@@std@@QEAA@XZ 00000001800093d0 f i environment.obj
 0001:000083d0       ??1?$unique_ptr@VReferenceHandle@ivm@@U?$default_delete@VReferenceHandle@ivm@@@std@@@std@@QEAA@XZ 00000001800093d0 f i context_handle.obj
 0001:000083d0       ??1?$unique_ptr@VExternalCopy@ivm@@U?$default_delete@VExternalCopy@ivm@@@std@@@std@@QEAA@XZ 00000001800093d0 f i three_phase_task.obj
 0001:000083d0       ??1?$unique_ptr@VModuleHandle@ivm@@U?$default_delete@VModuleHandle@ivm@@@std@@@std@@QEAA@XZ 00000001800093d0 f i isolate_handle.obj
 0001:000083d0       ??1?$unique_ptr@VStringBuffer@v8_inspector@@U?$default_delete@VStringBuffer@v8_inspector@@@std@@@std@@QEAA@XZ 00000001800093d0 f i session_handle.obj
 0001:000083d0       ??1?$unique_ptr@VExternalCopyError@ivm@@U?$default_delete@VExternalCopyError@ivm@@@std@@@std@@QEAA@XZ 00000001800093d0 f i three_phase_task.obj
 0001:000083d0       ??1?$unique_ptr@VInspectorAgent@ivm@@U?$default_delete@VInspectorAgent@ivm@@@std@@@std@@QEAA@XZ 00000001800093d0 f i environment.obj
 0001:000083d0       ??1?$unique_ptr@VV8InspectorSession@v8_inspector@@U?$default_delete@VV8InspectorSession@v8_inspector@@@std@@@std@@QEAA@XZ 00000001800093d0 f i inspector.obj
 0001:000083d0       ??1?$unique_ptr@VSessionHandle@ivm@@U?$default_delete@VSessionHandle@ivm@@@std@@@std@@QEAA@XZ 00000001800093d0 f i isolate_handle.obj
 0001:00008400       ??1?$list@U?$pair@QEAVNativeModule@ivm@@V?$shared_ptr@VNativeModule@ivm@@@std@@@std@@V?$allocator@U?$pair@QEAVNativeModule@ivm@@V?$shared_ptr@VNativeModule@ivm@@@std@@@std@@@2@@std@@QEAA@XZ 0000000180009400 f i environment.obj
 0001:000084c0       ??1?$list@U?$pair@$$CBHPEAUModuleInfo@ivm@@@std@@V?$allocator@U?$pair@$$CBHPEAUModuleInfo@ivm@@@std@@@2@@std@@QEAA@XZ 00000001800094c0 f i environment.obj
 0001:000084c0       ??1?$list@U?$pair@QEAVIsolate@v8@@PEAVIsolateEnvironment@ivm@@@std@@V?$allocator@U?$pair@QEAVIsolate@v8@@PEAVIsolateEnvironment@ivm@@@std@@@2@@std@@QEAA@XZ 00000001800094c0 f i environment.obj
 0001:00008520       ??1?$list@U?$pair@QEAV?$Persistent@VObject@v8@@V?$NonCopyablePersistentTraits@VObject@v8@@@2@@v8@@U?$pair@P6AXPEAX@ZPEAX@std@@@std@@V?$allocator@U?$pair@QEAV?$Persistent@VObject@v8@@V?$NonCopyablePersistentTraits@VObject@v8@@@2@@v8@@U?$pair@P6AXPEAX@ZPEAX@std@@@std@@@2@@std@@QEAA@XZ 0000000180009520 f i environment.obj
 0001:00008580       ??1?$vector@V?$unique_ptr@V?$Eternal@VData@v8@@@v8@@U?$default_delete@V?$Eternal@VData@v8@@@v8@@@std@@@std@@V?$allocator@V?$unique_ptr@V?$Eternal@VData@v8@@@v8@@U?$default_delete@V?$Eternal@VData@v8@@@v8@@@std@@@std@@@2@@std@@QEAA@XZ 0000000180009580 f i environment.obj
 0001:00008650       ??1?$Persistent@VValue@v8@@V?$NonCopyablePersistentTraits@VValue@v8@@@2@@v8@@QEAA@XZ 0000000180009650 f i environment.obj
 0001:00008650       ??1?$Persistent@VObject@v8@@V?$NonCopyablePersistentTraits@VObject@v8@@@2@@v8@@QEAA@XZ 0000000180009650 f i stack_trace.obj
 0001:00008650       ??1?$Persistent@VContext@v8@@V?$NonCopyablePersistentTraits@VContext@v8@@@2@@v8@@QEAA@XZ 0000000180009650 f i environment.obj
 0001:00008670       ??4?$shared_ptr@VIsolateHolder@ivm@@@std@@QEAAAEAV01@AEBV01@@Z 0000000180009670 f i environment.obj
 0001:000086f0       ?_Xlength@?$vector@V?$shared_ptr@UModuleInfo@ivm@@@std@@V?$allocator@V?$shared_ptr@UModuleInfo@ivm@@@std@@@2@@std@@CAXXZ 00000001800096f0 f i module_handle.obj
 0001:000086f0       ?_Xlength@?$vector@V?$unique_ptr@VTransferable@ivm@@U?$default_delete@VTransferable@ivm@@@std@@@std@@V?$allocator@V?$unique_ptr@VTransferable@ivm@@U?$default_delete@VTransferable@ivm@@@std@@@std@@@2@@std@@CAXXZ 00000001800096f0 f i reference_handle.obj
 0001:000086f0       ?_Xlength@?$vector@DV?$allocator@D@std@@@std@@CAXXZ 00000001800096f0 f i external_copy.obj
 0001:000086f0       ?_Xlength@?$vector@V?$basic_string@DU?$char_traits@D@std@@V?$allocator@D@2@@std@@V?$allocator@V?$basic_string@DU?$char_traits@D@std@@V?$allocator@D@2@@std@@@2@@std@@CAXXZ 00000001800096f0 f i module_handle.obj
 0001:000086f0       ?_Xlength@?$vector@V?$_List_unchecked_iterator@V?$_List_val@U?$_List_simple_types@U?$pair@QEAVNativeModule@ivm@@V?$shared_ptr@VNativeModule@ivm@@@std@@@std@@@std@@@std@@@std@@V?$allocator@V?$_List_unchecked_iterator@V?$_List_val@U?$_List_simple_types@U?$pair@QEAVNativeModule@ivm@@V?$shared_ptr@VNativeModule@ivm@@@std@@@std@@@std@@@std@@@std@@@2@@std@@CAXXZ 00000001800096f0 f i environment.obj
 0001:000086f0       ?_Xlength@?$vector@V?$_List_unchecked_iterator@V?$_List_val@U?$_List_simple_types@U?$pair@$$CBV?$basic_string@DU?$char_traits@D@std@@V?$allocator@D@2@@std@@V?$shared_ptr@UModuleInfo@ivm@@@2@@std@@@std@@@std@@@std@@V?$allocator@V?$_List_unchecked_iterator@V?$_List_val@U?$_List_simple_types@U?$pair@$$CBV?$basic_string@DU?$char_traits@D@std@@V?$allocator@D@2@@std@@V?$shared_ptr@UModuleInfo@ivm@@@2@@std@@@std@@@std@@@std@@@2@@std@@CAXXZ 00000001800096f0 f i module_handle.obj
 0001:000086f0       ?_Xlength@?$vector@Vthread@std@@V?$allocator@Vthread@std@@@2@@std@@CAXXZ 00000001800096f0 f i environment.obj
 0001:000086f0       ?_Xlength@?$vector@V?$unique_ptr@VTask@v8@@U?$default_delete@VTask@v8@@@std@@@std@@V?$allocator@V?$unique_ptr@VTask@v8@@U?$default_delete@VTask@v8@@@std@@@std@@@2@@std@@CAXXZ 00000001800096f0 f i environment.obj
 0001:000086f0       ?_Xlength@?$vector@GV?$allocator@G@std@@@std@@CAXXZ 00000001800096f0 f i session_handle.obj
 0001:000086f0       ?_Xlength@?$vector@Uthread_data_t@thread_pool_t@@V?$allocator@Uthread_data_t@thread_pool_t@@@std@@@std@@CAXXZ 00000001800096f0 f i environment.obj
 0001:000086f0       ?_Xlength@?$vector@U?$pair@V?$basic_string@DU?$char_traits@D@std@@V?$allocator@D@2@@std@@VScriptOriginHolder@ivm@@@std@@V?$allocator@U?$pair@V?$basic_string@DU?$char_traits@D@std@@V?$allocator@D@2@@std@@VScriptOriginHolder@ivm@@@std@@@2@@std@@CAXXZ 00000001800096f0 f i isolate_handle.obj
 0001:000086f0       ?_Xlength@?$vector@V?$_List_unchecked_const_iterator@V?$_List_val@U?$_List_simple_types@PEAVtimer_thread_t@timer_t@ivm@@@std@@@std@@U_Iterator_base0@2@@std@@V?$allocator@V?$_List_unchecked_const_iterator@V?$_List_val@U?$_List_simple_types@PEAVtimer_thread_t@timer_t@ivm@@@std@@@std@@U_Iterator_base0@2@@std@@@2@@std@@CAXXZ 00000001800096f0 f i environment.obj
 0001:000086f0       ?_Xlength@?$vector@V?$_List_unchecked_const_iterator@V?$_List_val@U?$_List_simple_types@PEAVInspectorSession@ivm@@@std@@@std@@U_Iterator_base0@2@@std@@V?$allocator@V?$_List_unchecked_const_iterator@V?$_List_val@U?$_List_simple_types@PEAVInspectorSession@ivm@@@std@@@std@@U_Iterator_base0@2@@std@@@2@@std@@CAXXZ 00000001800096f0 f i inspector.obj
 0001:000086f0       ?_Xlength@?$vector@V?$Local@VValue@v8@@@v8@@V?$allocator@V?$Local@VValue@v8@@@v8@@@std@@@std@@CAXXZ 00000001800096f0 f i external_copy_handle.obj
 0001:000086f0       ?_Xlength@?$vector@V?$_List_unchecked_iterator@V?$_List_val@U?$_List_simple_types@U?$pair@QEAV?$Persistent@VObject@v8@@V?$NonCopyablePersistentTraits@VObject@v8@@@2@@v8@@U?$pair@P6AXPEAX@ZPEAX@std@@@std@@@std@@@std@@@std@@V?$allocator@V?$_List_unchecked_iterator@V?$_List_val@U?$_List_simple_types@U?$pair@QEAV?$Persistent@VObject@v8@@V?$NonCopyablePersistentTraits@VObject@v8@@@2@@v8@@U?$pair@P6AXPEAX@ZPEAX@std@@@std@@@std@@@std@@@std@@@2@@std@@CAXXZ 00000001800096f0 f i environment.obj
 0001:000086f0       ?_Xlength@?$vector@V?$unique_ptr@VExternalCopySharedArrayBuffer@ivm@@U?$default_delete@VExternalCopySharedArrayBuffer@ivm@@@std@@@std@@V?$allocator@V?$unique_ptr@VExternalCopySharedArrayBuffer@ivm@@U?$default_delete@VExternalCopySharedArrayBuffer@ivm@@@std@@@std@@@2@@std@@CAXXZ 00000001800096f0 f i nortti:external_copy_nortti.obj
 0001:000086f0       ?_Xlength@?$vector@V?$_List_unchecked_iterator@V?$_List_val@U?$_List_simple_types@U?$pair@$$CBHPEAUModuleInfo@ivm@@@std@@@std@@@std@@@std@@V?$allocator@V?$_List_unchecked_iterator@V?$_List_val@U?$_List_simple_types@U?$pair@$$CBHPEAUModuleInfo@ivm@@@std@@@std@@@std@@@std@@@2@@std@@CAXXZ 00000001800096f0 f i environment.obj
 0001:000086f0       ?_Xlength@?$vector@V?$_List_unchecked_iterator@V?$_List_val@U?$_List_simple_types@U?$pair@QEAVIsolate@v8@@PEAVIsolateEnvironment@ivm@@@std@@@std@@@std@@@std@@V?$allocator@V?$_List_unchecked_iterator@V?$_List_val@U?$_List_simple_types@U?$pair@QEAVIsolate@v8@@PEAVIsolateEnvironment@ivm@@@std@@@std@@@std@@@std@@@2@@std@@CAXXZ 00000001800096f0 f i environment.obj
 0001:000086f0       ?_Xlength@?$vector@V?$unique_ptr@V?$Eternal@VData@v8@@@v8@@U?$default_delete@V?$Eternal@VData@v8@@@v8@@@std@@@std@@V?$allocator@V?$unique_ptr@V?$Eternal@VData@v8@@@v8@@U?$default_delete@V?$Eternal@VData@v8@@@v8@@@std@@@std@@@2@@std@@CAXXZ 00000001800096f0 f i stack_trace.obj
 0001:000086f0       ?_Xlength@?$vector@V?$unique_ptr@VExternalCopyArrayBuffer@ivm@@U?$default_delete@VExternalCopyArrayBuffer@ivm@@@std@@@std@@V?$allocator@V?$unique_ptr@VExternalCopyArrayBuffer@ivm@@U?$default_delete@VExternalCopyArrayBuffer@ivm@@@std@@@std@@@2@@std@@CAXXZ 00000001800096f0 f i external_copy.obj
 0001:00008710       ?_Change_array@?$vector@Vthread@std@@V?$allocator@Vthread@std@@@2@@std@@AEAAXQEAVthread@2@_K1@Z 0000000180009710 f i environment.obj
 0001:000087d0       ?_Change_array@?$vector@Uthread_data_t@thread_pool_t@@V?$allocator@Uthread_data_t@thread_pool_t@@@std@@@std@@AEAAXQEAUthread_data_t@thread_pool_t@@_K1@Z 00000001800097d0 f i environment.obj
 0001:000088d0       ??1?$lock_guard@Vmutex@std@@@std@@QEAA@XZ 00000001800098d0 f i environment.obj
 0001:00008900       ?unlock@?$unique_lock@Vmutex@std@@@std@@QEAAXXZ 0000000180009900 f i environment.obj
 0001:00008970       ?lock@?$unique_lock@Vmutex@std@@@std@@QEAAXXZ 0000000180009970 f i environment.obj
 0001:00008a10       ??1?$unique_lock@Vmutex@std@@@std@@QEAA@XZ 0000000180009a10 f i environment.obj
 0001:00008a40       ?c_str@?$basic_string@DU?$char_traits@D@std@@V?$allocator@D@2@@std@@QEBAPEBDXZ 0000000180009a40 f i environment.obj
 0001:00008a50       ??1?$basic_string@DU?$char_traits@D@std@@V?$allocator@D@2@@std@@QEAA@XZ 0000000180009a50 f i environment.obj
 0001:00008a50       ??1ScriptOriginHolder@ivm@@QEAA@XZ 0000000180009a50 f i isolate_handle.obj
 0001:00008a60       ??0?$basic_string@DU?$char_traits@D@std@@V?$allocator@D@2@@std@@QEAA@$$QEAV01@@Z 0000000180009a60 f i environment.obj
 0001:00008a90       ??0?$basic_string@DU?$char_traits@D@std@@V?$allocator@D@2@@std@@QEAA@QEBD@Z 0000000180009a90 f i environment.obj
 0001:00008ad0       ??0?$basic_string@DU?$char_traits@D@std@@V?$allocator@D@2@@std@@QEAA@AEBV01@@Z 0000000180009ad0 f i environment.obj
 0001:00008ba0       ??1?$_Deque_alloc@U?$_Deque_base_types@V?$shared_ptr@Utimer_data_t@timer_t@ivm@@@std@@V?$allocator@V?$shared_ptr@Utimer_data_t@timer_t@ivm@@@std@@@2@@std@@@std@@QEAA@XZ 0000000180009ba0 f i environment.obj
 0001:00008bd0       ?_Tidy@?$deque@V?$shared_ptr@Utimer_data_t@timer_t@ivm@@@std@@V?$allocator@V?$shared_ptr@Utimer_data_t@timer_t@ivm@@@std@@@2@@std@@IEAAXXZ 0000000180009bd0 f i environment.obj
 0001:00008d10       ?pop_back@?$deque@V?$shared_ptr@Utimer_data_t@timer_t@ivm@@@std@@V?$allocator@V?$shared_ptr@Utimer_data_t@timer_t@ivm@@@std@@@2@@std@@QEAAXXZ 0000000180009d10 f i environment.obj
 0001:00008da0       ??0?$shared_ptr@X@std@@QEAA@$$QEAV01@@Z 0000000180009da0 f i environment.obj
 0001:00008dd0       ?_Tidy@?$deque@V?$unique_ptr@VRunnable@ivm@@U?$default_delete@VRunnable@ivm@@@std@@@std@@V?$allocator@V?$unique_ptr@VRunnable@ivm@@U?$default_delete@VRunnable@ivm@@@std@@@std@@@2@@std@@IEAAXXZ 0000000180009dd0 f i environment.obj
 0001:00008f00       ?_Destroy@?$vector@Uthread_data_t@thread_pool_t@@V?$allocator@Uthread_data_t@thread_pool_t@@@std@@@std@@AEAAXPEAUthread_data_t@thread_pool_t@@0@Z 0000000180009f00 f i environment.obj
 0001:00008f60       ?_Tidy_deallocate@?$basic_string@DU?$char_traits@D@std@@V?$allocator@D@2@@std@@QEAAXXZ 0000000180009f60 f i environment.obj
 0001:00008fd0       ?assign@?$basic_string@DU?$char_traits@D@std@@V?$allocator@D@2@@std@@QEAAAEAV12@QEBD_K@Z 0000000180009fd0 f i environment.obj
 0001:00009130       ?append@?$basic_string@DU?$char_traits@D@std@@V?$allocator@D@2@@std@@QEAAAEAV12@QEBD_K@Z 000000018000a130 f i environment.obj
 0001:000091b0       ?_Init@?$_Hash@V?$_Umap_traits@PEAV?$Persistent@VObject@v8@@V?$NonCopyablePersistentTraits@VObject@v8@@@2@@v8@@U?$pair@P6AXPEAX@ZPEAX@std@@V?$_Uhash_compare@PEAV?$Persistent@VObject@v8@@V?$NonCopyablePersistentTraits@VObject@v8@@@2@@v8@@U?$hash@PEAV?$Persistent@VObject@v8@@V?$NonCopyablePersistentTraits@VObject@v8@@@2@@v8@@@std@@U?$equal_to@PEAV?$Persistent@VObject@v8@@V?$NonCopyablePersistentTraits@VObject@v8@@@2@@v8@@@4@@4@V?$allocator@U?$pair@QEAV?$Persistent@VObject@v8@@V?$NonCopyablePersistentTraits@VObject@v8@@@2@@v8@@U?$pair@P6AXPEAX@ZPEAX@std@@@std@@@4@$0A@@std@@@std@@IEAAX_K@Z 000000018000a1b0 f i environment.obj
 0001:000091b0       ?_Init@?$_Hash@V?$_Umap_traits@V?$basic_string@DU?$char_traits@D@std@@V?$allocator@D@2@@std@@V?$shared_ptr@UModuleInfo@ivm@@@2@V?$_Uhash_compare@V?$basic_string@DU?$char_traits@D@std@@V?$allocator@D@2@@std@@U?$hash@V?$basic_string@DU?$char_traits@D@std@@V?$allocator@D@2@@std@@@2@U?$equal_to@V?$basic_string@DU?$char_traits@D@std@@V?$allocator@D@2@@std@@@2@@2@V?$allocator@U?$pair@$$CBV?$basic_string@DU?$char_traits@D@std@@V?$allocator@D@2@@std@@V?$shared_ptr@UModuleInfo@ivm@@@2@@std@@@2@$0A@@std@@@std@@IEAAX_K@Z 000000018000a1b0 f i module_handle.obj
 0001:000091b0       ?_Init@?$_Hash@V?$_Uset_traits@PEAVtimer_thread_t@timer_t@ivm@@V?$_Uhash_compare@PEAVtimer_thread_t@timer_t@ivm@@U?$hash@PEAVtimer_thread_t@timer_t@ivm@@@std@@U?$equal_to@PEAVtimer_thread_t@timer_t@ivm@@@5@@std@@V?$allocator@PEAVtimer_thread_t@timer_t@ivm@@@5@$0A@@std@@@std@@IEAAX_K@Z 000000018000a1b0 f i environment.obj
 0001:000091b0       ?_Init@?$_Hash@V?$_Umap_traits@PEAVIsolate@v8@@PEAVIsolateEnvironment@ivm@@V?$_Uhash_compare@PEAVIsolate@v8@@U?$hash@PEAVIsolate@v8@@@std@@U?$equal_to@PEAVIsolate@v8@@@4@@std@@V?$allocator@U?$pair@QEAVIsolate@v8@@PEAVIsolateEnvironment@ivm@@@std@@@6@$0A@@std@@@std@@IEAAX_K@Z 000000018000a1b0 f i environment.obj
 0001:000091b0       ?_Init@?$_Hash@V?$_Uset_traits@PEAVInspectorSession@ivm@@V?$_Uhash_compare@PEAVInspectorSession@ivm@@U?$hash@PEAVInspectorSession@ivm@@@std@@U?$equal_to@PEAVInspectorSession@ivm@@@4@@std@@V?$allocator@PEAVInspectorSession@ivm@@@4@$0A@@std@@@std@@IEAAX_K@Z 000000018000a1b0 f i inspector.obj
 0001:000091b0       ?_Init@?$_Hash@V?$_Umap_traits@HPEAUModuleInfo@ivm@@V?$_Uhash_compare@HU?$hash@H@std@@U?$equal_to@H@2@@std@@V?$allocator@U?$pair@$$CBHPEAUModuleInfo@ivm@@@std@@@4@$00@std@@@std@@IEAAX_K@Z 000000018000a1b0 f i environment.obj
 0001:000091b0       ?_Init@?$_Hash@V?$_Umap_traits@PEAVNativeModule@ivm@@V?$shared_ptr@VNativeModule@ivm@@@std@@V?$_Uhash_compare@PEAVNativeModule@ivm@@U?$hash@PEAVNativeModule@ivm@@@std@@U?$equal_to@PEAVNativeModule@ivm@@@4@@4@V?$allocator@U?$pair@QEAVNativeModule@ivm@@V?$shared_ptr@VNativeModule@ivm@@@std@@@std@@@4@$0A@@std@@@std@@IEAAX_K@Z 000000018000a1b0 f i environment.obj
 0001:00009220       ?_Growmap@?$deque@V?$shared_ptr@Utimer_data_t@timer_t@ivm@@@std@@V?$allocator@V?$shared_ptr@Utimer_data_t@timer_t@ivm@@@std@@@2@@std@@IEAAX_K@Z 000000018000a220 f i environment.obj
 0001:00009420       ?_Growmap@?$deque@V?$unique_ptr@VRunnable@ivm@@U?$default_delete@VRunnable@ivm@@@std@@@std@@V?$allocator@V?$unique_ptr@VRunnable@ivm@@U?$default_delete@VRunnable@ivm@@@std@@@std@@@2@@std@@IEAAX_K@Z 000000018000a420 f i environment.obj
 0001:00009620       ?reserve@?$vector@V?$Local@VValue@v8@@@v8@@V?$allocator@V?$Local@VValue@v8@@@v8@@@std@@@std@@QEAAX_K@Z 000000018000a620 f i external_copy_handle.obj
 0001:00009620       ?reserve@?$vector@V?$_List_unchecked_iterator@V?$_List_val@U?$_List_simple_types@U?$pair@QEAVNativeModule@ivm@@V?$shared_ptr@VNativeModule@ivm@@@std@@@std@@@std@@@std@@@std@@V?$allocator@V?$_List_unchecked_iterator@V?$_List_val@U?$_List_simple_types@U?$pair@QEAVNativeModule@ivm@@V?$shared_ptr@VNativeModule@ivm@@@std@@@std@@@std@@@std@@@std@@@2@@std@@QEAAX_K@Z 000000018000a620 f i environment.obj
 0001:00009620       ?reserve@?$vector@V?$_List_unchecked_iterator@V?$_List_val@U?$_List_simple_types@U?$pair@QEAV?$Persistent@VObject@v8@@V?$NonCopyablePersistentTraits@VObject@v8@@@2@@v8@@U?$pair@P6AXPEAX@ZPEAX@std@@@std@@@std@@@std@@@std@@V?$allocator@V?$_List_unchecked_iterator@V?$_List_val@U?$_List_simple_types@U?$pair@QEAV?$Persistent@VObject@v8@@V?$NonCopyablePersistentTraits@VObject@v8@@@2@@v8@@U?$pair@P6AXPEAX@ZPEAX@std@@@std@@@std@@@std@@@std@@@2@@std@@QEAAX_K@Z 000000018000a620 f i environment.obj
 0001:00009620       ?reserve@?$vector@V?$_List_unchecked_const_iterator@V?$_List_val@U?$_List_simple_types@PEAVtimer_thread_t@timer_t@ivm@@@std@@@std@@U_Iterator_base0@2@@std@@V?$allocator@V?$_List_unchecked_const_iterator@V?$_List_val@U?$_List_simple_types@PEAVtimer_thread_t@timer_t@ivm@@@std@@@std@@U_Iterator_base0@2@@std@@@2@@std@@QEAAX_K@Z 000000018000a620 f i environment.obj
 0001:00009620       ?reserve@?$vector@V?$_List_unchecked_iterator@V?$_List_val@U?$_List_simple_types@U?$pair@QEAVIsolate@v8@@PEAVIsolateEnvironment@ivm@@@std@@@std@@@std@@@std@@V?$allocator@V?$_List_unchecked_iterator@V?$_List_val@U?$_List_simple_types@U?$pair@QEAVIsolate@v8@@PEAVIsolateEnvironment@ivm@@@std@@@std@@@std@@@std@@@2@@std@@QEAAX_K@Z 000000018000a620 f i environment.obj
 0001:00009620       ?reserve@?$vector@V?$_List_unchecked_const_iterator@V?$_List_val@U?$_List_simple_types@PEAVInspectorSession@ivm@@@std@@@std@@U_Iterator_base0@2@@std@@V?$allocator@V?$_List_unchecked_const_iterator@V?$_List_val@U?$_List_simple_types@PEAVInspectorSession@ivm@@@std@@@std@@U_Iterator_base0@2@@std@@@2@@std@@QEAAX_K@Z 000000018000a620 f i inspector.obj
 0001:00009620       ?reserve@?$vector@V?$_List_unchecked_iterator@V?$_List_val@U?$_List_simple_types@U?$pair@$$CBHPEAUModuleInfo@ivm@@@std@@@std@@@std@@@std@@V?$allocator@V?$_List_unchecked_iterator@V?$_List_val@U?$_List_simple_types@U?$pair@$$CBHPEAUModuleInfo@ivm@@@std@@@std@@@std@@@std@@@2@@std@@QEAAX_K@Z 000000018000a620 f i environment.obj
 0001:00009620       ?reserve@?$vector@V?$_List_unchecked_iterator@V?$_List_val@U?$_List_simple_types@U?$pair@$$CBV?$basic_string@DU?$char_traits@D@std@@V?$allocator@D@2@@std@@V?$shared_ptr@UModuleInfo@ivm@@@2@@std@@@std@@@std@@@std@@V?$allocator@V?$_List_unchecked_iterator@V?$_List_val@U?$_List_simple_types@U?$pair@$$CBV?$basic_string@DU?$char_traits@D@std@@V?$allocator@D@2@@std@@V?$shared_ptr@UModuleInfo@ivm@@@2@@std@@@std@@@std@@@std@@@2@@std@@QEAAX_K@Z 000000018000a620 f i module_handle.obj
 0001:000097b0       ?assign@?$vector@V?$_List_unchecked_const_iterator@V?$_List_val@U?$_List_simple_types@PEAVInspectorSession@ivm@@@std@@@std@@U_Iterator_base0@2@@std@@V?$allocator@V?$_List_unchecked_const_iterator@V?$_List_val@U?$_List_simple_types@PEAVInspectorSession@ivm@@@std@@@std@@U_Iterator_base0@2@@std@@@2@@std@@QEAAX_KAEBV?$_List_unchecked_const_iterator@V?$_List_val@U?$_List_simple_types@PEAVInspectorSession@ivm@@@std@@@std@@U_Iterator_base0@2@@2@@Z 000000018000a7b0 f i inspector.obj
 0001:000097b0       ?assign@?$vector@V?$_List_unchecked_iterator@V?$_List_val@U?$_List_simple_types@U?$pair@QEAVNativeModule@ivm@@V?$shared_ptr@VNativeModule@ivm@@@std@@@std@@@std@@@std@@@std@@V?$allocator@V?$_List_unchecked_iterator@V?$_List_val@U?$_List_simple_types@U?$pair@QEAVNativeModule@ivm@@V?$shared_ptr@VNativeModule@ivm@@@std@@@std@@@std@@@std@@@std@@@2@@std@@QEAAX_KAEBV?$_List_unchecked_iterator@V?$_List_val@U?$_List_simple_types@U?$pair@QEAVNativeModule@ivm@@V?$shared_ptr@VNativeModule@ivm@@@std@@@std@@@std@@@std@@@2@@Z 000000018000a7b0 f i environment.obj
 0001:000097b0       ?assign@?$vector@V?$_List_unchecked_iterator@V?$_List_val@U?$_List_simple_types@U?$pair@QEAV?$Persistent@VObject@v8@@V?$NonCopyablePersistentTraits@VObject@v8@@@2@@v8@@U?$pair@P6AXPEAX@ZPEAX@std@@@std@@@std@@@std@@@std@@V?$allocator@V?$_List_unchecked_iterator@V?$_List_val@U?$_List_simple_types@U?$pair@QEAV?$Persistent@VObject@v8@@V?$NonCopyablePersistentTraits@VObject@v8@@@2@@v8@@U?$pair@P6AXPEAX@ZPEAX@std@@@std@@@std@@@std@@@std@@@2@@std@@QEAAX_KAEBV?$_List_unchecked_iterator@V?$_List_val@U?$_List_simple_types@U?$pair@QEAV?$Persistent@VObject@v8@@V?$NonCopyablePersistentTraits@VObject@v8@@@2@@v8@@U?$pair@P6AXPEAX@ZPEAX@std@@@std@@@std@@@std@@@2@@Z 000000018000a7b0 f i environment.obj
 0001:000097b0       ?assign@?$vector@V?$_List_unchecked_iterator@V?$_List_val@U?$_List_simple_types@U?$pair@$$CBHPEAUModuleInfo@ivm@@@std@@@std@@@std@@@std@@V?$allocator@V?$_List_unchecked_iterator@V?$_List_val@U?$_List_simple_types@U?$pair@$$CBHPEAUModuleInfo@ivm@@@std@@@std@@@std@@@std@@@2@@std@@QEAAX_KAEBV?$_List_unchecked_iterator@V?$_List_val@U?$_List_simple_types@U?$pair@$$CBHPEAUModuleInfo@ivm@@@std@@@std@@@std@@@2@@Z 000000018000a7b0 f i environment.obj
 0001:000097b0       ?assign@?$vector@V?$_List_unchecked_iterator@V?$_List_val@U?$_List_simple_types@U?$pair@$$CBV?$basic_string@DU?$char_traits@D@std@@V?$allocator@D@2@@std@@V?$shared_ptr@UModuleInfo@ivm@@@2@@std@@@std@@@std@@@std@@V?$allocator@V?$_List_unchecked_iterator@V?$_List_val@U?$_List_simple_types@U?$pair@$$CBV?$basic_string@DU?$char_traits@D@std@@V?$allocator@D@2@@std@@V?$shared_ptr@UModuleInfo@ivm@@@2@@std@@@std@@@std@@@std@@@2@@std@@QEAAX_KAEBV?$_List_unchecked_iterator@V?$_List_val@U?$_List_simple_types@U?$pair@$$CBV?$basic_string@DU?$char_traits@D@std@@V?$allocator@D@2@@std@@V?$shared_ptr@UModuleInfo@ivm@@@2@@std@@@std@@@std@@@2@@Z 000000018000a7b0 f i module_handle.obj
 0001:000097b0       ?assign@?$vector@V?$_List_unchecked_const_iterator@V?$_List_val@U?$_List_simple_types@PEAVtimer_thread_t@timer_t@ivm@@@std@@@std@@U_Iterator_base0@2@@std@@V?$allocator@V?$_List_unchecked_const_iterator@V?$_List_val@U?$_List_simple_types@PEAVtimer_thread_t@timer_t@ivm@@@std@@@std@@U_Iterator_base0@2@@std@@@2@@std@@QEAAX_KAEBV?$_List_unchecked_const_iterator@V?$_List_val@U?$_List_simple_types@PEAVtimer_thread_t@timer_t@ivm@@@std@@@std@@U_Iterator_base0@2@@2@@Z 000000018000a7b0 f i environment.obj
 0001:000097b0       ?assign@?$vector@V?$_List_unchecked_iterator@V?$_List_val@U?$_List_simple_types@U?$pair@QEAVIsolate@v8@@PEAVIsolateEnvironment@ivm@@@std@@@std@@@std@@@std@@V?$allocator@V?$_List_unchecked_iterator@V?$_List_val@U?$_List_simple_types@U?$pair@QEAVIsolate@v8@@PEAVIsolateEnvironment@ivm@@@std@@@std@@@std@@@std@@@2@@std@@QEAAX_KAEBV?$_List_unchecked_iterator@V?$_List_val@U?$_List_simple_types@U?$pair@QEAVIsolate@v8@@PEAVIsolateEnvironment@ivm@@@std@@@std@@@std@@@2@@Z 000000018000a7b0 f i environment.obj
 0001:00009990       ?_Xlen@?$deque@V?$shared_ptr@Utimer_data_t@timer_t@ivm@@@std@@V?$allocator@V?$shared_ptr@Utimer_data_t@timer_t@ivm@@@std@@@2@@std@@IEBAXXZ 000000018000a990 f i environment.obj
 0001:00009990       ?_Xlen@?$deque@V?$unique_ptr@VRunnable@ivm@@U?$default_delete@VRunnable@ivm@@@std@@@std@@V?$allocator@V?$unique_ptr@VRunnable@ivm@@U?$default_delete@VRunnable@ivm@@@std@@@std@@@2@@std@@IEBAXXZ 000000018000a990 f i environment.obj
 0001:000099b0       ??$construct@Uthread_data_t@thread_pool_t@@$$V@?$_Default_allocator_traits@V?$allocator@Uthread_data_t@thread_pool_t@@@std@@@std@@SAXAEAV?$allocator@Uthread_data_t@thread_pool_t@@@1@QEAUthread_data_t@thread_pool_t@@@Z 000000018000a9b0 f i environment.obj
 0001:00009a10       ??$?0PEAV?$shared_ptr@Utimer_data_t@timer_t@ivm@@@std@@@?$priority_queue@V?$shared_ptr@Utimer_data_t@timer_t@ivm@@@std@@V?$deque@V?$shared_ptr@Utimer_data_t@timer_t@ivm@@@std@@V?$allocator@V?$shared_ptr@Utimer_data_t@timer_t@ivm@@@std@@@2@@2@Ucmp@timer_data_t@timer_t@ivm@@@std@@QEAA@PEAV?$shared_ptr@Utimer_data_t@timer_t@ivm@@@1@0@Z 000000018000aa10 f i environment.obj
 0001:00009c30       ?setbuf@?$basic_streambuf@DU?$char_traits@D@std@@@std@@MEAAPEAV12@PEAD_J@Z 000000018000ac30 f i stack_trace.obj
 0001:00009c30       ??$move@AEAV?$basic_string@DU?$char_traits@D@std@@V?$allocator@D@2@@std@@@std@@YA$$QEAV?$basic_string@DU?$char_traits@D@std@@V?$allocator@D@2@@0@AEAV10@@Z 000000018000ac30 f i environment.obj
 0001:00009c30       ??$move@AEAV?$shared_ptr@X@std@@@std@@YA$$QEAV?$shared_ptr@X@0@AEAV10@@Z 000000018000ac30 f i environment.obj
 0001:00009c40       ??$InterruptEntry@$1?TakeInterrupts@Lock@Scheduler@IsolateEnvironment@ivm@@QEAA?AV?$queue@V?$unique_ptr@VRunnable@ivm@@U?$default_delete@VRunnable@ivm@@@std@@@std@@V?$deque@V?$unique_ptr@VRunnable@ivm@@U?$default_delete@VRunnable@ivm@@@std@@@std@@V?$allocator@V?$unique_ptr@VRunnable@ivm@@U?$default_delete@VRunnable@ivm@@@std@@@std@@@2@@2@@std@@XZ@IsolateEnvironment@ivm@@AEAAXXZ 000000018000ac40 f i environment.obj
 0001:00009f10       ??$InterruptEntry@$1?TakeSyncInterrupts@Lock@Scheduler@IsolateEnvironment@ivm@@QEAA?AV?$queue@V?$unique_ptr@VRunnable@ivm@@U?$default_delete@VRunnable@ivm@@@std@@@std@@V?$deque@V?$unique_ptr@VRunnable@ivm@@U?$default_delete@VRunnable@ivm@@@std@@@std@@V?$allocator@V?$unique_ptr@VRunnable@ivm@@U?$default_delete@VRunnable@ivm@@@std@@@std@@@2@@2@@std@@XZ@IsolateEnvironment@ivm@@AEAAXXZ 000000018000af10 f i environment.obj
 0001:0000a1e0       ??$erase@V?$_List_iterator@V?$_List_val@U?$_List_simple_types@U?$pair@QEAVIsolate@v8@@PEAVIsolateEnvironment@ivm@@@std@@@std@@@std@@@std@@X@?$_Hash@V?$_Umap_traits@PEAVIsolate@v8@@PEAVIsolateEnvironment@ivm@@V?$_Uhash_compare@PEAVIsolate@v8@@U?$hash@PEAVIsolate@v8@@@std@@U?$equal_to@PEAVIsolate@v8@@@4@@std@@V?$allocator@U?$pair@QEAVIsolate@v8@@PEAVIsolateEnvironment@ivm@@@std@@@6@$0A@@std@@@std@@QEAA?AV?$_List_iterator@V?$_List_val@U?$_List_simple_types@U?$pair@QEAVIsolate@v8@@PEAVIsolateEnvironment@ivm@@@std@@@std@@@std@@@1@V21@@Z 000000018000b1e0 f i environment.obj
 0001:0000a2f0       ??$erase@V?$_List_iterator@V?$_List_val@U?$_List_simple_types@U?$pair@QEAV?$Persistent@VObject@v8@@V?$NonCopyablePersistentTraits@VObject@v8@@@2@@v8@@U?$pair@P6AXPEAX@ZPEAX@std@@@std@@@std@@@std@@@std@@X@?$_Hash@V?$_Umap_traits@PEAV?$Persistent@VObject@v8@@V?$NonCopyablePersistentTraits@VObject@v8@@@2@@v8@@U?$pair@P6AXPEAX@ZPEAX@std@@V?$_Uhash_compare@PEAV?$Persistent@VObject@v8@@V?$NonCopyablePersistentTraits@VObject@v8@@@2@@v8@@U?$hash@PEAV?$Persistent@VObject@v8@@V?$NonCopyablePersistentTraits@VObject@v8@@@2@@v8@@@std@@U?$equal_to@PEAV?$Persistent@VObject@v8@@V?$NonCopyablePersistentTraits@VObject@v8@@@2@@v8@@@4@@4@V?$allocator@U?$pair@QEAV?$Persistent@VObject@v8@@V?$NonCopyablePersistentTraits@VObject@v8@@@2@@v8@@U?$pair@P6AXPEAX@ZPEAX@std@@@std@@@4@$0A@@std@@@std@@QEAA?AV?$_List_iterator@V?$_List_val@U?$_List_simple_types@U?$pair@QEAV?$Persistent@VObject@v8@@V?$NonCopyablePersistentTraits@VObject@v8@@@2@@v8@@U?$pair@P6AXPEAX@ZPEAX@std@@@std@@@std@@@std@@@1@V21@@Z 000000018000b2f0 f i environment.obj
 0001:0000a400       ??$?HDU?$char_traits@D@std@@V?$allocator@D@1@@std@@YA?AV?$basic_string@DU?$char_traits@D@std@@V?$allocator@D@2@@0@$$QEAV10@AEBV10@@Z 000000018000b400 f i environment.obj
 0001:0000a9b0       ??$_Fill_unchecked@PEAV?$_List_unchecked_iterator@V?$_List_val@U?$_List_simple_types@U?$pair@$$CBHPEAUModuleInfo@ivm@@@std@@@std@@@std@@@std@@V12@@std@@YAXPEAV?$_List_unchecked_iterator@V?$_List_val@U?$_List_simple_types@U?$pair@$$CBHPEAUModuleInfo@ivm@@@std@@@std@@@std@@@0@0AEBV10@@Z 000000018000b9b0 f i environment.obj
 0001:0000a9b0       ??$_Fill_unchecked@PEAV?$_List_unchecked_iterator@V?$_List_val@U?$_List_simple_types@U?$pair@QEAVNativeModule@ivm@@V?$shared_ptr@VNativeModule@ivm@@@std@@@std@@@std@@@std@@@std@@V12@@std@@YAXPEAV?$_List_unchecked_iterator@V?$_List_val@U?$_List_simple_types@U?$pair@QEAVNativeModule@ivm@@V?$shared_ptr@VNativeModule@ivm@@@std@@@std@@@std@@@std@@@0@0AEBV10@@Z 000000018000b9b0 f i environment.obj
 0001:0000a9b0       ??$_Fill_unchecked@PEAV?$_List_unchecked_const_iterator@V?$_List_val@U?$_List_simple_types@PEAVtimer_thread_t@timer_t@ivm@@@std@@@std@@U_Iterator_base0@2@@std@@V12@@std@@YAXPEAV?$_List_unchecked_const_iterator@V?$_List_val@U?$_List_simple_types@PEAVtimer_thread_t@timer_t@ivm@@@std@@@std@@U_Iterator_base0@2@@0@0AEBV10@@Z 000000018000b9b0 f i environment.obj
 0001:0000a9b0       ??$_Fill_unchecked@PEAV?$_List_unchecked_iterator@V?$_List_val@U?$_List_simple_types@U?$pair@$$CBV?$basic_string@DU?$char_traits@D@std@@V?$allocator@D@2@@std@@V?$shared_ptr@UModuleInfo@ivm@@@2@@std@@@std@@@std@@@std@@V12@@std@@YAXPEAV?$_List_unchecked_iterator@V?$_List_val@U?$_List_simple_types@U?$pair@$$CBV?$basic_string@DU?$char_traits@D@std@@V?$allocator@D@2@@std@@V?$shared_ptr@UModuleInfo@ivm@@@2@@std@@@std@@@std@@@0@0AEBV10@@Z 000000018000b9b0 f i module_handle.obj
 0001:0000a9b0       ??$_Fill_unchecked@PEAV?$_List_unchecked_iterator@V?$_List_val@U?$_List_simple_types@U?$pair@QEAV?$Persistent@VObject@v8@@V?$NonCopyablePersistentTraits@VObject@v8@@@2@@v8@@U?$pair@P6AXPEAX@ZPEAX@std@@@std@@@std@@@std@@@std@@V12@@std@@YAXPEAV?$_List_unchecked_iterator@V?$_List_val@U?$_List_simple_types@U?$pair@QEAV?$Persistent@VObject@v8@@V?$NonCopyablePersistentTraits@VObject@v8@@@2@@v8@@U?$pair@P6AXPEAX@ZPEAX@std@@@std@@@std@@@std@@@0@0AEBV10@@Z 000000018000b9b0 f i environment.obj
 0001:0000a9b0       ??$_Fill_unchecked@PEAV?$_List_unchecked_iterator@V?$_List_val@U?$_List_simple_types@U?$pair@QEAVIsolate@v8@@PEAVIsolateEnvironment@ivm@@@std@@@std@@@std@@@std@@V12@@std@@YAXPEAV?$_List_unchecked_iterator@V?$_List_val@U?$_List_simple_types@U?$pair@QEAVIsolate@v8@@PEAVIsolateEnvironment@ivm@@@std@@@std@@@std@@@0@0AEBV10@@Z 000000018000b9b0 f i environment.obj
 0001:0000a9b0       ??$_Fill_unchecked@PEAV?$_List_unchecked_const_iterator@V?$_List_val@U?$_List_simple_types@PEAVInspectorSession@ivm@@@std@@@std@@U_Iterator_base0@2@@std@@V12@@std@@YAXPEAV?$_List_unchecked_const_iterator@V?$_List_val@U?$_List_simple_types@PEAVInspectorSession@ivm@@@std@@@std@@U_Iterator_base0@2@@0@0AEBV10@@Z 000000018000b9b0 f i inspector.obj
 0001:0000aa50       ?_Delete_this@?$_Ref_count_obj@Utimer_data_t@timer_t@ivm@@@std@@EEAAXXZ 000000018000ba50 f i environment.obj
 0001:0000aa50       ?_Delete_this@?$_Ref_count_obj@VIsolateHolder@ivm@@@std@@EEAAXXZ 000000018000ba50 f i isolate.obj
 0001:0000aa50       ?_Delete_this@?$_Ref_count_obj@VNativeModule@ivm@@@std@@EEAAXXZ 000000018000ba50 f i native_module_handle.obj
 0001:0000aa50       ?_Delete_this@?$_Ref_count_resource@PEAVV8InspectorSession@v8_inspector@@U?$default_delete@VV8InspectorSession@v8_inspector@@@std@@@std@@EEAAXXZ 000000018000ba50 f i inspector.obj
 0001:0000aa50       ?_Delete_this@?$_Ref_count_obj@V?$RemoteHandle@VValue@v8@@@ivm@@@std@@EEAAXXZ 000000018000ba50 f i isolate_handle.obj
 0001:0000aa50       ?_Delete_this@?$_Ref_count_obj@V?$RemoteHandle@VFunction@v8@@@ivm@@@std@@EEAAXXZ 000000018000ba50 f i session_handle.obj
 0001:0000aa50       ?_Delete_this@?$_Ref_count_obj@UModuleInfo@ivm@@@std@@EEAAXXZ 000000018000ba50 f i isolate_handle.obj
 0001:0000aa50       ?_Delete_this@?$_Ref_count_resource@PEAXP6AXPEAX@Z@std@@EEAAXXZ 000000018000ba50 f i external_copy.obj
 0001:0000aa50       ?_Delete_this@?$_Ref_count_obj@VSessionImpl@ivm@@@std@@EEAAXXZ 000000018000ba50 f i session_handle.obj
 0001:0000aa50       ?_Delete_this@?$_Ref_count_obj@VTaskHolder@PlatformDelegate@ivm@@@std@@EEAAXXZ 000000018000ba50 f i environment.obj
 0001:0000aa50       ?_Delete_this@?$_Ref_count_obj@VExternalCopyArrayBuffer@ivm@@@std@@EEAAXXZ 000000018000ba50 f i isolate_handle.obj
 0001:0000aa50       ?_Delete_this@?$_Ref_count_obj@VIsolateEnvironment@ivm@@@std@@EEAAXXZ 000000018000ba50 f i isolate.obj
 0001:0000aa50       ?_Delete_this@?$_Ref_count_obj@VTmpForegroundTaskRunner@PlatformDelegate@ivm@@@std@@EEAAXXZ 000000018000ba50 f i environment.obj
 0001:0000aa50       ?_Delete_this@?$_Ref_count_obj@UBookkeepingStatics@IsolateEnvironment@ivm@@@std@@EEAAXXZ 000000018000ba50 f i environment.obj
 0001:0000aa50       ?_Delete_this@?$_Ref_count_obj@V?$vector@DV?$allocator@D@std@@@std@@@std@@EEAAXXZ 000000018000ba50 f i external_copy.obj
 0001:0000aa50       ?_Delete_this@?$_Ref_count_obj@V?$RemoteHandle@VContext@v8@@@ivm@@@std@@EEAAXXZ 000000018000ba50 f i reference_handle.obj
 0001:0000aa50       ?_Delete_this@?$_Ref_count_obj@_N@std@@EEAAXXZ 000000018000ba50 f i reference_handle.obj
 0001:0000aa50       ?_Delete_this@?$_Ref_count_obj@Vmutex@std@@@std@@EEAAXXZ 000000018000ba50 f i environment.obj
 0001:0000aa50       ?_Delete_this@?$_Ref_count_obj@VForegroundTaskRunner@PlatformDelegate@ivm@@@std@@EEAAXXZ 000000018000ba50 f i environment.obj
 0001:0000aa50       ?_Delete_this@?$_Ref_count_obj@V?$RemoteHandle@VUnboundScript@v8@@@ivm@@@std@@EEAAXXZ 000000018000ba50 f i isolate_handle.obj
 0001:0000aa50       ?_Delete_this@?$_Ref_count_obj@V?$vector@V?$unique_ptr@VTask@v8@@U?$default_delete@VTask@v8@@@std@@@std@@V?$allocator@V?$unique_ptr@VTask@v8@@U?$default_delete@VTask@v8@@@std@@@std@@@2@@std@@@std@@EEAAXXZ 000000018000ba50 f i isolate_handle.obj
 0001:0000aa50       ?_Delete_this@?$_Ref_count_resource@PEAVExternalCopy@ivm@@U?$default_delete@VExternalCopy@ivm@@@std@@@std@@EEAAXXZ 000000018000ba50 f i external_copy_handle.obj
 0001:0000aa70       ?_Destroy@?$_Ref_count_obj@UBookkeepingStatics@IsolateEnvironment@ivm@@@std@@EEAAXXZ 000000018000ba70 f i environment.obj
 0001:0000aa90       ?_Destroy@?$_Ref_count_obj@VTmpForegroundTaskRunner@PlatformDelegate@ivm@@@std@@EEAAXXZ 000000018000ba90 f i environment.obj
 0001:0000aa90       ?_Destroy@?$_Ref_count_obj@VForegroundTaskRunner@PlatformDelegate@ivm@@@std@@EEAAXXZ 000000018000ba90 f i environment.obj
 0001:0000aaa0       ?_Destroy@?$_Ref_count_obj@VExternalCopyArrayBuffer@ivm@@@std@@EEAAXXZ 000000018000baa0 f i isolate_handle.obj
 0001:0000aaa0       ?_Destroy@?$_Ref_count_obj@VSessionImpl@ivm@@@std@@EEAAXXZ 000000018000baa0 f i session_handle.obj
 0001:0000aaa0       ?_Destroy@?$_Ref_count_obj@VTaskHolder@PlatformDelegate@ivm@@@std@@EEAAXXZ 000000018000baa0 f i environment.obj
 0001:0000aab0       ?_Destroy@?$_Ref_count_obj@Utimer_data_t@timer_t@ivm@@@std@@EEAAXXZ 000000018000bab0 f i environment.obj
 0001:0000ab40       ??1?$unique_ptr@V?$tuple@V?$_Binder@U_Unforced@std@@P8timer_thread_t@timer_t@ivm@@EAAXXZPEAV345@@std@@@std@@U?$default_delete@V?$tuple@V?$_Binder@U_Unforced@std@@P8timer_thread_t@timer_t@ivm@@EAAXXZPEAV345@@std@@@std@@@2@@std@@QEAA@XZ 000000018000bb40 f i environment.obj
 0001:0000ab60       ??1?$unique_ptr@V?$tuple@V?$_Binder@U_Unforced@std@@AEAP6AX_NPEAX@Z_NAEAPEAX@std@@@std@@U?$default_delete@V?$tuple@V?$_Binder@U_Unforced@std@@AEAP6AX_NPEAX@Z_NAEAPEAX@std@@@std@@@2@@std@@QEAA@XZ 000000018000bb60 f i environment.obj
 0001:0000ab80       ?_Destroy@?$_Ref_count_obj@Vmutex@std@@@std@@EEAAXXZ 000000018000bb80 f i environment.obj
 0001:0000ab90       ?_Fail@?$_Default_allocate_traits@$00@std@@SAXXZ 000000018000bb90 f i environment.obj
 0001:0000aba0       ?_Xlen@?$basic_string@DU?$char_traits@D@std@@V?$allocator@D@2@@std@@SAXXZ 000000018000bba0 f i environment.obj
 0001:0000abc0       ??$_Immortalize_impl@V_Generic_error_category@std@@@std@@YAHPEAX0PEAPEAX@Z 000000018000bbc0 f i environment.obj
 0001:0000abe0       ??$_Insert@PEAVtimer_thread_t@timer_t@ivm@@U_Not_a_node_tag@std@@@?$_Hash@V?$_Uset_traits@PEAVtimer_thread_t@timer_t@ivm@@V?$_Uhash_compare@PEAVtimer_thread_t@timer_t@ivm@@U?$hash@PEAVtimer_thread_t@timer_t@ivm@@@std@@U?$equal_to@PEAVtimer_thread_t@timer_t@ivm@@@5@@std@@V?$allocator@PEAVtimer_thread_t@timer_t@ivm@@@5@$0A@@std@@@std@@IEAA?AU?$pair@V?$_List_const_iterator@V?$_List_val@U?$_List_simple_types@PEAVtimer_thread_t@timer_t@ivm@@@std@@@std@@@std@@_N@1@$$QEAPEAVtimer_thread_t@timer_t@ivm@@U_Not_a_node_tag@1@@Z 000000018000bbe0 f i environment.obj
 0001:0000abe0       ??$_Insert@PEAVInspectorSession@ivm@@U_Not_a_node_tag@std@@@?$_Hash@V?$_Uset_traits@PEAVInspectorSession@ivm@@V?$_Uhash_compare@PEAVInspectorSession@ivm@@U?$hash@PEAVInspectorSession@ivm@@@std@@U?$equal_to@PEAVInspectorSession@ivm@@@4@@std@@V?$allocator@PEAVInspectorSession@ivm@@@4@$0A@@std@@@std@@IEAA?AU?$pair@V?$_List_const_iterator@V?$_List_val@U?$_List_simple_types@PEAVInspectorSession@ivm@@@std@@@std@@@std@@_N@1@$$QEAPEAVInspectorSession@ivm@@U_Not_a_node_tag@1@@Z 000000018000bbe0 f i inspector.obj
 0001:0000adf0       ??$_Push_heap_by_index@V?$_Deque_unchecked_iterator@V?$_Deque_val@U?$_Deque_simple_types@V?$shared_ptr@Utimer_data_t@timer_t@ivm@@@std@@@std@@@std@@@std@@_JV?$shared_ptr@Utimer_data_t@timer_t@ivm@@@2@Ucmp@timer_data_t@timer_t@ivm@@@std@@YAXV?$_Deque_unchecked_iterator@V?$_Deque_val@U?$_Deque_simple_types@V?$shared_ptr@Utimer_data_t@timer_t@ivm@@@std@@@std@@@std@@@0@_J1$$QEAV?$shared_ptr@Utimer_data_t@timer_t@ivm@@@0@Ucmp@timer_data_t@timer_t@ivm@@@Z 000000018000bdf0 f i environment.obj
 0001:0000afb0       ??_E?$_Ref_count_obj@Vmutex@std@@@std@@UEAAPEAXI@Z 000000018000bfb0 f i * CIL library *:* CIL module *
 0001:0000afb0       ??_G?$_Ref_count_obj@Vmutex@std@@@std@@UEAAPEAXI@Z 000000018000bfb0 f i environment.obj
 0001:0000b050       ??1?$_LaunchPad@V?$unique_ptr@V?$tuple@V?$_Binder@U_Unforced@std@@AEAP6AX_NPEAX@Z_NAEAPEAX@std@@@std@@U?$default_delete@V?$tuple@V?$_Binder@U_Unforced@std@@AEAP6AX_NPEAX@Z_NAEAPEAX@std@@@std@@@2@@std@@@std@@QEAA@XZ 000000018000c050 f i environment.obj
 0001:0000b0c0       ??1?$_LaunchPad@V?$unique_ptr@V?$tuple@V?$_Binder@U_Unforced@std@@P8timer_thread_t@timer_t@ivm@@EAAXXZPEAV345@@std@@@std@@U?$default_delete@V?$tuple@V?$_Binder@U_Unforced@std@@P8timer_thread_t@timer_t@ivm@@EAAXXZPEAV345@@std@@@std@@@2@@std@@@std@@QEAA@XZ 000000018000c0c0 f i environment.obj
 0001:0000b130       ??_G?$_Ref_count_obj@Utimer_data_t@timer_t@ivm@@@std@@UEAAPEAXI@Z 000000018000c130 f i environment.obj
 0001:0000b130       ??_E?$_Ref_count_obj@Utimer_data_t@timer_t@ivm@@@std@@UEAAPEAXI@Z 000000018000c130 f i * CIL library *:* CIL module *
 0001:0000b160       ??_G?$_Ref_count_obj@VTaskHolder@PlatformDelegate@ivm@@@std@@UEAAPEAXI@Z 000000018000c160 f i environment.obj
 0001:0000b160       ??_E?$_Ref_count_resource@PEAXP6AXPEAX@Z@std@@UEAAPEAXI@Z 000000018000c160 f i * CIL library *:* CIL module *
 0001:0000b160       ??_E?$_Ref_count_obj@VIsolateHolder@ivm@@@std@@UEAAPEAXI@Z 000000018000c160 f i * CIL library *:* CIL module *
 0001:0000b160       ??_G?$_Ref_count_obj@VIsolateHolder@ivm@@@std@@UEAAPEAXI@Z 000000018000c160 f i isolate.obj
 0001:0000b160       ??_E?$_Ref_count_obj@VTaskHolder@PlatformDelegate@ivm@@@std@@UEAAPEAXI@Z 000000018000c160 f i * CIL library *:* CIL module *
 0001:0000b160       ??_G?$_Ref_count_resource@PEAXP6AXPEAX@Z@std@@UEAAPEAXI@Z 000000018000c160 f i external_copy.obj
 0001:0000b190       ??_G?$_Ref_count_obj@V?$vector@V?$unique_ptr@VTask@v8@@U?$default_delete@VTask@v8@@@std@@@std@@V?$allocator@V?$unique_ptr@VTask@v8@@U?$default_delete@VTask@v8@@@std@@@std@@@2@@std@@@std@@UEAAPEAXI@Z 000000018000c190 f i isolate_handle.obj
 0001:0000b190       ??_G?$_Ref_count_obj@VTmpForegroundTaskRunner@PlatformDelegate@ivm@@@std@@UEAAPEAXI@Z 000000018000c190 f i environment.obj
 0001:0000b190       ??_G?$_Ref_count_obj@V?$RemoteHandle@VUnboundScript@v8@@@ivm@@@std@@UEAAPEAXI@Z 000000018000c190 f i isolate_handle.obj
 0001:0000b190       ??_E?$_Ref_count_obj@VForegroundTaskRunner@PlatformDelegate@ivm@@@std@@UEAAPEAXI@Z 000000018000c190 f i * CIL library *:* CIL module *
 0001:0000b190       ??_E?$_Ref_count_obj@V?$RemoteHandle@VUnboundScript@v8@@@ivm@@@std@@UEAAPEAXI@Z 000000018000c190 f i * CIL library *:* CIL module *
 0001:0000b190       ??_E?$_Ref_count_obj@V?$RemoteHandle@VFunction@v8@@@ivm@@@std@@UEAAPEAXI@Z 000000018000c190 f i * CIL library *:* CIL module *
 0001:0000b190       ??_G?$_Ref_count_obj@V?$vector@DV?$allocator@D@std@@@std@@@std@@UEAAPEAXI@Z 000000018000c190 f i external_copy.obj
 0001:0000b190       ??_E?$_Ref_count_obj@VNativeModule@ivm@@@std@@UEAAPEAXI@Z 000000018000c190 f i * CIL library *:* CIL module *
 0001:0000b190       ??_E?$_Ref_count_obj@V?$RemoteHandle@VValue@v8@@@ivm@@@std@@UEAAPEAXI@Z 000000018000c190 f i * CIL library *:* CIL module *
 0001:0000b190       ??_G?$_Ref_count_obj@V?$RemoteHandle@VContext@v8@@@ivm@@@std@@UEAAPEAXI@Z 000000018000c190 f i reference_handle.obj
 0001:0000b190       ??_E?$_Ref_count_obj@V?$RemoteHandle@VContext@v8@@@ivm@@@std@@UEAAPEAXI@Z 000000018000c190 f i * CIL library *:* CIL module *
 0001:0000b190       ??_E?$_Ref_count_obj@V?$vector@V?$unique_ptr@VTask@v8@@U?$default_delete@VTask@v8@@@std@@@std@@V?$allocator@V?$unique_ptr@VTask@v8@@U?$default_delete@VTask@v8@@@std@@@std@@@2@@std@@@std@@UEAAPEAXI@Z 000000018000c190 f i * CIL library *:* CIL module *
 0001:0000b190       ??_E?$_Ref_count_obj@VTmpForegroundTaskRunner@PlatformDelegate@ivm@@@std@@UEAAPEAXI@Z 000000018000c190 f i * CIL library *:* CIL module *
 0001:0000b190       ??_G?$_Ref_count_obj@VNativeModule@ivm@@@std@@UEAAPEAXI@Z 000000018000c190 f i native_module_handle.obj
 0001:0000b190       ??_G?$_Ref_count_obj@V?$RemoteHandle@VFunction@v8@@@ivm@@@std@@UEAAPEAXI@Z 000000018000c190 f i session_handle.obj
 0001:0000b190       ??_G?$_Ref_count_obj@V?$RemoteHandle@VValue@v8@@@ivm@@@std@@UEAAPEAXI@Z 000000018000c190 f i isolate_handle.obj
 0001:0000b190       ??_E?$_Ref_count_obj@V?$vector@DV?$allocator@D@std@@@std@@@std@@UEAAPEAXI@Z 000000018000c190 f i * CIL library *:* CIL module *
 0001:0000b190       ??_G?$_Ref_count_obj@VForegroundTaskRunner@PlatformDelegate@ivm@@@std@@UEAAPEAXI@Z 000000018000c190 f i environment.obj
 0001:0000b1c0       ??_E?$_Ref_count_obj@UBookkeepingStatics@IsolateEnvironment@ivm@@@std@@UEAAPEAXI@Z 000000018000c1c0 f i * CIL library *:* CIL module *
 0001:0000b1c0       ??_G?$_Ref_count_obj@UBookkeepingStatics@IsolateEnvironment@ivm@@@std@@UEAAPEAXI@Z 000000018000c1c0 f i environment.obj
 0001:0000b200       _Mtx_getconcrtcs           000000018000c200 f   libcpmt:mutex.obj
 0001:0000b350       ?_Go@?$_LaunchPad@V?$unique_ptr@V?$tuple@V?$_Binder@U_Unforced@std@@P8timer_thread_t@timer_t@ivm@@EAAXXZPEAV345@@std@@@std@@U?$default_delete@V?$tuple@V?$_Binder@U_Unforced@std@@P8timer_thread_t@timer_t@ivm@@EAAXXZPEAV345@@std@@@std@@@2@@std@@@std@@UEAAXXZ 000000018000c350 f i environment.obj
 0001:0000b3e0       ?_Go@?$_LaunchPad@V?$unique_ptr@V?$tuple@V?$_Binder@U_Unforced@std@@AEAP6AX_NPEAX@Z_NAEAPEAX@std@@@std@@U?$default_delete@V?$tuple@V?$_Binder@U_Unforced@std@@AEAP6AX_NPEAX@Z_NAEAPEAX@std@@@std@@@2@@std@@@std@@UEAAXXZ 000000018000c3e0 f i environment.obj
 0001:0000b500       ?_Check_size@?$_Hash@V?$_Uset_traits@PEAVtimer_thread_t@timer_t@ivm@@V?$_Uhash_compare@PEAVtimer_thread_t@timer_t@ivm@@U?$hash@PEAVtimer_thread_t@timer_t@ivm@@@std@@U?$equal_to@PEAVtimer_thread_t@timer_t@ivm@@@5@@std@@V?$allocator@PEAVtimer_thread_t@timer_t@ivm@@@5@$0A@@std@@@std@@IEAAXXZ 000000018000c500 f i environment.obj
 0001:0000b500       ?_Check_size@?$_Hash@V?$_Uset_traits@PEAVInspectorSession@ivm@@V?$_Uhash_compare@PEAVInspectorSession@ivm@@U?$hash@PEAVInspectorSession@ivm@@@std@@U?$equal_to@PEAVInspectorSession@ivm@@@4@@std@@V?$allocator@PEAVInspectorSession@ivm@@@4@$0A@@std@@@std@@IEAAXXZ 000000018000c500 f i inspector.obj
 0001:0000b7c0       ??$_Insert@AEAU?$pair@QEAVIsolate@v8@@PEAVIsolateEnvironment@ivm@@@std@@V?$_List_unchecked_iterator@V?$_List_val@U?$_List_simple_types@U?$pair@QEAVIsolate@v8@@PEAVIsolateEnvironment@ivm@@@std@@@std@@@std@@@2@@?$_Hash@V?$_Umap_traits@PEAVIsolate@v8@@PEAVIsolateEnvironment@ivm@@V?$_Uhash_compare@PEAVIsolate@v8@@U?$hash@PEAVIsolate@v8@@@std@@U?$equal_to@PEAVIsolate@v8@@@4@@std@@V?$allocator@U?$pair@QEAVIsolate@v8@@PEAVIsolateEnvironment@ivm@@@std@@@6@$0A@@std@@@std@@IEAA?AU?$pair@V?$_List_iterator@V?$_List_val@U?$_List_simple_types@U?$pair@QEAVIsolate@v8@@PEAVIsolateEnvironment@ivm@@@std@@@std@@@std@@@std@@_N@1@AEAU?$pair@QEAVIsolate@v8@@PEAVIsolateEnvironment@ivm@@@1@V?$_List_unchecked_iterator@V?$_List_val@U?$_List_simple_types@U?$pair@QEAVIsolate@v8@@PEAVIsolateEnvironment@ivm@@@std@@@std@@@std@@@1@@Z 000000018000c7c0 f i environment.obj
 0001:0000ba10       ??$_Insert@AEAU?$pair@QEAV?$Persistent@VObject@v8@@V?$NonCopyablePersistentTraits@VObject@v8@@@2@@v8@@U?$pair@P6AXPEAX@ZPEAX@std@@@std@@V?$_List_unchecked_iterator@V?$_List_val@U?$_List_simple_types@U?$pair@QEAV?$Persistent@VObject@v8@@V?$NonCopyablePersistentTraits@VObject@v8@@@2@@v8@@U?$pair@P6AXPEAX@ZPEAX@std@@@std@@@std@@@std@@@2@@?$_Hash@V?$_Umap_traits@PEAV?$Persistent@VObject@v8@@V?$NonCopyablePersistentTraits@VObject@v8@@@2@@v8@@U?$pair@P6AXPEAX@ZPEAX@std@@V?$_Uhash_compare@PEAV?$Persistent@VObject@v8@@V?$NonCopyablePersistentTraits@VObject@v8@@@2@@v8@@U?$hash@PEAV?$Persistent@VObject@v8@@V?$NonCopyablePersistentTraits@VObject@v8@@@2@@v8@@@std@@U?$equal_to@PEAV?$Persistent@VObject@v8@@V?$NonCopyablePersistentTraits@VObject@v8@@@2@@v8@@@4@@4@V?$allocator@U?$pair@QEAV?$Persistent@VObject@v8@@V?$NonCopyablePersistentTraits@VObject@v8@@@2@@v8@@U?$pair@P6AXPEAX@ZPEAX@std@@@std@@@4@$0A@@std@@@std@@IEAA?AU?$pair@V?$_List_iterator@V?$_List_val@U?$_List_simple_types@U?$pair@QEAV?$Persistent@VObject@v8@@V?$NonCopyablePersistentTraits@VObject@v8@@@2@@v8@@U?$pair@P6AXPEAX@ZPEAX@std@@@std@@@std@@@std@@@std@@_N@1@AEAU?$pair@QEAV?$Persistent@VObject@v8@@V?$NonCopyablePersistentTraits@VObject@v8@@@2@@v8@@U?$pair@P6AXPEAX@ZPEAX@std@@@1@V?$_List_unchecked_iterator@V?$_List_val@U?$_List_simple_types@U?$pair@QEAV?$Persistent@VObject@v8@@V?$NonCopyablePersistentTraits@VObject@v8@@@2@@v8@@U?$pair@P6AXPEAX@ZPEAX@std@@@std@@@std@@@std@@@1@@Z 000000018000ca10 f i environment.obj
 0001:0000bc60       ??$_Insert@AEBQEAVInspectorSession@ivm@@V?$_List_unchecked_const_iterator@V?$_List_val@U?$_List_simple_types@PEAVInspectorSession@ivm@@@std@@@std@@U_Iterator_base0@2@@std@@@?$_Hash@V?$_Uset_traits@PEAVInspectorSession@ivm@@V?$_Uhash_compare@PEAVInspectorSession@ivm@@U?$hash@PEAVInspectorSession@ivm@@@std@@U?$equal_to@PEAVInspectorSession@ivm@@@4@@std@@V?$allocator@PEAVInspectorSession@ivm@@@4@$0A@@std@@@std@@IEAA?AU?$pair@V?$_List_const_iterator@V?$_List_val@U?$_List_simple_types@PEAVInspectorSession@ivm@@@std@@@std@@@std@@_N@1@AEBQEAVInspectorSession@ivm@@V?$_List_unchecked_const_iterator@V?$_List_val@U?$_List_simple_types@PEAVInspectorSession@ivm@@@std@@@std@@U_Iterator_base0@2@@1@@Z 000000018000cc60 f i inspector.obj
 0001:0000bc60       ??$_Insert@AEBQEAVtimer_thread_t@timer_t@ivm@@V?$_List_unchecked_const_iterator@V?$_List_val@U?$_List_simple_types@PEAVtimer_thread_t@timer_t@ivm@@@std@@@std@@U_Iterator_base0@2@@std@@@?$_Hash@V?$_Uset_traits@PEAVtimer_thread_t@timer_t@ivm@@V?$_Uhash_compare@PEAVtimer_thread_t@timer_t@ivm@@U?$hash@PEAVtimer_thread_t@timer_t@ivm@@@std@@U?$equal_to@PEAVtimer_thread_t@timer_t@ivm@@@5@@std@@V?$allocator@PEAVtimer_thread_t@timer_t@ivm@@@5@$0A@@std@@@std@@IEAA?AU?$pair@V?$_List_const_iterator@V?$_List_val@U?$_List_simple_types@PEAVtimer_thread_t@timer_t@ivm@@@std@@@std@@@std@@_N@1@AEBQEAVtimer_thread_t@timer_t@ivm@@V?$_List_unchecked_const_iterator@V?$_List_val@U?$_List_simple_types@PEAVtimer_thread_t@timer_t@ivm@@@std@@@std@@U_Iterator_base0@2@@1@@Z 000000018000cc60 f i environment.obj
 0001:0000be10       ??1?$unique_ptr@V?$Eternal@VData@v8@@@v8@@U?$default_delete@V?$Eternal@VData@v8@@@v8@@@std@@@std@@QEAA@XZ 000000018000ce10 f i environment.obj
 0001:0000be30       ??$_Pop_heap_hole_by_index@V?$_Deque_unchecked_iterator@V?$_Deque_val@U?$_Deque_simple_types@V?$shared_ptr@Utimer_data_t@timer_t@ivm@@@std@@@std@@@std@@@std@@_JV?$shared_ptr@Utimer_data_t@timer_t@ivm@@@2@Ucmp@timer_data_t@timer_t@ivm@@@std@@YAXV?$_Deque_unchecked_iterator@V?$_Deque_val@U?$_Deque_simple_types@V?$shared_ptr@Utimer_data_t@timer_t@ivm@@@std@@@std@@@std@@@0@_J1$$QEAV?$shared_ptr@Utimer_data_t@timer_t@ivm@@@0@Ucmp@timer_data_t@timer_t@ivm@@@Z 000000018000ce30 f i environment.obj
 0001:0000c060       ?ScheduleTask@IsolateHolder@ivm@@QEAAXV?$unique_ptr@VRunnable@ivm@@U?$default_delete@VRunnable@ivm@@@std@@@std@@_N11@Z 000000018000d060 f   holder.obj
 0001:0000c3e0       ??_GInspectorAgent@ivm@@UEAAPEAXI@Z 000000018000d3e0 f i inspector.obj
 0001:0000c3e0       ??_EInspectorAgent@ivm@@UEAAPEAXI@Z 000000018000d3e0 f i * CIL library *:* CIL module *
 0001:0000c4d0       ??1<unnamed-type-sessions>@InspectorAgent@ivm@@QEAA@XZ 000000018000d4d0 f i inspector.obj
 0001:0000c4f0       ??1?$_Hash@V?$_Uset_traits@PEAVInspectorSession@ivm@@V?$_Uhash_compare@PEAVInspectorSession@ivm@@U?$hash@PEAVInspectorSession@ivm@@@std@@U?$equal_to@PEAVInspectorSession@ivm@@@4@@std@@V?$allocator@PEAVInspectorSession@ivm@@@4@$0A@@std@@@std@@QEAA@XZ 000000018000d4f0 f i inspector.obj
 0001:0000c5e0       ?runMessageLoopOnPause@InspectorAgent@ivm@@UEAAXH@Z 000000018000d5e0 f   inspector.obj
 0001:0000c850       ?quitMessageLoopOnPause@InspectorAgent@ivm@@UEAAXXZ 000000018000d850 f   inspector.obj
 0001:0000c880       ?SendInterrupt@InspectorAgent@ivm@@AEAAXV?$unique_ptr@VRunnable@ivm@@U?$default_delete@VRunnable@ivm@@@std@@@std@@@Z 000000018000d880 f   inspector.obj
 0001:0000caa0       ??_EInspectorSession@ivm@@UEAAPEAXI@Z 000000018000daa0 f i * CIL library *:* CIL module *
 0001:0000caa0       ??_GInspectorSession@ivm@@UEAAPEAXI@Z 000000018000daa0 f i inspector.obj
 0001:0000cae0       ??1InspectorSession@ivm@@UEAA@XZ 000000018000dae0 f   inspector.obj
 0001:0000cb70       ?Disconnect@InspectorSession@ivm@@QEAAXXZ 000000018000db70 f   inspector.obj
 0001:0000cc90       ?DispatchBackendProtocolMessage@InspectorSession@ivm@@QEAAXV?$vector@GV?$allocator@G@std@@@std@@@Z 000000018000dc90 f   inspector.obj
 0001:0000cef0       ??_EDispatchMessageA@?4??DispatchBackendProtocolMessage@InspectorSession@ivm@@QEAAXV?$vector@GV?$allocator@G@std@@@std@@@Z@UEAAPEAXI@Z 000000018000def0 f i * CIL library *:* CIL module *
 0001:0000cef0       ??_GDispatchMessageA@?4??DispatchBackendProtocolMessage@InspectorSession@ivm@@QEAAXV?$vector@GV?$allocator@G@std@@@std@@@Z@UEAAPEAXI@Z 000000018000def0 f i inspector.obj
 0001:0000cf60       ??1?$vector@GV?$allocator@G@std@@@std@@QEAA@XZ 000000018000df60 f i inspector.obj
 0001:0000cf70       ?erase@?$_Hash@V?$_Uset_traits@PEAVInspectorSession@ivm@@V?$_Uhash_compare@PEAVInspectorSession@ivm@@U?$hash@PEAVInspectorSession@ivm@@@std@@U?$equal_to@PEAVInspectorSession@ivm@@@4@@std@@V?$allocator@PEAVInspectorSession@ivm@@@4@$0A@@std@@@std@@QEAA_KAEBQEAVInspectorSession@ivm@@@Z 000000018000df70 f i inspector.obj
 0001:0000d160       ?_Tidy@?$vector@GV?$allocator@G@std@@@std@@AEAAXXZ 000000018000e160 f i inspector.obj
 0001:0000d1e0       ?_Destroy@?$_Ref_count_resource@PEAVExternalCopy@ivm@@U?$default_delete@VExternalCopy@ivm@@@std@@@std@@EEAAXXZ 000000018000e1e0 f i external_copy_handle.obj
 0001:0000d1e0       ?_Destroy@?$_Ref_count_resource@PEAVV8InspectorSession@v8_inspector@@U?$default_delete@VV8InspectorSession@v8_inspector@@@std@@@std@@EEAAXXZ 000000018000e1e0 f i inspector.obj
 0001:0000d210       ?_Get_deleter@?$_Ref_count_resource@PEAVV8InspectorSession@v8_inspector@@U?$default_delete@VV8InspectorSession@v8_inspector@@@std@@@std@@UEBAPEAXAEBVtype_info@@@Z 000000018000e210 f i inspector.obj
 0001:0000d240       ??_G?$_Ref_count_resource@PEAVExternalCopy@ivm@@U?$default_delete@VExternalCopy@ivm@@@std@@@std@@UEAAPEAXI@Z 000000018000e240 f i external_copy_handle.obj
 0001:0000d240       ??_G?$_Ref_count_resource@PEAVV8InspectorSession@v8_inspector@@U?$default_delete@VV8InspectorSession@v8_inspector@@@std@@@std@@UEAAPEAXI@Z 000000018000e240 f i inspector.obj
 0001:0000d240       ??_E?$_Ref_count_resource@PEAVV8InspectorSession@v8_inspector@@U?$default_delete@VV8InspectorSession@v8_inspector@@@std@@@std@@UEAAPEAXI@Z 000000018000e240 f i * CIL library *:* CIL module *
 0001:0000d240       ??_E?$_Ref_count_obj@_N@std@@UEAAPEAXI@Z 000000018000e240 f i * CIL library *:* CIL module *
 0001:0000d240       ??_E?$_Ref_count_resource@PEAVExternalCopy@ivm@@U?$default_delete@VExternalCopy@ivm@@@std@@@std@@UEAAPEAXI@Z 000000018000e240 f i * CIL library *:* CIL module *
 0001:0000d240       ??_G?$_Ref_count_obj@_N@std@@UEAAPEAXI@Z 000000018000e240 f i reference_handle.obj
 0001:0000d270       sprintf_s                  000000018000e270 f i stack_trace.obj
 0001:0000d2d0       ??0_Locinfo@std@@QEAA@PEBD@Z 000000018000e2d0 f i stack_trace.obj
 0001:0000d360       ??1_Locinfo@std@@QEAA@XZ   000000018000e360 f i stack_trace.obj
 0001:0000d410       ??_E_Facet_base@std@@UEAAPEAXI@Z 000000018000e410 f i * CIL library *:* CIL module *
 0001:0000d410       ??_G_Facet_base@std@@UEAAPEAXI@Z 000000018000e410 f i stack_trace.obj
 0001:0000d440       ?_Incref@facet@locale@std@@UEAAXXZ 000000018000e440 f i stack_trace.obj
 0001:0000d450       ?_Decref@facet@locale@std@@UEAAPEAV_Facet_base@3@XZ 000000018000e450 f i stack_trace.obj
 0001:0000d460       ??1facet@locale@std@@MEAA@XZ 000000018000e460 f i stack_trace.obj
 0001:0000d470       ??1locale@std@@QEAA@XZ     000000018000e470 f i stack_trace.obj
 0001:0000d4b0       ?do_tolower@?$ctype@D@std@@MEBADD@Z 000000018000e4b0 f i stack_trace.obj
 0001:0000d4c0       ?do_tolower@?$ctype@D@std@@MEBAPEBDPEADPEBD@Z 000000018000e4c0 f i stack_trace.obj
 0001:0000d520       ?do_toupper@?$ctype@D@std@@MEBADD@Z 000000018000e520 f i stack_trace.obj
 0001:0000d530       ?do_toupper@?$ctype@D@std@@MEBAPEBDPEADPEBD@Z 000000018000e530 f i stack_trace.obj
 0001:0000d590       ?do_widen@?$ctype@D@std@@MEBADD@Z 000000018000e590 f i stack_trace.obj
 0001:0000d590       ?do_narrow@?$ctype@D@std@@MEBADDD@Z 000000018000e590 f i stack_trace.obj
 0001:0000d5a0       ?do_widen@?$ctype@D@std@@MEBAPEBDPEBD0PEAD@Z 000000018000e5a0 f i stack_trace.obj
 0001:0000d5c0       ?do_narrow@?$ctype@D@std@@MEBAPEBDPEBD0DPEAD@Z 000000018000e5c0 f i stack_trace.obj
 0001:0000d5e0       ??_E?$ctype@D@std@@MEAAPEAXI@Z 000000018000e5e0 f i * CIL library *:* CIL module *
 0001:0000d5e0       ??_G?$ctype@D@std@@MEAAPEAXI@Z 000000018000e5e0 f i stack_trace.obj
 0001:0000d650       ?make_error_code@std@@YA?AVerror_code@1@W4io_errc@1@@Z 000000018000e650 f i stack_trace.obj
 0001:0000d6a0       ?name@_Iostream_error_category@std@@UEBAPEBDXZ 000000018000e6a0 f i stack_trace.obj
 0001:0000d6b0       ?message@_Iostream_error_category@std@@UEBA?AV?$basic_string@DU?$char_traits@D@std@@V?$allocator@D@2@@2@H@Z 000000018000e6b0 f i stack_trace.obj
 0001:0000d730       ??0failure@ios_base@std@@QEAA@PEBDAEBVerror_code@2@@Z 000000018000e730 f i stack_trace.obj
 0001:0000d7e0       ?clear@ios_base@std@@QEAAXH_N@Z 000000018000e7e0 f i stack_trace.obj
 0001:0000d880       ??_Gios_base@std@@UEAAPEAXI@Z 000000018000e880 f i stack_trace.obj
 0001:0000d880       ??_Eios_base@std@@UEAAPEAXI@Z 000000018000e880 f i * CIL library *:* CIL module *
 0001:0000d8d0       ?v8_string@ivm@@YA?AV?$Local@VString@v8@@@v8@@PEBD@Z 000000018000e8d0 f i stack_trace.obj
 0001:0000d950       ?v8_symbol@ivm@@YA?AV?$Local@VString@v8@@@v8@@PEBD@Z 000000018000e950 f i stack_trace.obj
 0001:0000d9d0       ?CalleeName@ivm@@YA?AV?$basic_string@DU?$char_traits@D@std@@V?$allocator@D@2@@std@@AEBV?$FunctionCallbackInfo@VValue@v8@@@v8@@@Z 000000018000e9d0 f i stack_trace.obj
 0001:0000db70       ??1?$StringValueWrapper@VUtf8Value@String@v8@@@ivm@@QEAA@XZ 000000018000eb70 f i stack_trace.obj
 0001:0000db80       ?PrivateConstructorError@ivm@@YAXAEBV?$FunctionCallbackInfo@VValue@v8@@@v8@@@Z 000000018000eb80 f i stack_trace.obj
 0001:0000dbf0       ??0?$js_error_ctor@$1?TypeError@Exception@v8@@SA?AV?$Local@VValue@v8@@@3@V?$Local@VString@v8@@@3@@Z@ivm@@QEAA@AEBV01@@Z 000000018000ebf0 f i stack_trace.obj
 0001:0000dc70       ?WeakCallback@ClassHandle@ivm@@CAXPEAV12@@Z 000000018000ec70 f i stack_trace.obj
 0001:0000dcc0       ?Wrap@ClassHandle@ivm@@CAXV?$unique_ptr@VClassHandle@ivm@@U?$default_delete@VClassHandle@ivm@@@std@@@std@@V?$Local@VObject@v8@@@v8@@@Z 000000018000ecc0 f i stack_trace.obj
 0001:0000ddb0       ?PrivateConstructor@ClassHandle@ivm@@CAXAEBV?$FunctionCallbackInfo@VValue@v8@@@v8@@@Z 000000018000edb0 f i stack_trace.obj
 0001:0000ddc0       ??1ClassHandle@ivm@@UEAA@XZ 000000018000edc0 f i stack_trace.obj
 0001:0000de10       ??_ELibHandle@ivm@@UEAAPEAXI@Z 000000018000ee10 f i * CIL library *:* CIL module *
 0001:0000de10       ??_GClassHandle@ivm@@UEAAPEAXI@Z 000000018000ee10 f i stack_trace.obj
 0001:0000de10       ??_ELibraryHandle@ivm@@UEAAPEAXI@Z 000000018000ee10 f i * CIL library *:* CIL module *
 0001:0000de10       ??_EClassHandle@ivm@@UEAAPEAXI@Z 000000018000ee10 f i * CIL library *:* CIL module *
 0001:0000de10       ??_GLibHandle@ivm@@UEAAPEAXI@Z 000000018000ee10 f i isolate.obj
 0001:0000de10       ??_GLibraryHandle@ivm@@UEAAPEAXI@Z 000000018000ee10 f i isolate.obj
 0001:0000de80       ?GetPrivateStackSymbol@ivm@@YA?AV?$Local@VPrivate@v8@@@v8@@XZ 000000018000ee80 f   stack_trace.obj
 0001:0000e090       ?RenderErrorStack@ivm@@YA?AV?$Local@VString@v8@@@v8@@V?$Local@VValue@v8@@@3@@Z 000000018000f090 f   stack_trace.obj
 0001:0000e440       ?ErrorStackGetter@ivm@@YAXV?$Local@VName@v8@@@v8@@AEBV?$PropertyCallbackInfo@VValue@v8@@@3@@Z 000000018000f440 f   stack_trace.obj
 0001:0000e660       ?AttachStackGetter@ivm@@YAXV?$Local@VObject@v8@@@v8@@V?$Local@VValue@v8@@@3@@Z 000000018000f660 f   stack_trace.obj
 0001:0000e7c0       ??_EStackTraceHolder@ivm@@UEAAPEAXI@Z 000000018000f7c0 f i * CIL library *:* CIL module *
 0001:0000e7c0       ??_GStackTraceHolder@ivm@@UEAAPEAXI@Z 000000018000f7c0 f i stack_trace.obj
 0001:0000e850       ?ChainStack@StackTraceHolder@ivm@@SAXV?$Local@VObject@v8@@@v8@@V?$Local@VStackTrace@v8@@@4@@Z 000000018000f850 f   stack_trace.obj
 0001:0000eae0       ?RenderSingleStack@StackTraceHolder@ivm@@SA?AV?$basic_string@DU?$char_traits@D@std@@V?$allocator@D@2@@std@@V?$Local@VStackTrace@v8@@@v8@@@Z 000000018000fae0 f   stack_trace.obj
 0001:0000f000       ??_D?$basic_stringstream@DU?$char_traits@D@std@@V?$allocator@D@2@@std@@QEAAXXZ 0000000180010000 f i stack_trace.obj
 0001:0000f110       ??$emplace_back@V?$unique_ptr@V?$Eternal@VData@v8@@@v8@@U?$default_delete@V?$Eternal@VData@v8@@@v8@@@std@@@std@@@?$vector@V?$unique_ptr@V?$Eternal@VData@v8@@@v8@@U?$default_delete@V?$Eternal@VData@v8@@@v8@@@std@@@std@@V?$allocator@V?$unique_ptr@V?$Eternal@VData@v8@@@v8@@U?$default_delete@V?$Eternal@VData@v8@@@v8@@@std@@@std@@@2@@std@@QEAAX$$QEAV?$unique_ptr@V?$Eternal@VData@v8@@@v8@@U?$default_delete@V?$Eternal@VData@v8@@@v8@@@std@@@1@@Z 0000000180010110 f i stack_trace.obj
 0001:0000f290       ??0?$StringValueWrapper@VUtf8Value@String@v8@@@ivm@@QEAA@PEAVIsolate@v8@@V?$Local@VValue@v8@@@3@@Z 0000000180010290 f i stack_trace.obj
 0001:0000f2b0       ?ConstructError@?$js_error_ctor@$1?TypeError@Exception@v8@@SA?AV?$Local@VValue@v8@@@3@V?$Local@VString@v8@@@3@@Z@ivm@@UEBA?AV?$Local@VValue@v8@@@v8@@XZ 00000001800102b0 f i stack_trace.obj
 0001:0000f4d0       ??0?$js_error_ctor@$1?TypeError@Exception@v8@@SA?AV?$Local@VValue@v8@@@3@V?$Local@VString@v8@@@3@@Z@ivm@@QEAA@V?$basic_string@DU?$char_traits@D@std@@V?$allocator@D@2@@std@@@Z 00000001800104d0 f i stack_trace.obj
 0001:0000f5a0       ??1?$_Yarn@D@std@@QEAA@XZ  00000001800105a0 f i stack_trace.obj
 0001:0000f5a0       ??1?$_Yarn@_W@std@@QEAA@XZ 00000001800105a0 f i stack_trace.obj
 0001:0000f5d0       ?str@?$basic_stringstream@DU?$char_traits@D@std@@V?$allocator@D@2@@std@@QEBA?AV?$basic_string@DU?$char_traits@D@std@@V?$allocator@D@2@@2@XZ 00000001800105d0 f i stack_trace.obj
 0001:0000f720       ?seekpos@?$basic_stringbuf@DU?$char_traits@D@std@@V?$allocator@D@2@@std@@MEAA?AV?$fpos@U_Mbstatet@@@2@V32@H@Z 0000000180010720 f i stack_trace.obj
 0001:0000f830       ?seekoff@?$basic_stringbuf@DU?$char_traits@D@std@@V?$allocator@D@2@@std@@MEAA?AV?$fpos@U_Mbstatet@@@2@_JHH@Z 0000000180010830 f i stack_trace.obj
 0001:0000f9d0       ?underflow@?$basic_stringbuf@DU?$char_traits@D@std@@V?$allocator@D@2@@std@@MEAAHXZ 00000001800109d0 f i stack_trace.obj
 0001:0000fa40       ?pbackfail@?$basic_stringbuf@DU?$char_traits@D@std@@V?$allocator@D@2@@std@@MEAAHH@Z 0000000180010a40 f i stack_trace.obj
 0001:0000fa90       ?overflow@?$basic_stringbuf@DU?$char_traits@D@std@@V?$allocator@D@2@@std@@MEAAHH@Z 0000000180010a90 f i stack_trace.obj
 0001:0000fd90       ??1?$basic_stringbuf@DU?$char_traits@D@std@@V?$allocator@D@2@@std@@UEAA@XZ 0000000180010d90 f i stack_trace.obj
 0001:0000fec0       ??1?$basic_iostream@DU?$char_traits@D@std@@@std@@UEAA@XZ 0000000180010ec0 f i stack_trace.obj
 0001:0000ff40       ??6?$basic_ostream@DU?$char_traits@D@std@@@std@@QEAAAEAV01@H@Z 0000000180010f40 f i stack_trace.obj
 0001:000101d0       ??1?$basic_istream@DU?$char_traits@D@std@@@std@@UEAA@XZ 00000001800111d0 f i stack_trace.obj
 0001:00010200       ?seekpos@?$basic_streambuf@DU?$char_traits@D@std@@@std@@MEAA?AV?$fpos@U_Mbstatet@@@2@V32@H@Z 0000000180011200 f i stack_trace.obj
 0001:00010200       ?seekoff@?$basic_streambuf@DU?$char_traits@D@std@@@std@@MEAA?AV?$fpos@U_Mbstatet@@@2@_JHH@Z 0000000180011200 f i stack_trace.obj
 0001:00010220       ?xsputn@?$basic_streambuf@DU?$char_traits@D@std@@@std@@MEAA_JPEBD_J@Z 0000000180011220 f i stack_trace.obj
 0001:000102f0       ?xsgetn@?$basic_streambuf@DU?$char_traits@D@std@@@std@@MEAA_JPEAD_J@Z 00000001800112f0 f i stack_trace.obj
 0001:000103b0       ?uflow@?$basic_streambuf@DU?$char_traits@D@std@@@std@@MEAAHXZ 00000001800113b0 f i stack_trace.obj
 0001:000103f0       ?pbackfail@?$basic_streambuf@DU?$char_traits@D@std@@@std@@MEAAHH@Z 00000001800113f0 f i stack_trace.obj
 0001:000103f0       ?overflow@?$basic_streambuf@DU?$char_traits@D@std@@@std@@MEAAHH@Z 00000001800113f0 f i stack_trace.obj
 0001:000103f0       ?GetVirtualProcessorId@ExternalContextBase@details@Concurrency@@UEBAIXZ 00000001800113f0 f i libconcrt:ExternalContextBase.obj
 0001:000103f0       ?underflow@?$basic_streambuf@DU?$char_traits@D@std@@@std@@MEAAHXZ 00000001800113f0 f i stack_trace.obj
 0001:00010400       ??1?$basic_streambuf@DU?$char_traits@D@std@@@std@@UEAA@XZ 0000000180011400 f i stack_trace.obj
 0001:00010460       ??1?$basic_ios@DU?$char_traits@D@std@@@std@@UEAA@XZ 0000000180011460 f i stack_trace.obj
 0001:00010490       ??_E?$basic_stringstream@DU?$char_traits@D@std@@V?$allocator@D@2@@std@@UEAAPEAXI@Z 0000000180011490 f i * CIL library *:* CIL module *
 0001:00010490       ??_G?$basic_stringstream@DU?$char_traits@D@std@@V?$allocator@D@2@@std@@UEAAPEAXI@Z 0000000180011490 f i stack_trace.obj
 0001:000104d0       ??_E?$basic_stringbuf@DU?$char_traits@D@std@@V?$allocator@D@2@@std@@UEAAPEAXI@Z 00000001800114d0 f i * CIL library *:* CIL module *
 0001:000104d0       ??_G?$basic_stringbuf@DU?$char_traits@D@std@@V?$allocator@D@2@@std@@UEAAPEAXI@Z 00000001800114d0 f i stack_trace.obj
 0001:00010510       ??_E?$basic_iostream@DU?$char_traits@D@std@@@std@@UEAAPEAXI@Z 0000000180011510 f i * CIL library *:* CIL module *
 0001:00010510       ??_G?$basic_iostream@DU?$char_traits@D@std@@@std@@UEAAPEAXI@Z 0000000180011510 f i stack_trace.obj
 0001:000105d0       ??_G?$basic_ostream@DU?$char_traits@D@std@@@std@@UEAAPEAXI@Z 00000001800115d0 f i stack_trace.obj
 0001:000105d0       ??_E?$basic_ostream@DU?$char_traits@D@std@@@std@@UEAAPEAXI@Z 00000001800115d0 f i * CIL library *:* CIL module *
 0001:00010640       ??_E?$basic_istream@DU?$char_traits@D@std@@@std@@UEAAPEAXI@Z 0000000180011640 f i * CIL library *:* CIL module *
 0001:00010640       ??_G?$basic_istream@DU?$char_traits@D@std@@@std@@UEAAPEAXI@Z 0000000180011640 f i stack_trace.obj
 0001:000106b0       ??_E?$basic_streambuf@DU?$char_traits@D@std@@@std@@UEAAPEAXI@Z 00000001800116b0 f i * CIL library *:* CIL module *
 0001:000106b0       ??_G?$basic_streambuf@DU?$char_traits@D@std@@@std@@UEAAPEAXI@Z 00000001800116b0 f i stack_trace.obj
 0001:00010740       ??_Glocale@std@@QEAAPEAXI@Z 0000000180011740 f i stack_trace.obj
 0001:000107a0       ??_E?$basic_ios@DU?$char_traits@D@std@@@std@@UEAAPEAXI@Z 00000001800117a0 f i * CIL library *:* CIL module *
 0001:000107a0       ??_G?$basic_ios@DU?$char_traits@D@std@@@std@@UEAAPEAXI@Z 00000001800117a0 f i stack_trace.obj
 0001:000107f0       ??1sentry@?$basic_ostream@DU?$char_traits@D@std@@@std@@QEAA@XZ 00000001800117f0 f i stack_trace.obj
 0001:00010870       ??0sentry@?$basic_ostream@DU?$char_traits@D@std@@@std@@QEAA@AEAV12@@Z 0000000180011870 f i stack_trace.obj
 0001:000109c0       ?do_put@?$num_put@DV?$ostreambuf_iterator@DU?$char_traits@D@std@@@std@@@std@@MEBA?AV?$ostreambuf_iterator@DU?$char_traits@D@std@@@2@V32@AEAVios_base@2@DPEBX@Z 00000001800119c0 f i stack_trace.obj
 0001:00010a60       ?do_put@?$num_put@DV?$ostreambuf_iterator@DU?$char_traits@D@std@@@std@@@std@@MEBA?AV?$ostreambuf_iterator@DU?$char_traits@D@std@@@2@V32@AEAVios_base@2@DO@Z 0000000180011a60 f i stack_trace.obj
 0001:00010ce0       ?do_put@?$num_put@DV?$ostreambuf_iterator@DU?$char_traits@D@std@@@std@@@std@@MEBA?AV?$ostreambuf_iterator@DU?$char_traits@D@std@@@2@V32@AEAVios_base@2@DN@Z 0000000180011ce0 f i stack_trace.obj
 0001:00010f60       ?do_put@?$num_put@DV?$ostreambuf_iterator@DU?$char_traits@D@std@@@std@@@std@@MEBA?AV?$ostreambuf_iterator@DU?$char_traits@D@std@@@2@V32@AEAVios_base@2@D_K@Z 0000000180011f60 f i stack_trace.obj
 0001:00011080       ?do_put@?$num_put@DV?$ostreambuf_iterator@DU?$char_traits@D@std@@@std@@@std@@MEBA?AV?$ostreambuf_iterator@DU?$char_traits@D@std@@@2@V32@AEAVios_base@2@D_J@Z 0000000180012080 f i stack_trace.obj
 0001:000111a0       ?do_put@?$num_put@DV?$ostreambuf_iterator@DU?$char_traits@D@std@@@std@@@std@@MEBA?AV?$ostreambuf_iterator@DU?$char_traits@D@std@@@2@V32@AEAVios_base@2@DK@Z 00000001800121a0 f i stack_trace.obj
 0001:000112c0       ?do_put@?$num_put@DV?$ostreambuf_iterator@DU?$char_traits@D@std@@@std@@@std@@MEBA?AV?$ostreambuf_iterator@DU?$char_traits@D@std@@@2@V32@AEAVios_base@2@DJ@Z 00000001800122c0 f i stack_trace.obj
 0001:000113e0       ?do_put@?$num_put@DV?$ostreambuf_iterator@DU?$char_traits@D@std@@@std@@@std@@MEBA?AV?$ostreambuf_iterator@DU?$char_traits@D@std@@@2@V32@AEAVios_base@2@D_N@Z 00000001800123e0 f i stack_trace.obj
 0001:000116c0       ?_Change_array@?$vector@V?$unique_ptr@V?$Eternal@VData@v8@@@v8@@U?$default_delete@V?$Eternal@VData@v8@@@v8@@@std@@@std@@V?$allocator@V?$unique_ptr@V?$Eternal@VData@v8@@@v8@@U?$default_delete@V?$Eternal@VData@v8@@@v8@@@std@@@std@@@2@@std@@AEAAXQEAV?$unique_ptr@V?$Eternal@VData@v8@@@v8@@U?$default_delete@V?$Eternal@VData@v8@@@v8@@@std@@@2@_K1@Z 00000001800126c0 f i stack_trace.obj
 0001:000117b0       ?reserve@?$vector@V?$unique_ptr@V?$Eternal@VData@v8@@@v8@@U?$default_delete@V?$Eternal@VData@v8@@@v8@@@std@@@std@@V?$allocator@V?$unique_ptr@V?$Eternal@VData@v8@@@v8@@U?$default_delete@V?$Eternal@VData@v8@@@v8@@@std@@@std@@@2@@std@@QEAAX_K@Z 00000001800127b0 f i stack_trace.obj
 0001:000118e0       ?assign@?$basic_string@DU?$char_traits@D@std@@V?$allocator@D@2@@std@@QEAAAEAV12@_KD@Z 00000001800128e0 f i stack_trace.obj
 0001:00011a50       ??0?$basic_iostream@DU?$char_traits@D@std@@@std@@QEAA@PEAV?$basic_streambuf@DU?$char_traits@D@std@@@1@@Z 0000000180012a50 f i stack_trace.obj
 0001:00011bd0       ??_G?$num_put@DV?$ostreambuf_iterator@DU?$char_traits@D@std@@@std@@@std@@MEAAPEAXI@Z 0000000180012bd0 f i stack_trace.obj
 0001:00011bd0       ??_E?$num_put@DV?$ostreambuf_iterator@DU?$char_traits@D@std@@@std@@@std@@MEAAPEAXI@Z 0000000180012bd0 f i * CIL library *:* CIL module *
 0001:00011c00       ?do_truename@?$numpunct@D@std@@MEBA?AV?$basic_string@DU?$char_traits@D@std@@V?$allocator@D@2@@2@XZ 0000000180012c00 f i stack_trace.obj
 0001:00011c40       ?do_falsename@?$numpunct@D@std@@MEBA?AV?$basic_string@DU?$char_traits@D@std@@V?$allocator@D@2@@2@XZ 0000000180012c40 f i stack_trace.obj
 0001:00011c80       ?do_grouping@?$numpunct@D@std@@MEBA?AV?$basic_string@DU?$char_traits@D@std@@V?$allocator@D@2@@2@XZ 0000000180012c80 f i stack_trace.obj
 0001:00011cc0       ?do_thousands_sep@?$numpunct@D@std@@MEBADXZ 0000000180012cc0 f i stack_trace.obj
 0001:00011cd0       ?do_decimal_point@?$numpunct@D@std@@MEBADXZ 0000000180012cd0 f i stack_trace.obj
 0001:00011ce0       ??1_Sentry_base@?$basic_ostream@DU?$char_traits@D@std@@@std@@QEAA@XZ 0000000180012ce0 f i stack_trace.obj
 0001:00011d10       ?_Iput@?$num_put@DV?$ostreambuf_iterator@DU?$char_traits@D@std@@@std@@@std@@AEBA?AV?$ostreambuf_iterator@DU?$char_traits@D@std@@@2@V32@AEAVios_base@2@DPEAD_K@Z 0000000180012d10 f i stack_trace.obj
 0001:00012330       ?_Fput@?$num_put@DV?$ostreambuf_iterator@DU?$char_traits@D@std@@@std@@@std@@AEBA?AV?$ostreambuf_iterator@DU?$char_traits@D@std@@@2@V32@AEAVios_base@2@DPEBD_K@Z 0000000180013330 f i stack_trace.obj
 0001:000129c0       ??_G?$numpunct@D@std@@MEAAPEAXI@Z 00000001800139c0 f i stack_trace.obj
 0001:000129c0       ??_E?$numpunct@D@std@@MEAAPEAXI@Z 00000001800139c0 f i * CIL library *:* CIL module *
 0001:00012a20       ?_Xran@?$_String_val@U?$_Simple_types@D@std@@@std@@SAXXZ 0000000180013a20 f i stack_trace.obj
 0001:00012a40       ??$use_facet@V?$ctype@D@std@@@std@@YAAEBV?$ctype@D@0@AEBVlocale@0@@Z 0000000180013a40 f i stack_trace.obj
 0001:00012bc0       ??$?HDU?$char_traits@D@std@@V?$allocator@D@1@@std@@YA?AV?$basic_string@DU?$char_traits@D@std@@V?$allocator@D@2@@0@$$QEAV10@QEBD@Z 0000000180013bc0 f i stack_trace.obj
 0001:00012c90       ??$Unmaybe@_N@ivm@@YA_NV?$Maybe@_N@v8@@@Z 0000000180013c90 f i stack_trace.obj
 0001:00012cd0       ??$MakeClass@$$V@ClassHandle@ivm@@KA?AV?$Local@VFunctionTemplate@v8@@@v8@@PEBDUCtorFunction@01@@Z 0000000180013cd0 f i stack_trace.obj
 0001:00012e10       ??$NewInstance@VStackTraceHolder@ivm@@AEAV?$Local@VStackTrace@v8@@@v8@@@ClassHandle@ivm@@SA?AV?$Local@VObject@v8@@@v8@@AEAV?$Local@VStackTrace@v8@@@3@@Z 0000000180013e10 f i stack_trace.obj
 0001:00012f20       ??$?6U?$char_traits@D@std@@@std@@YAAEAV?$basic_ostream@DU?$char_traits@D@std@@@0@AEAV10@PEBD@Z 0000000180013f20 f i stack_trace.obj
 0001:00013140       ??$use_facet@V?$numpunct@D@std@@@std@@YAAEBV?$numpunct@D@0@AEBVlocale@0@@Z 0000000180014140 f i stack_trace.obj
 0001:000135a0       ?_Getcat@?$numpunct@D@std@@SA_KPEAPEBVfacet@locale@2@PEBV42@@Z 00000001800145a0 f i stack_trace.obj
 0001:00013740       ??$_Immortalize_impl@V_Iostream_error_category@std@@@std@@YAHPEAX0PEAPEAX@Z 0000000180014740 f i stack_trace.obj
 0001:00013760       ??$WeakCallback@VClassHandle@ivm@@$1?012@CAXPEAV12@@Z@ClassHandle@ivm@@CAXAEBV?$WeakCallbackInfo@VClassHandle@ivm@@@v8@@@Z 0000000180014760 f i stack_trace.obj
 0001:000137b0       ??$GetFunctionTemplate@VStackTraceHolder@ivm@@@ClassHandle@ivm@@SA?AV?$Local@VFunctionTemplate@v8@@@v8@@XZ 00000001800147b0 f i stack_trace.obj
 0001:000138b0       ?Set@?$IsolateSpecific@VFunctionTemplate@v8@@@IsolateEnvironment@ivm@@QEAAXV?$Local@VFunctionTemplate@v8@@@v8@@@Z 00000001800148b0 f i stack_trace.obj
 0001:000139ec       ??_E?$basic_ostream@DU?$char_traits@D@std@@@std@@$4PPPPPPPM@A@EAAPEAXI@Z 00000001800149ec f i stack_trace.obj
 0001:000139f8       ??_E?$basic_stringstream@DU?$char_traits@D@std@@V?$allocator@D@2@@std@@$4PPPPPPPM@A@EAAPEAXI@Z 00000001800149f8 f i stack_trace.obj
 0001:00013a04       ??_E?$basic_istream@DU?$char_traits@D@std@@@std@@$4PPPPPPPM@A@EAAPEAXI@Z 0000000180014a04 f i stack_trace.obj
 0001:00013a10       ??_E?$basic_iostream@DU?$char_traits@D@std@@@std@@$4PPPPPPPM@A@EAAPEAXI@Z 0000000180014a10 f i stack_trace.obj
 0001:00013a20       ??0CalleeInfo@ThreePhaseTask@ivm@@QEAA@V?$Local@VResolver@Promise@v8@@@v8@@V?$Local@VContext@v8@@@4@V?$Local@VStackTrace@v8@@@4@@Z 0000000180014a20 f   three_phase_task.obj
 0001:00013c80       ??0Phase2Runner@ThreePhaseTask@ivm@@QEAA@V?$unique_ptr@VThreePhaseTask@ivm@@U?$default_delete@VThreePhaseTask@ivm@@@std@@@std@@V?$unique_ptr@UCalleeInfo@ThreePhaseTask@ivm@@U?$default_delete@UCalleeInfo@ThreePhaseTask@ivm@@@std@@@4@@Z 0000000180014c80 f   three_phase_task.obj
 0001:00013cf0       ??_GPhase2Runner@ThreePhaseTask@ivm@@UEAAPEAXI@Z 0000000180014cf0 f i three_phase_task.obj
 0001:00013cf0       ??_EPhase2Runner@ThreePhaseTask@ivm@@UEAAPEAXI@Z 0000000180014cf0 f i * CIL library *:* CIL module *
 0001:00014020       ??_EPhase3Success@?1??Run@Phase2Runner@ThreePhaseTask@ivm@@UEAAXXZ@UEAAPEAXI@Z 0000000180015020 f i * CIL library *:* CIL module *
 0001:00014020       ??_EPhase3Orphan@?4???1Phase2Runner@ThreePhaseTask@ivm@@UEAA@XZ@UEAAPEAXI@Z 0000000180015020 f i * CIL library *:* CIL module *
 0001:00014020       ??_GPhase3Success@?1??Run@Phase2Runner@ThreePhaseTask@ivm@@UEAAXXZ@UEAAPEAXI@Z 0000000180015020 f i three_phase_task.obj
 0001:00014020       ??_GPhase3Orphan@?4???1Phase2Runner@ThreePhaseTask@ivm@@UEAA@XZ@UEAAPEAXI@Z 0000000180015020 f i three_phase_task.obj
 0001:00014080       ??1CallbackScope@ivm@@QEAA@XZ 0000000180015080 f i three_phase_task.obj
 0001:00014080       ??1?$unique_ptr@VCallbackScope@node@@U?$default_delete@VCallbackScope@node@@@std@@@std@@QEAA@XZ 0000000180015080 f i three_phase_task.obj
 0001:000140b0       ?Run@Phase2Runner@ThreePhaseTask@ivm@@UEAAXXZ 00000001800150b0 f   three_phase_task.obj
 0001:000146b0       ??_GPhase3Failure@?1??Run@Phase2Runner@ThreePhaseTask@ivm@@UEAAXXZ@UEAAPEAXI@Z 00000001800156b0 f i three_phase_task.obj
 0001:000146b0       ??_EPhase3Failure@?1??Run@Phase2Runner@ThreePhaseTask@ivm@@UEAAXXZ@UEAAPEAXI@Z 00000001800156b0 f i * CIL library *:* CIL module *
 0001:00014720       ?Run@Phase2RunnerIgnored@ThreePhaseTask@ivm@@UEAAXXZ 0000000180015720 f   three_phase_task.obj
 0001:00014790       ?RunSync@ThreePhaseTask@ivm@@AEAA?AV?$Local@VValue@v8@@@v8@@AEAVIsolateHolder@2@_N@Z 0000000180015790 f   three_phase_task.obj
 0001:00014f90       ??_GAsyncRunner@?CB@??RunSync@ThreePhaseTask@ivm@@AEAA?AV?$Local@VValue@v8@@@v8@@AEAVIsolateHolder@3@_N@Z@UEAAPEAXI@Z 0000000180015f90 f i three_phase_task.obj
 0001:00014f90       ??_EAsyncRunner@?CB@??RunSync@ThreePhaseTask@ivm@@AEAA?AV?$Local@VValue@v8@@@v8@@AEAVIsolateHolder@3@_N@Z@UEAAPEAXI@Z 0000000180015f90 f i * CIL library *:* CIL module *
 0001:000150c0       ??1?$unique_ptr@UCalleeInfo@ThreePhaseTask@ivm@@U?$default_delete@UCalleeInfo@ThreePhaseTask@ivm@@@std@@@std@@QEAA@XZ 00000001800160c0 f i three_phase_task.obj
 0001:00015140       ??1?$RemoteTuple@VResolver@Promise@v8@@VContext@3@VStackTrace@3@@ivm@@QEAA@XZ 0000000180016140 f i three_phase_task.obj
 0001:00015230       ?Run@DisposalTask@?$RemoteTuple@VResolver@Promise@v8@@VContext@3@VStackTrace@3@@ivm@@UEAAXXZ 0000000180016230 f i three_phase_task.obj
 0001:000152c0       ??1?$unique_ptr@V?$Persistent@VContext@v8@@V?$NonCopyablePersistentTraits@VContext@v8@@@2@@v8@@U?$default_delete@V?$Persistent@VContext@v8@@V?$NonCopyablePersistentTraits@VContext@v8@@@2@@v8@@@std@@@std@@QEAA@XZ 00000001800162c0 f i three_phase_task.obj
 0001:000152c0       ??1?$unique_ptr@V?$Persistent@VFunction@v8@@V?$NonCopyablePersistentTraits@VFunction@v8@@@2@@v8@@U?$default_delete@V?$Persistent@VFunction@v8@@V?$NonCopyablePersistentTraits@VFunction@v8@@@2@@v8@@@std@@@std@@QEAA@XZ 00000001800162c0 f i module_handle.obj
 0001:000152c0       ??1?$unique_ptr@V?$Persistent@VStackTrace@v8@@V?$NonCopyablePersistentTraits@VStackTrace@v8@@@2@@v8@@U?$default_delete@V?$Persistent@VStackTrace@v8@@V?$NonCopyablePersistentTraits@VStackTrace@v8@@@2@@v8@@@std@@@std@@QEAA@XZ 00000001800162c0 f i three_phase_task.obj
 0001:00015650       ??_GDisposalTask@?$RemoteTuple@VResolver@Promise@v8@@VContext@3@VStackTrace@3@@ivm@@UEAAPEAXI@Z 0000000180016650 f i three_phase_task.obj
 0001:00015650       ??_EDisposalTask@?$RemoteTuple@VResolver@Promise@v8@@VContext@3@VStackTrace@3@@ivm@@UEAAPEAXI@Z 0000000180016650 f i * CIL library *:* CIL module *
 0001:000156d0       ?to_string@std@@YA?AV?$basic_string@DU?$char_traits@D@std@@V?$allocator@D@2@@1@H@Z 00000001800166d0 f i context_handle.obj
 0001:000157b0       ?CalleeName@ivm@@YA?AV?$basic_string@DU?$char_traits@D@std@@V?$allocator@D@2@@std@@AEBV?$PropertyCallbackInfo@X@v8@@@Z 00000001800167b0 f i context_handle.obj
 0001:000157b0       ?CalleeName@ivm@@YA?AV?$basic_string@DU?$char_traits@D@std@@V?$allocator@D@2@@std@@AEBV?$PropertyCallbackInfo@VValue@v8@@@v8@@@Z 00000001800167b0 f i context_handle.obj
 0001:00015950       ??0param_incorrect@ivm@@QEAA@PEBD@Z 0000000180016950 f i context_handle.obj
 0001:00015970       ??_Eparam_incorrect@ivm@@UEAAPEAXI@Z 0000000180016970 f i * CIL library *:* CIL module *
 0001:00015970       ??_Gparam_incorrect@ivm@@UEAAPEAXI@Z 0000000180016970 f i context_handle.obj
 0001:000159a0       ??0param_required@ivm@@QEAA@XZ 00000001800169a0 f i context_handle.obj
 0001:000159c0       ??0param_required@ivm@@QEAA@AEBU01@@Z 00000001800169c0 f i context_handle.obj
 0001:000159e0       ??0param_incorrect@ivm@@QEAA@AEBU01@@Z 00000001800169e0 f i context_handle.obj
 0001:00015a10       ??_EContextHandleTransferable@ContextHandle@ivm@@UEAAPEAXI@Z 0000000180016a10 f i * CIL library *:* CIL module *
 0001:00015a10       ??_GContextHandleTransferable@ContextHandle@ivm@@UEAAPEAXI@Z 0000000180016a10 f i context_handle.obj
 0001:00015a10       ??_EDereferenceHandleTransferable@DereferenceHandle@ivm@@UEAAPEAXI@Z 0000000180016a10 f i * CIL library *:* CIL module *
 0001:00015a10       ??_GDereferenceHandleTransferable@DereferenceHandle@ivm@@UEAAPEAXI@Z 0000000180016a10 f i reference_handle.obj
 0001:00015ad0       ?TransferIn@ContextHandleTransferable@ContextHandle@ivm@@UEAA?AV?$Local@VValue@v8@@@v8@@XZ 0000000180016ad0 f   context_handle.obj
 0001:00015c10       ??0ContextHandle@ivm@@QEAA@V?$shared_ptr@V?$RemoteHandle@VContext@v8@@@ivm@@@std@@V?$shared_ptr@V?$RemoteHandle@VValue@v8@@@ivm@@@3@@Z 0000000180016c10 f   context_handle.obj
 0001:00015d10       ??_GContextHandle@ivm@@UEAAPEAXI@Z 0000000180016d10 f i context_handle.obj
 0001:00015d10       ??_EContextHandle@ivm@@UEAAPEAXI@Z 0000000180016d10 f i * CIL library *:* CIL module *
 0001:00015e20       ??1TransferableHandle@ivm@@UEAA@XZ 0000000180016e20 f i context_handle.obj
 0001:00015e70       ?TransferOut@ContextHandle@ivm@@UEAA?AV?$unique_ptr@VTransferable@ivm@@U?$default_delete@VTransferable@ivm@@@std@@@std@@XZ 0000000180016e70 f   context_handle.obj
 0001:00015f10       ?CheckDisposed@ContextHandle@ivm@@QEAAXXZ 0000000180016f10 f   context_handle.obj
 0001:00015f80       ?GlobalReference@ContextHandle@ivm@@QEAA?AV?$Local@VValue@v8@@@v8@@XZ 0000000180016f80 f   context_handle.obj
 0001:00016050       ?GlobalGetter@ContextHandle@ivm@@QEAA?AV?$Local@VValue@v8@@@v8@@XZ 0000000180017050 f   context_handle.obj
 0001:000162c0       ?GlobalSetter@ContextHandle@ivm@@QEAAXV?$Local@VValue@v8@@@v8@@@Z 00000001800172c0 f   context_handle.obj
 0001:000163d0       ?Release@ContextHandle@ivm@@QEAA?AV?$Local@VValue@v8@@@v8@@XZ 00000001800173d0 f   context_handle.obj
 0001:000165b0       ??1?$RemoteHandle@VObject@v8@@@ivm@@QEAA@XZ 00000001800175b0 f i context_handle.obj
 0001:000165c0       ??1?$RemoteTuple@VObject@v8@@@ivm@@QEAA@XZ 00000001800175c0 f i context_handle.obj
 0001:00016670       ?Run@DisposalTask@?$RemoteTuple@VModule@v8@@@ivm@@UEAAXXZ 0000000180017670 f i module_handle.obj
 0001:00016670       ?Run@DisposalTask@?$RemoteTuple@VValue@v8@@@ivm@@UEAAXXZ 0000000180017670 f i isolate_handle.obj
 0001:00016670       ?Run@DisposalTask@?$RemoteTuple@VContext@v8@@@ivm@@UEAAXXZ 0000000180017670 f i isolate_handle.obj
 0001:00016670       ?Run@DisposalTask@?$RemoteTuple@VFunction@v8@@@ivm@@UEAAXXZ 0000000180017670 f i module_handle.obj
 0001:00016670       ?Run@DisposalTask@?$RemoteTuple@VUnboundScript@v8@@@ivm@@UEAAXXZ 0000000180017670 f i isolate_handle.obj
 0001:00016670       ?Run@DisposalTask@?$RemoteTuple@VObject@v8@@@ivm@@UEAAXXZ 0000000180017670 f i context_handle.obj
 0001:000166c0       ??$MakeClass@PEBDU?$pair@P6AXAEBV?$FunctionCallbackInfo@VValue@v8@@@v8@@@ZH@std@@PEBDU?$pair@P6AXV?$Local@VString@v8@@@v8@@AEBV?$PropertyCallbackInfo@VValue@v8@@@2@@ZP6AX0V?$Local@VValue@v8@@@2@AEBV?$PropertyCallbackInfo@X@2@@Z@2@PEBDU12@@ClassHandle@ivm@@KA?AV?$Local@VFunctionTemplate@v8@@@v8@@PEBDUCtorFunction@01@0U?$pair@P6AXAEBV?$FunctionCallbackInfo@VValue@v8@@@v8@@@ZH@std@@0U?$pair@P6AXV?$Local@VString@v8@@@v8@@AEBV?$PropertyCallbackInfo@VValue@v8@@@2@@ZP6AX0V?$Local@VValue@v8@@@2@AEBV?$PropertyCallbackInfo@X@2@@Z@6@02@Z 00000001800176c0 f i context_handle.obj
 0001:000169c0       ??$NewInstance@VReferenceHandle@ivm@@V?$shared_ptr@VIsolateHolder@ivm@@@std@@AEAV?$shared_ptr@V?$RemoteHandle@VValue@v8@@@ivm@@@4@AEAV?$shared_ptr@V?$RemoteHandle@VContext@v8@@@ivm@@@4@W4TypeOf@12@@ClassHandle@ivm@@SA?AV?$Local@VObject@v8@@@v8@@$$QEAV?$shared_ptr@VIsolateHolder@ivm@@@std@@AEAV?$shared_ptr@V?$RemoteHandle@VValue@v8@@@ivm@@@5@AEAV?$shared_ptr@V?$RemoteHandle@VContext@v8@@@ivm@@@5@$$QEAW4TypeOf@ReferenceHandle@1@@Z 00000001800179c0 f i context_handle.obj
 0001:00016b20       ??0?$RemoteHandle@VFunction@v8@@@ivm@@QEAA@V?$Local@VFunction@v8@@@v8@@@Z 0000000180017b20 f i module_handle.obj
 0001:00016b20       ??0?$RemoteHandle@VValue@v8@@@ivm@@QEAA@V?$Local@VValue@v8@@@v8@@@Z 0000000180017b20 f i isolate_handle.obj
 0001:00016b20       ??0?$RemoteHandle@VObject@v8@@@ivm@@QEAA@V?$Local@VObject@v8@@@v8@@@Z 0000000180017b20 f i context_handle.obj
 0001:00016b20       ??0?$RemoteHandle@VContext@v8@@@ivm@@QEAA@V?$Local@VContext@v8@@@v8@@@Z 0000000180017b20 f i isolate_handle.obj
 0001:00016c00       ??_GDisposalTask@?$RemoteTuple@VValue@v8@@@ivm@@UEAAPEAXI@Z 0000000180017c00 f i isolate_handle.obj
 0001:00016c00       ??_GDisposalTask@?$RemoteTuple@VObject@v8@@@ivm@@UEAAPEAXI@Z 0000000180017c00 f i context_handle.obj
 0001:00016c00       ??_EDisposalTask@?$RemoteTuple@VObject@v8@@@ivm@@UEAAPEAXI@Z 0000000180017c00 f i * CIL library *:* CIL module *
 0001:00016c00       ??_GDisposalTask@?$RemoteTuple@VModule@v8@@@ivm@@UEAAPEAXI@Z 0000000180017c00 f i module_handle.obj
 0001:00016c00       ??_GDisposalTask@?$RemoteTuple@VFunction@v8@@@ivm@@UEAAPEAXI@Z 0000000180017c00 f i module_handle.obj
 0001:00016c00       ??_EDisposalTask@?$RemoteTuple@VUnboundScript@v8@@@ivm@@UEAAPEAXI@Z 0000000180017c00 f i * CIL library *:* CIL module *
 0001:00016c00       ??_EDisposalTask@?$RemoteTuple@VFunction@v8@@@ivm@@UEAAPEAXI@Z 0000000180017c00 f i * CIL library *:* CIL module *
 0001:00016c00       ??_GDisposalTask@?$RemoteTuple@VContext@v8@@@ivm@@UEAAPEAXI@Z 0000000180017c00 f i isolate_handle.obj
 0001:00016c00       ??_EDisposalTask@?$RemoteTuple@VModule@v8@@@ivm@@UEAAPEAXI@Z 0000000180017c00 f i * CIL library *:* CIL module *
 0001:00016c00       ??_EDisposalTask@?$RemoteTuple@VValue@v8@@@ivm@@UEAAPEAXI@Z 0000000180017c00 f i * CIL library *:* CIL module *
 0001:00016c00       ??_EDisposalTask@?$RemoteTuple@VContext@v8@@@ivm@@UEAAPEAXI@Z 0000000180017c00 f i * CIL library *:* CIL module *
 0001:00016c00       ??_GDisposalTask@?$RemoteTuple@VUnboundScript@v8@@@ivm@@UEAAPEAXI@Z 0000000180017c00 f i isolate_handle.obj
 0001:00016c50       ??$GetFunctionTemplate@VContextHandle@ivm@@@ClassHandle@ivm@@SA?AV?$Local@VFunctionTemplate@v8@@@v8@@XZ 0000000180017c50 f i context_handle.obj
 0001:00016e00       ??$Invoke@$1?GlobalReference@ContextHandle@ivm@@QEAA?AV?$Local@VValue@v8@@@v8@@XZ@?$MethodCast@P8ContextHandle@ivm@@EAA?AV?$Local@VValue@v8@@@v8@@XZ@ClassHandle@ivm@@SA?AV?$Local@VValue@v8@@@v8@@PEAVContextHandle@2@@Z 0000000180017e00 f i context_handle.obj
 0001:00016e30       ??$ParameterizeEntry@$0?0P6A?AV?$Local@VValue@v8@@@v8@@PEAVContextHandle@ivm@@@Z$1??$Invoke@$1?GlobalReference@ContextHandle@ivm@@QEAA?AV?$Local@VValue@v8@@@v8@@XZ@?$MethodCast@P8ContextHandle@ivm@@EAA?AV?$Local@VValue@v8@@@v8@@XZ@ClassHandle@4@SA?AV12@0@Z@ClassHandle@ivm@@CAXAEBV?$FunctionCallbackInfo@VValue@v8@@@v8@@@Z 0000000180017e30 f i context_handle.obj
 0001:00016e40       ??$Invoke@$1?GlobalGetter@ContextHandle@ivm@@QEAA?AV?$Local@VValue@v8@@@v8@@XZ@?$MethodCast@P8ContextHandle@ivm@@EAA?AV?$Local@VValue@v8@@@v8@@XZ@ClassHandle@ivm@@SA?AV?$Local@VValue@v8@@@v8@@PEAVContextHandle@2@@Z 0000000180017e40 f i context_handle.obj
 0001:00016e70       ??$ParameterizeGetterEntry@P6A?AV?$Local@VValue@v8@@@v8@@PEAVContextHandle@ivm@@@Z$1??$Invoke@$1?GlobalGetter@ContextHandle@ivm@@QEAA?AV?$Local@VValue@v8@@@v8@@XZ@?$MethodCast@P8ContextHandle@ivm@@EAA?AV?$Local@VValue@v8@@@v8@@XZ@ClassHandle@4@SA?AV12@0@Z@ClassHandle@ivm@@CAXV?$Local@VString@v8@@@v8@@AEBV?$PropertyCallbackInfo@VValue@v8@@@3@@Z 0000000180017e70 f i context_handle.obj
 0001:00016e80       ??$Invoke@$1?GlobalSetter@ContextHandle@ivm@@QEAAXV?$Local@VValue@v8@@@v8@@@Z@?$MethodCast@P8ContextHandle@ivm@@EAAXV?$Local@VValue@v8@@@v8@@@Z@ClassHandle@ivm@@SAXPEAVContextHandle@2@V?$Local@VValue@v8@@@v8@@@Z 0000000180017e80 f i context_handle.obj
 0001:00016e90       ??$ParameterizeSetterEntry@P6AXPEAVContextHandle@ivm@@V?$Local@VValue@v8@@@v8@@@Z$1??$Invoke@$1?GlobalSetter@ContextHandle@ivm@@QEAAXV?$Local@VValue@v8@@@v8@@@Z@?$MethodCast@P8ContextHandle@ivm@@EAAXV?$Local@VValue@v8@@@v8@@@Z@ClassHandle@2@SAX01@Z@ClassHandle@ivm@@CAXV?$Local@VString@v8@@@v8@@V?$Local@VValue@v8@@@3@AEBV?$PropertyCallbackInfo@X@3@@Z 0000000180017e90 f i context_handle.obj
 0001:00016ed0       ??$Invoke@$1?Release@ContextHandle@ivm@@QEAA?AV?$Local@VValue@v8@@@v8@@XZ@?$MethodCast@P8ContextHandle@ivm@@EAA?AV?$Local@VValue@v8@@@v8@@XZ@ClassHandle@ivm@@SA?AV?$Local@VValue@v8@@@v8@@PEAVContextHandle@2@@Z 0000000180017ed0 f i context_handle.obj
 0001:00016f00       ??$ParameterizeEntry@$0?0P6A?AV?$Local@VValue@v8@@@v8@@PEAVContextHandle@ivm@@@Z$1??$Invoke@$1?Release@ContextHandle@ivm@@QEAA?AV?$Local@VValue@v8@@@v8@@XZ@?$MethodCast@P8ContextHandle@ivm@@EAA?AV?$Local@VValue@v8@@@v8@@XZ@ClassHandle@4@SA?AV12@0@Z@ClassHandle@ivm@@CAXAEBV?$FunctionCallbackInfo@VValue@v8@@@v8@@@Z 0000000180017f00 f i context_handle.obj
 0001:00016f10       ??$GetFunctionTemplate@VTransferableHandle@ivm@@@ClassHandle@ivm@@SA?AV?$Local@VFunctionTemplate@v8@@@v8@@XZ 0000000180017f10 f i context_handle.obj
 0001:00017010       ??$GetFunctionTemplate@VReferenceHandle@ivm@@@ClassHandle@ivm@@SA?AV?$Local@VFunctionTemplate@v8@@@v8@@XZ 0000000180018010 f i context_handle.obj
 0001:000175e0       ?Invoke@?$ConvertParamInvoke@U?$ConvertParam@PEAVContextHandle@ivm@@@ivm@@$0?0$0A@@ivm@@SAPEAVContextHandle@2@AEBV?$FunctionCallbackInfo@VValue@v8@@@v8@@@Z 00000001800185e0 f i context_handle.obj
 0001:00017630       ?Invoke@?$ConvertParamInvoke@U?$ConvertParam@PEAVContextHandle@ivm@@@ivm@@$0?0$0A@@ivm@@SAPEAVContextHandle@2@AEBV?$PropertyCallbackInfo@VValue@v8@@@v8@@@Z 0000000180018630 f i context_handle.obj
 0001:00017680       ?Invoke@?$ConvertParamInvoke@U?$ConvertParam@PEAVContextHandle@ivm@@@ivm@@$0?0$00@ivm@@SAPEAVContextHandle@2@U?$pair@PEAV?$Local@VValue@v8@@@v8@@PEBV?$PropertyCallbackInfo@X@2@@std@@@Z 0000000180018680 f i context_handle.obj
 0001:000176e0       ?Convert@?$ConvertParam@PEAVContextHandle@ivm@@@ivm@@SAPEAVContextHandle@2@V?$Local@VValue@v8@@@v8@@@Z 00000001800186e0 f i context_handle.obj
 0001:00017830       ??$?HDU?$char_traits@D@std@@V?$allocator@D@1@@std@@YA?AV?$basic_string@DU?$char_traits@D@std@@V?$allocator@D@2@@0@$$QEAV10@0@Z 0000000180018830 f i context_handle.obj
 0001:000179b0       ?Invoke@?$ConvertParamInvoke@U?$ConvertParam@V?$Local@VValue@v8@@@v8@@@ivm@@$0A@$00@ivm@@SA?AV?$Local@VValue@v8@@@v8@@U?$pair@PEAV?$Local@VValue@v8@@@v8@@PEBV?$PropertyCallbackInfo@X@2@@std@@@Z 00000001800189b0 f i context_handle.obj
 0001:00017ba0       ?Copy@ExternalCopy@ivm@@SA?AV?$unique_ptr@VExternalCopy@ivm@@U?$default_delete@VExternalCopy@ivm@@@std@@@std@@AEBV?$Local@VValue@v8@@@v8@@_NAEBV?$vector@V?$Local@VValue@v8@@@v8@@V?$allocator@V?$Local@VValue@v8@@@v8@@@std@@@4@@Z 0000000180018ba0 f   external_copy.obj
 0001:000187a0       ??1ExternalCopySerializerDelegate@ivm@@UEAA@XZ 00000001800197a0 f i external_copy.obj
 0001:000187b0       ??0?$js_error_ctor@$1?RangeError@Exception@v8@@SA?AV?$Local@VValue@v8@@@3@V?$Local@VString@v8@@@3@@Z@ivm@@QEAA@AEBV01@@Z 00000001800197b0 f i external_copy.obj
 0001:00018830       ?CopyIfPrimitive@ExternalCopy@ivm@@SA?AV?$unique_ptr@VExternalCopy@ivm@@U?$default_delete@VExternalCopy@ivm@@@std@@@std@@AEBV?$Local@VValue@v8@@@v8@@@Z 0000000180019830 f   external_copy.obj
 0001:00018a60       ?CopyIfPrimitiveOrError@ExternalCopy@ivm@@SA?AV?$unique_ptr@VExternalCopy@ivm@@U?$default_delete@VExternalCopy@ivm@@@std@@@std@@AEBV?$Local@VValue@v8@@@v8@@@Z 0000000180019a60 f   external_copy.obj
 0001:00018f70       ??_EExternalCopyNull@ivm@@UEAAPEAXI@Z 0000000180019f70 f i * CIL library *:* CIL module *
 0001:00018f70       ??_EExternalCopyUndefined@ivm@@UEAAPEAXI@Z 0000000180019f70 f i * CIL library *:* CIL module *
 0001:00018f70       ??_EExternalCopy@ivm@@UEAAPEAXI@Z 0000000180019f70 f i * CIL library *:* CIL module *
 0001:00018f70       ??_GExternalCopyUndefined@ivm@@UEAAPEAXI@Z 0000000180019f70 f i external_copy.obj
 0001:00018f70       ??_GExternalCopyNull@ivm@@UEAAPEAXI@Z 0000000180019f70 f i external_copy.obj
 0001:00018f70       ??_GExternalCopy@ivm@@UEAAPEAXI@Z 0000000180019f70 f i external_copy.obj
 0001:00018fb0       ??1ExternalCopy@ivm@@UEAA@XZ 0000000180019fb0 f   external_copy.obj
 0001:00018fb0       ??1ExternalCopyBytes@ivm@@UEAA@XZ 0000000180019fb0 f   external_copy.obj
 0001:00018fd0       ?CopyIntoCheckHeap@ExternalCopy@ivm@@QEAA?AV?$Local@VValue@v8@@@v8@@_N@Z 0000000180019fd0 f   external_copy.obj
 0001:000191b0       ?TransferIn@ExternalCopy@ivm@@UEAA?AV?$Local@VValue@v8@@@v8@@XZ 000000018001a1b0 f   external_copy.obj
 0001:000191d0       ??_EExternalString@ExternalCopyString@ivm@@UEAAPEAXI@Z 000000018001a1d0 f i * CIL library *:* CIL module *
 0001:000191d0       ??_GExternalString@ExternalCopyString@ivm@@UEAAPEAXI@Z 000000018001a1d0 f i external_copy.obj
 0001:000192a0       ?data@ExternalString@ExternalCopyString@ivm@@UEBAPEBGXZ 000000018001a2a0 f   external_copy.obj
 0001:000192a0       ?data@ExternalStringOneByte@ExternalCopyString@ivm@@UEBAPEBDXZ 000000018001a2a0 f   external_copy.obj
 0001:000192b0       ?length@ExternalString@ExternalCopyString@ivm@@UEBA_KXZ 000000018001a2b0 f   external_copy.obj
 0001:000192d0       ??_GExternalStringOneByte@ExternalCopyString@ivm@@UEAAPEAXI@Z 000000018001a2d0 f i external_copy.obj
 0001:000192d0       ??_EExternalStringOneByte@ExternalCopyString@ivm@@UEAAPEAXI@Z 000000018001a2d0 f i * CIL library *:* CIL module *
 0001:000193a0       ?length@ExternalStringOneByte@ExternalCopyString@ivm@@UEBA_KXZ 000000018001a3a0 f   external_copy.obj
 0001:000193b0       ??0ExternalCopyString@ivm@@QEAA@V?$Local@VString@v8@@@v8@@@Z 000000018001a3b0 f   external_copy.obj
 0001:00019640       ??_EExternalCopyString@ivm@@UEAAPEAXI@Z 000000018001a640 f i * CIL library *:* CIL module *
 0001:00019640       ??_GExternalCopyString@ivm@@UEAAPEAXI@Z 000000018001a640 f i external_copy.obj
 0001:000196f0       ??0ExternalCopyString@ivm@@QEAA@PEBD@Z 000000018001a6f0 f   external_copy.obj
 0001:000197d0       ?CopyInto@ExternalCopyString@ivm@@UEAA?AV?$Local@VValue@v8@@@v8@@_N@Z 000000018001a7d0 f   external_copy.obj
 0001:00019b10       ?WorstCaseHeapSize@ExternalCopyString@ivm@@UEBAIXZ 000000018001ab10 f   external_copy.obj
 0001:00019b20       ??0ExternalCopySerialized@ivm@@QEAA@U?$pair@PEAE_K@std@@V?$vector@V?$unique_ptr@VTransferable@ivm@@U?$default_delete@VTransferable@ivm@@@std@@@std@@V?$allocator@V?$unique_ptr@VTransferable@ivm@@U?$default_delete@VTransferable@ivm@@@std@@@std@@@2@@3@V?$vector@V?$unique_ptr@VExternalCopyArrayBuffer@ivm@@U?$default_delete@VExternalCopyArrayBuffer@ivm@@@std@@@std@@V?$allocator@V?$unique_ptr@VExternalCopyArrayBuffer@ivm@@U?$default_delete@VExternalCopyArrayBuffer@ivm@@@std@@@std@@@2@@3@V?$vector@V?$unique_ptr@VExternalCopySharedArrayBuffer@ivm@@U?$default_delete@VExternalCopySharedArrayBuffer@ivm@@@std@@@std@@V?$allocator@V?$unique_ptr@VExternalCopySharedArrayBuffer@ivm@@U?$default_delete@VExternalCopySharedArrayBuffer@ivm@@@std@@@std@@@2@@3@@Z 000000018001ab20 f   external_copy.obj
 0001:00019e40       ??_EExternalCopySerialized@ivm@@UEAAPEAXI@Z 000000018001ae40 f i * CIL library *:* CIL module *
 0001:00019e40       ??_GExternalCopySerialized@ivm@@UEAAPEAXI@Z 000000018001ae40 f i external_copy.obj
 0001:00019e80       ??1ExternalCopySerialized@ivm@@UEAA@XZ 000000018001ae80 f i external_copy.obj
 0001:0001a110       ?CopyInto@ExternalCopySerialized@ivm@@UEAA?AV?$Local@VValue@v8@@@v8@@_N@Z 000000018001b110 f   external_copy.obj
 0001:0001a3a0       ??1ExternalCopyDeserializerDelegate@ivm@@UEAA@XZ 000000018001b3a0 f i external_copy.obj
 0001:0001a3b0       ?WorstCaseHeapSize@ExternalCopySerialized@ivm@@UEBAIXZ 000000018001b3b0 f   external_copy.obj
 0001:0001a3c0       ??_GExternalCopyError@ivm@@UEAAPEAXI@Z 000000018001b3c0 f i external_copy.obj
 0001:0001a3c0       ??_EExternalCopyError@ivm@@UEAAPEAXI@Z 000000018001b3c0 f i * CIL library *:* CIL module *
 0001:0001a440       ??0ExternalCopyError@ivm@@QEAA@W4ErrorType@01@PEBDV?$basic_string@DU?$char_traits@D@std@@V?$allocator@D@2@@std@@@Z 000000018001b440 f   external_copy.obj
 0001:0001a650       ?CopyInto@ExternalCopyError@ivm@@UEAA?AV?$Local@VValue@v8@@@v8@@_N@Z 000000018001b650 f   external_copy.obj
 0001:0001a7e0       ?WorstCaseHeapSize@ExternalCopyError@ivm@@UEBAIXZ 000000018001b7e0 f   external_copy.obj
 0001:0001a820       ?CopyInto@ExternalCopyNull@ivm@@UEAA?AV?$Local@VValue@v8@@@v8@@_N@Z 000000018001b820 f   external_copy.obj
 0001:0001a840       ?WorstCaseHeapSize@ExternalCopyNull@ivm@@UEBAIXZ 000000018001b840 f   external_copy.obj
 0001:0001a840       ?WorstCaseHeapSize@ExternalCopyUndefined@ivm@@UEBAIXZ 000000018001b840 f   external_copy.obj
 0001:0001a850       ?CopyInto@ExternalCopyUndefined@ivm@@UEAA?AV?$Local@VValue@v8@@@v8@@_N@Z 000000018001b850 f   external_copy.obj
 0001:0001a870       ??_E?$ExternalCopyTemplate@VNumber@v8@@N@ivm@@UEAAPEAXI@Z 000000018001b870 f i * CIL library *:* CIL module *
 0001:0001a870       ??_E?$ExternalCopyTemplate@VInt32@v8@@H@ivm@@UEAAPEAXI@Z 000000018001b870 f i * CIL library *:* CIL module *
 0001:0001a870       ??_EExternalCopyDate@ivm@@UEAAPEAXI@Z 000000018001b870 f i * CIL library *:* CIL module *
 0001:0001a870       ??_G?$ExternalCopyTemplate@VNumber@v8@@N@ivm@@UEAAPEAXI@Z 000000018001b870 f i external_copy.obj
 0001:0001a870       ??_E?$ExternalCopyTemplate@VBoolean@v8@@_N@ivm@@UEAAPEAXI@Z 000000018001b870 f i * CIL library *:* CIL module *
 0001:0001a870       ??_E?$ExternalCopyTemplate@VUint32@v8@@I@ivm@@UEAAPEAXI@Z 000000018001b870 f i * CIL library *:* CIL module *
 0001:0001a870       ??_G?$ExternalCopyTemplate@VBoolean@v8@@_N@ivm@@UEAAPEAXI@Z 000000018001b870 f i external_copy.obj
 0001:0001a870       ??_GExternalCopyDate@ivm@@UEAAPEAXI@Z 000000018001b870 f i external_copy.obj
 0001:0001a870       ??_G?$ExternalCopyTemplate@VUint32@v8@@I@ivm@@UEAAPEAXI@Z 000000018001b870 f i external_copy.obj
 0001:0001a870       ??_G?$ExternalCopyTemplate@VInt32@v8@@H@ivm@@UEAAPEAXI@Z 000000018001b870 f i external_copy.obj
 0001:0001a8b0       ?CopyInto@ExternalCopyDate@ivm@@UEAA?AV?$Local@VValue@v8@@@v8@@_N@Z 000000018001b8b0 f   external_copy.obj
 0001:0001a940       ?WorstCaseHeapSize@ExternalCopyDate@ivm@@UEBAIXZ 000000018001b940 f   external_copy.obj
 0001:0001a950       ??0Holder@ExternalCopyBytes@ivm@@QEAA@AEBV?$Local@VObject@v8@@@v8@@V?$shared_ptr@X@std@@_K@Z 000000018001b950 f   external_copy.obj
 0001:0001aa90       ?WeakCallbackV8@Holder@ExternalCopyBytes@ivm@@SAXAEBV?$WeakCallbackInfo@X@v8@@@Z 000000018001ba90 f   external_copy.obj
 0001:0001aaa0       ?WeakCallback@Holder@ExternalCopyBytes@ivm@@SAXPEAX@Z 000000018001baa0 f   external_copy.obj
 0001:0001ab70       ??0ExternalCopyArrayBuffer@ivm@@QEAA@PEBX_K@Z 000000018001bb70 f   external_copy.obj
 0001:0001ac50       ??_GExternalCopySharedArrayBuffer@ivm@@UEAAPEAXI@Z 000000018001bc50 f i external_copy.obj
 0001:0001ac50       ??_EExternalCopySharedArrayBuffer@ivm@@UEAAPEAXI@Z 000000018001bc50 f i * CIL library *:* CIL module *
 0001:0001ac50       ??_EExternalCopyArrayBuffer@ivm@@UEAAPEAXI@Z 000000018001bc50 f i * CIL library *:* CIL module *
 0001:0001ac50       ??_GExternalCopyArrayBuffer@ivm@@UEAAPEAXI@Z 000000018001bc50 f i external_copy.obj
 0001:0001ad00       ?Transfer@ExternalCopyArrayBuffer@ivm@@SA?AV?$unique_ptr@VExternalCopyArrayBuffer@ivm@@U?$default_delete@VExternalCopyArrayBuffer@ivm@@@std@@@std@@AEBV?$Local@VArrayBuffer@v8@@@v8@@@Z 000000018001bd00 f   external_copy.obj
 0001:0001b020       ?CopyInto@ExternalCopyArrayBuffer@ivm@@UEAA?AV?$Local@VValue@v8@@@v8@@_N@Z 000000018001c020 f   external_copy.obj
 0001:0001b340       ?WorstCaseHeapSize@ExternalCopyArrayBuffer@ivm@@UEBAIXZ 000000018001c340 f   external_copy.obj
 0001:0001b340       ?WorstCaseHeapSize@ExternalCopySharedArrayBuffer@ivm@@UEBAIXZ 000000018001c340 f   external_copy.obj
 0001:0001b350       ?GetSharedPointer@ExternalCopySharedArrayBuffer@ivm@@QEBA?AV?$shared_ptr@X@std@@XZ 000000018001c350 f   external_copy.obj
 0001:0001b350       ?GetSharedPointer@ExternalCopyArrayBuffer@ivm@@QEBA?AV?$shared_ptr@X@std@@XZ 000000018001c350 f   external_copy.obj
 0001:0001b430       ??0ExternalCopySharedArrayBuffer@ivm@@QEAA@AEBV?$Local@VSharedArrayBuffer@v8@@@v8@@@Z 000000018001c430 f   external_copy.obj
 0001:0001b760       ?CopyInto@ExternalCopySharedArrayBuffer@ivm@@UEAA?AV?$Local@VValue@v8@@@v8@@_N@Z 000000018001c760 f   external_copy.obj
 0001:0001b850       ??0ExternalCopyArrayBufferView@ivm@@QEAA@V?$unique_ptr@VExternalCopyBytes@ivm@@U?$default_delete@VExternalCopyBytes@ivm@@@std@@@std@@W4ViewType@01@_K2@Z 000000018001c850 f   external_copy.obj
 0001:0001b8c0       ??_GExternalCopyArrayBufferView@ivm@@UEAAPEAXI@Z 000000018001c8c0 f i external_copy.obj
 0001:0001b8c0       ??_EExternalCopyArrayBufferView@ivm@@UEAAPEAXI@Z 000000018001c8c0 f i * CIL library *:* CIL module *
 0001:0001b930       ?CopyInto@ExternalCopyArrayBufferView@ivm@@UEAA?AV?$Local@VValue@v8@@@v8@@_N@Z 000000018001c930 f   external_copy.obj
 0001:0001bc00       ?WorstCaseHeapSize@ExternalCopyArrayBufferView@ivm@@UEBAIXZ 000000018001cc00 f   external_copy.obj
 0001:0001bc20       ?WorstCaseHeapSize@?$ExternalCopyTemplate@VBoolean@v8@@_N@ivm@@UEBAIXZ 000000018001cc20 f i external_copy.obj
 0001:0001bc20       ?WorstCaseHeapSize@?$ExternalCopyTemplate@VInt32@v8@@H@ivm@@UEBAIXZ 000000018001cc20 f i external_copy.obj
 0001:0001bc20       ?WorstCaseHeapSize@?$ExternalCopyTemplate@VNumber@v8@@N@ivm@@UEBAIXZ 000000018001cc20 f i external_copy.obj
 0001:0001bc20       ?WorstCaseHeapSize@?$ExternalCopyTemplate@VUint32@v8@@I@ivm@@UEBAIXZ 000000018001cc20 f i external_copy.obj
 0001:0001bc30       ?CopyInto@?$ExternalCopyTemplate@VNumber@v8@@N@ivm@@UEAA?AV?$Local@VValue@v8@@@v8@@_N@Z 000000018001cc30 f i external_copy.obj
 0001:0001bc70       ?CopyInto@?$ExternalCopyTemplate@VInt32@v8@@H@ivm@@UEAA?AV?$Local@VValue@v8@@@v8@@_N@Z 000000018001cc70 f i external_copy.obj
 0001:0001bcb0       ?CopyInto@?$ExternalCopyTemplate@VUint32@v8@@I@ivm@@UEAA?AV?$Local@VValue@v8@@@v8@@_N@Z 000000018001ccb0 f i external_copy.obj
 0001:0001bcf0       ?CopyInto@?$ExternalCopyTemplate@VBoolean@v8@@_N@ivm@@UEAA?AV?$Local@VValue@v8@@@v8@@_N@Z 000000018001ccf0 f i external_copy.obj
 0001:0001bd30       ??1?$vector@V?$unique_ptr@VExternalCopySharedArrayBuffer@ivm@@U?$default_delete@VExternalCopySharedArrayBuffer@ivm@@@std@@@std@@V?$allocator@V?$unique_ptr@VExternalCopySharedArrayBuffer@ivm@@U?$default_delete@VExternalCopySharedArrayBuffer@ivm@@@std@@@std@@@2@@std@@QEAA@XZ 000000018001cd30 f i external_copy.obj
 0001:0001bd30       ??1?$vector@V?$unique_ptr@VTransferable@ivm@@U?$default_delete@VTransferable@ivm@@@std@@@std@@V?$allocator@V?$unique_ptr@VTransferable@ivm@@U?$default_delete@VTransferable@ivm@@@std@@@std@@@2@@std@@QEAA@XZ 000000018001cd30 f i external_copy.obj
 0001:0001bd30       ??1?$vector@V?$unique_ptr@VExternalCopyArrayBuffer@ivm@@U?$default_delete@VExternalCopyArrayBuffer@ivm@@@std@@@std@@V?$allocator@V?$unique_ptr@VExternalCopyArrayBuffer@ivm@@U?$default_delete@VExternalCopyArrayBuffer@ivm@@@std@@@std@@@2@@std@@QEAA@XZ 000000018001cd30 f i external_copy.obj
 0001:0001be00       ?_Change_array@?$vector@V?$unique_ptr@VTransferable@ivm@@U?$default_delete@VTransferable@ivm@@@std@@@std@@V?$allocator@V?$unique_ptr@VTransferable@ivm@@U?$default_delete@VTransferable@ivm@@@std@@@std@@@2@@std@@AEAAXQEAV?$unique_ptr@VTransferable@ivm@@U?$default_delete@VTransferable@ivm@@@std@@@2@_K1@Z 000000018001ce00 f i reference_handle.obj
 0001:0001be00       ?_Change_array@?$vector@V?$unique_ptr@VExternalCopyArrayBuffer@ivm@@U?$default_delete@VExternalCopyArrayBuffer@ivm@@@std@@@std@@V?$allocator@V?$unique_ptr@VExternalCopyArrayBuffer@ivm@@U?$default_delete@VExternalCopyArrayBuffer@ivm@@@std@@@std@@@2@@std@@AEAAXQEAV?$unique_ptr@VExternalCopyArrayBuffer@ivm@@U?$default_delete@VExternalCopyArrayBuffer@ivm@@@std@@@2@_K1@Z 000000018001ce00 f i external_copy.obj
 0001:0001bef0       ?ConstructError@?$js_error_ctor@$1?RangeError@Exception@v8@@SA?AV?$Local@VValue@v8@@@3@V?$Local@VString@v8@@@3@@Z@ivm@@UEBA?AV?$Local@VValue@v8@@@v8@@XZ 000000018001cef0 f i external_copy.obj
 0001:0001c110       ??0?$js_error_ctor@$1?RangeError@Exception@v8@@SA?AV?$Local@VValue@v8@@@3@V?$Local@VString@v8@@@3@@Z@ivm@@QEAA@V?$basic_string@DU?$char_traits@D@std@@V?$allocator@D@2@@std@@@Z 000000018001d110 f i external_copy.obj
 0001:0001c1e0       ??$make_unique@VExternalCopyArrayBuffer@ivm@@AEAV?$Local@VArrayBuffer@v8@@@v8@@$0A@@std@@YA?AV?$unique_ptr@VExternalCopyArrayBuffer@ivm@@U?$default_delete@VExternalCopyArrayBuffer@ivm@@@std@@@0@AEAV?$Local@VArrayBuffer@v8@@@v8@@@Z 000000018001d1e0 f i external_copy.obj
 0001:0001c2f0       ??$atomic_store@X@std@@YAXPEAV?$shared_ptr@X@0@V10@@Z 000000018001d2f0 f i external_copy.obj
 0001:0001c3c0       ?_Destroy@?$_Ref_count_obj@V?$vector@DV?$allocator@D@std@@@std@@@std@@EEAAXXZ 000000018001d3c0 f i external_copy.obj
 0001:0001c3d0       ?_Tidy@?$vector@DV?$allocator@D@std@@@std@@AEAAXXZ 000000018001d3d0 f i external_copy.obj
 0001:0001c440       ?_Destroy@?$_Ref_count_resource@PEAXP6AXPEAX@Z@std@@EEAAXXZ 000000018001d440 f i external_copy.obj
 0001:0001c460       ?_Get_deleter@?$_Ref_count_resource@PEAXP6AXPEAX@Z@std@@UEBAPEAXAEBVtype_info@@@Z 000000018001d460 f i external_copy.obj
 0001:0001c490       ?_Buy@?$vector@DV?$allocator@D@std@@@std@@AEAA_N_K@Z 000000018001d490 f i external_copy.obj
 0001:0001c520       ?IsOptionSet@ivm@@YA_NAEBV?$Local@VContext@v8@@@v8@@AEBV?$Local@VObject@v8@@@3@PEBD@Z 000000018001d520 f i external_copy_handle.obj
 0001:0001c630       ?RequireConstructorCall@ivm@@YAXAEBV?$FunctionCallbackInfo@VValue@v8@@@v8@@@Z 000000018001d630 f i external_copy_handle.obj
 0001:0001c6e0       ?Convert@?$ConvertParam@V?$MaybeLocal@VObject@v8@@@v8@@@ivm@@SA?AV?$MaybeLocal@VObject@v8@@@v8@@AEBV?$Local@VValue@v8@@@4@@Z 000000018001d6e0 f i external_copy_handle.obj
 0001:0001c780       ?TransferIn@ExternalCopyTransferable@ExternalCopyHandle@ivm@@UEAA?AV?$Local@VValue@v8@@@v8@@XZ 000000018001d780 f   external_copy_handle.obj
 0001:0001c8a0       ??0ExternalCopyHandle@ivm@@QEAA@V?$shared_ptr@VExternalCopy@ivm@@@std@@@Z 000000018001d8a0 f   external_copy_handle.obj
 0001:0001c9a0       ??_GExternalCopyHandle@ivm@@UEAAPEAXI@Z 000000018001d9a0 f i external_copy_handle.obj
 0001:0001c9a0       ??_EExternalCopyHandle@ivm@@UEAAPEAXI@Z 000000018001d9a0 f i * CIL library *:* CIL module *
 0001:0001cad0       ?TransferOut@ExternalCopyHandle@ivm@@UEAA?AV?$unique_ptr@VTransferable@ivm@@U?$default_delete@VTransferable@ivm@@@std@@@std@@XZ 000000018001dad0 f   external_copy_handle.obj
 0001:0001cb40       ?New@ExternalCopyHandle@ivm@@SA?AV?$unique_ptr@VExternalCopyHandle@ivm@@U?$default_delete@VExternalCopyHandle@ivm@@@std@@@std@@V?$Local@VValue@v8@@@v8@@V?$MaybeLocal@VObject@v8@@@6@@Z 000000018001db40 f   external_copy_handle.obj
 0001:0001cef0       ??$emplace_back@V?$Local@VValue@v8@@@v8@@@?$vector@V?$Local@VValue@v8@@@v8@@V?$allocator@V?$Local@VValue@v8@@@v8@@@std@@@std@@QEAAX$$QEAV?$Local@VValue@v8@@@v8@@@Z 000000018001def0 f i external_copy_handle.obj
 0001:0001d060       ?CheckDisposed@ExternalCopyHandle@ivm@@AEAAXXZ 000000018001e060 f   external_copy_handle.obj
 0001:0001d0d0       ?TotalExternalSizeGetter@ExternalCopyHandle@ivm@@SA?AV?$Local@VValue@v8@@@v8@@XZ 000000018001e0d0 f   external_copy_handle.obj
 0001:0001d130       ?CopyInto@ExternalCopyHandle@ivm@@QEAA?AV?$Local@VValue@v8@@@v8@@V?$MaybeLocal@VObject@v8@@@4@@Z 000000018001e130 f   external_copy_handle.obj
 0001:0001d1e0       ?Release@ExternalCopyHandle@ivm@@QEAA?AV?$Local@VValue@v8@@@v8@@XZ 000000018001e1e0 f   external_copy_handle.obj
 0001:0001d2e0       ??_EExternalCopyIntoTransferable@ExternalCopyIntoHandle@ivm@@UEAAPEAXI@Z 000000018001e2e0 f i * CIL library *:* CIL module *
 0001:0001d2e0       ??_GExternalCopyIntoTransferable@ExternalCopyIntoHandle@ivm@@UEAAPEAXI@Z 000000018001e2e0 f i external_copy_handle.obj
 0001:0001d370       ?TransferIn@ExternalCopyIntoTransferable@ExternalCopyIntoHandle@ivm@@UEAA?AV?$Local@VValue@v8@@@v8@@XZ 000000018001e370 f   external_copy_handle.obj
 0001:0001d390       ??_EExternalCopyIntoHandle@ivm@@UEAAPEAXI@Z 000000018001e390 f i * CIL library *:* CIL module *
 0001:0001d390       ??_GExternalCopyIntoHandle@ivm@@UEAAPEAXI@Z 000000018001e390 f i external_copy_handle.obj
 0001:0001d450       ?TransferOut@ExternalCopyIntoHandle@ivm@@UEAA?AV?$unique_ptr@VTransferable@ivm@@U?$default_delete@VTransferable@ivm@@@std@@@std@@XZ 000000018001e450 f   external_copy_handle.obj
 0001:0001d520       ?_Change_array@?$vector@V?$Local@VValue@v8@@@v8@@V?$allocator@V?$Local@VValue@v8@@@v8@@@std@@@std@@AEAAXQEAV?$Local@VValue@v8@@@v8@@_K1@Z 000000018001e520 f i external_copy_handle.obj
 0001:0001d5d0       ??$MakeClass@PEBDU?$pair@P6AXAEBV?$FunctionCallbackInfo@VValue@v8@@@v8@@@ZP6AX0@Z@std@@PEBDU?$pair@P6AXAEBV?$FunctionCallbackInfo@VValue@v8@@@v8@@@ZH@2@PEBDU32@PEBDU32@PEBDU32@@ClassHandle@ivm@@KA?AV?$Local@VFunctionTemplate@v8@@@v8@@PEBDUCtorFunction@01@0U?$pair@P6AXAEBV?$FunctionCallbackInfo@VValue@v8@@@v8@@@ZP6AX0@Z@std@@0U?$pair@P6AXAEBV?$FunctionCallbackInfo@VValue@v8@@@v8@@@ZH@6@030303@Z 000000018001e5d0 f i external_copy_handle.obj
 0001:0001d8e0       ??$NewInstance@VExternalCopyIntoHandle@ivm@@AEAV?$shared_ptr@VExternalCopy@ivm@@@std@@AEA_N@ClassHandle@ivm@@SA?AV?$Local@VObject@v8@@@v8@@AEAV?$shared_ptr@VExternalCopy@ivm@@@std@@AEA_N@Z 000000018001e8e0 f i external_copy_handle.obj
 0001:0001db00       ?_Get_deleter@?$_Ref_count_resource@PEAVExternalCopy@ivm@@U?$default_delete@VExternalCopy@ivm@@@std@@@std@@UEBAPEAXAEBVtype_info@@@Z 000000018001eb00 f i external_copy_handle.obj
 0001:0001db30       ??$GetFunctionTemplate@VExternalCopyHandle@ivm@@@ClassHandle@ivm@@SA?AV?$Local@VFunctionTemplate@v8@@@v8@@XZ 000000018001eb30 f i external_copy_handle.obj
 0001:0001dd10       ??$ParameterizeCtorEntry@P6A?AV?$unique_ptr@VExternalCopyHandle@ivm@@U?$default_delete@VExternalCopyHandle@ivm@@@std@@@std@@V?$Local@VValue@v8@@@v8@@V?$MaybeLocal@VObject@v8@@@4@@Z$1?New@ExternalCopyHandle@ivm@@SA?AV12@01@Z@ClassHandle@ivm@@CAXAEBV?$FunctionCallbackInfo@VValue@v8@@@v8@@@Z 000000018001ed10 f i external_copy_handle.obj
 0001:0001dd20       ??$ParameterizeEntry@$0A@P6A?AV?$Local@VValue@v8@@@v8@@XZ$1?TotalExternalSizeGetter@ExternalCopyHandle@ivm@@SA?AV12@XZ@ClassHandle@ivm@@CAXAEBV?$FunctionCallbackInfo@VValue@v8@@@v8@@@Z 000000018001ed20 f i external_copy_handle.obj
 0001:0001dd30       ??$Invoke@$1?Copy@ExternalCopyHandle@ivm@@QEAA?AV?$Local@VValue@v8@@@v8@@V?$MaybeLocal@VObject@v8@@@5@@Z@?$MethodCast@P8ExternalCopyHandle@ivm@@EAA?AV?$Local@VValue@v8@@@v8@@V?$MaybeLocal@VObject@v8@@@4@@Z@ClassHandle@ivm@@SA?AV?$Local@VValue@v8@@@v8@@PEAVExternalCopyHandle@2@V?$MaybeLocal@VObject@v8@@@4@@Z 000000018001ed30 f i external_copy_handle.obj
 0001:0001dde0       ??$ParameterizeEntry@$0?0P6A?AV?$Local@VValue@v8@@@v8@@PEAVExternalCopyHandle@ivm@@V?$MaybeLocal@VObject@v8@@@2@@Z$1??$Invoke@$1?Copy@ExternalCopyHandle@ivm@@QEAA?AV?$Local@VValue@v8@@@v8@@V?$MaybeLocal@VObject@v8@@@5@@Z@?$MethodCast@P8ExternalCopyHandle@ivm@@EAA?AV?$Local@VValue@v8@@@v8@@V?$MaybeLocal@VObject@v8@@@4@@Z@ClassHandle@4@SA?AV12@01@Z@ClassHandle@ivm@@CAXAEBV?$FunctionCallbackInfo@VValue@v8@@@v8@@@Z 000000018001ede0 f i external_copy_handle.obj
 0001:0001ddf0       ??$Invoke@$1?CopyInto@ExternalCopyHandle@ivm@@QEAA?AV?$Local@VValue@v8@@@v8@@V?$MaybeLocal@VObject@v8@@@5@@Z@?$MethodCast@P8ExternalCopyHandle@ivm@@EAA?AV?$Local@VValue@v8@@@v8@@V?$MaybeLocal@VObject@v8@@@4@@Z@ClassHandle@ivm@@SA?AV?$Local@VValue@v8@@@v8@@PEAVExternalCopyHandle@2@V?$MaybeLocal@VObject@v8@@@4@@Z 000000018001edf0 f i external_copy_handle.obj
 0001:0001de20       ??$ParameterizeEntry@$0?0P6A?AV?$Local@VValue@v8@@@v8@@PEAVExternalCopyHandle@ivm@@V?$MaybeLocal@VObject@v8@@@2@@Z$1??$Invoke@$1?CopyInto@ExternalCopyHandle@ivm@@QEAA?AV?$Local@VValue@v8@@@v8@@V?$MaybeLocal@VObject@v8@@@5@@Z@?$MethodCast@P8ExternalCopyHandle@ivm@@EAA?AV?$Local@VValue@v8@@@v8@@V?$MaybeLocal@VObject@v8@@@4@@Z@ClassHandle@4@SA?AV12@01@Z@ClassHandle@ivm@@CAXAEBV?$FunctionCallbackInfo@VValue@v8@@@v8@@@Z 000000018001ee20 f i external_copy_handle.obj
 0001:0001de30       ??$Invoke@$1?Dispose@ExternalCopyHandle@ivm@@QEAA?AV?$Local@VValue@v8@@@v8@@XZ@?$MethodCast@P8ExternalCopyHandle@ivm@@EAA?AV?$Local@VValue@v8@@@v8@@XZ@ClassHandle@ivm@@SA?AV?$Local@VValue@v8@@@v8@@PEAVExternalCopyHandle@2@@Z 000000018001ee30 f i external_copy_handle.obj
 0001:0001de60       ??$ParameterizeEntry@$0?0P6A?AV?$Local@VValue@v8@@@v8@@PEAVExternalCopyHandle@ivm@@@Z$1??$Invoke@$1?Dispose@ExternalCopyHandle@ivm@@QEAA?AV?$Local@VValue@v8@@@v8@@XZ@?$MethodCast@P8ExternalCopyHandle@ivm@@EAA?AV?$Local@VValue@v8@@@v8@@XZ@ClassHandle@4@SA?AV12@0@Z@ClassHandle@ivm@@CAXAEBV?$FunctionCallbackInfo@VValue@v8@@@v8@@@Z 000000018001ee60 f i external_copy_handle.obj
 0001:0001de70       ??$Invoke@$1?Release@ExternalCopyHandle@ivm@@QEAA?AV?$Local@VValue@v8@@@v8@@XZ@?$MethodCast@P8ExternalCopyHandle@ivm@@EAA?AV?$Local@VValue@v8@@@v8@@XZ@ClassHandle@ivm@@SA?AV?$Local@VValue@v8@@@v8@@PEAVExternalCopyHandle@2@@Z 000000018001ee70 f i external_copy_handle.obj
 0001:0001dea0       ??$ParameterizeEntry@$0?0P6A?AV?$Local@VValue@v8@@@v8@@PEAVExternalCopyHandle@ivm@@@Z$1??$Invoke@$1?Release@ExternalCopyHandle@ivm@@QEAA?AV?$Local@VValue@v8@@@v8@@XZ@?$MethodCast@P8ExternalCopyHandle@ivm@@EAA?AV?$Local@VValue@v8@@@v8@@XZ@ClassHandle@4@SA?AV12@0@Z@ClassHandle@ivm@@CAXAEBV?$FunctionCallbackInfo@VValue@v8@@@v8@@@Z 000000018001eea0 f i external_copy_handle.obj
 0001:0001e250       ??$AddMethods@PEBDU?$pair@P6AXAEBV?$FunctionCallbackInfo@VValue@v8@@@v8@@@ZH@std@@PEBDU12@PEBDU12@@ClassHandle@ivm@@CAXPEAVIsolate@v8@@AEAV?$Local@VFunctionTemplate@v8@@@3@AEAV?$Local@VObjectTemplate@v8@@@3@AEAV?$Local@VSignature@v8@@@3@AEAV?$Local@VAccessorSignature@v8@@@3@PEBDU?$pair@P6AXAEBV?$FunctionCallbackInfo@VValue@v8@@@v8@@@ZH@std@@565656@Z 000000018001f250 f i external_copy_handle.obj
 0001:0001e520       ?Invoke@?$ConvertParamInvoke@U?$ConvertParam@V?$Local@VValue@v8@@@v8@@@ivm@@$0A@$01@ivm@@SA?AV?$Local@VValue@v8@@@v8@@AEBV?$FunctionCallbackInfo@VValue@v8@@@4@@Z 000000018001f520 f i external_copy_handle.obj
 0001:0001e5e0       ?Invoke@?$ConvertParamInvoke@U?$ConvertParam@PEAVExternalCopyHandle@ivm@@@ivm@@$0?0$00@ivm@@SAPEAVExternalCopyHandle@2@AEBV?$FunctionCallbackInfo@VValue@v8@@@v8@@@Z 000000018001f5e0 f i external_copy_handle.obj
 0001:0001e630       ?Invoke@?$ConvertParamInvoke@U?$ConvertParam@PEAVExternalCopyHandle@ivm@@@ivm@@$0?0$0A@@ivm@@SAPEAVExternalCopyHandle@2@AEBV?$FunctionCallbackInfo@VValue@v8@@@v8@@@Z 000000018001f630 f i external_copy_handle.obj
 0001:0001e680       ?Convert@?$ConvertParam@PEAVExternalCopyHandle@ivm@@@ivm@@SAPEAVExternalCopyHandle@2@V?$Local@VValue@v8@@@v8@@@Z 000000018001f680 f i external_copy_handle.obj
 0001:0001e7d0       ?Invoke@?$ConvertParamInvoke@U?$ConvertParam@V?$MaybeLocal@VObject@v8@@@v8@@@ivm@@$00$01@ivm@@SA?AV?$MaybeLocal@VObject@v8@@@v8@@AEBV?$FunctionCallbackInfo@VValue@v8@@@4@@Z 000000018001f7d0 f i external_copy_handle.obj
 0001:0001e860       ?Invoke@?$ConvertParamInvoke@U?$ConvertParam@V?$MaybeLocal@VObject@v8@@@v8@@@ivm@@$0A@$00@ivm@@SA?AV?$MaybeLocal@VObject@v8@@@v8@@AEBV?$FunctionCallbackInfo@VValue@v8@@@4@@Z 000000018001f860 f i external_copy_handle.obj
 0001:0001e8f0       ?TransferIn@LibraryHandleTransferable@LibraryHandle@ivm@@UEAA?AV?$Local@VValue@v8@@@v8@@XZ 000000018001f8f0 f i isolate.obj
 0001:0001e920       ?TransferOut@LibraryHandle@ivm@@UEAA?AV?$unique_ptr@VTransferable@ivm@@U?$default_delete@VTransferable@ivm@@@std@@@std@@XZ 000000018001f920 f i isolate.obj
 0001:0001e950       ?Get@LibraryHandle@ivm@@SA?AV?$Local@VObject@v8@@@v8@@XZ 000000018001f950 f i isolate.obj
 0001:0001ea60       init                       000000018001fa60 f   isolate.obj
 0001:0001ece0       ??$GetFunctionTemplate@VIsolateHandle@ivm@@@ClassHandle@ivm@@SA?AV?$Local@VFunctionTemplate@v8@@@v8@@XZ 000000018001fce0 f i isolate.obj
 0001:0001f040       ??$GetFunctionTemplate@VNativeModuleHandle@ivm@@@ClassHandle@ivm@@SA?AV?$Local@VFunctionTemplate@v8@@@v8@@XZ 0000000180020040 f i isolate.obj
 0001:0001f1c0       ??$GetFunctionTemplate@VScriptHandle@ivm@@@ClassHandle@ivm@@SA?AV?$Local@VFunctionTemplate@v8@@@v8@@XZ 00000001800201c0 f i isolate.obj
 0001:0001f490       ??$MakeClass@PEBDV?$Local@VFunctionTemplate@v8@@@v8@@PEBDV12@PEBDV12@PEBDV12@PEBDV12@PEBDV12@@ClassHandle@ivm@@KA?AV?$Local@VFunctionTemplate@v8@@@v8@@PEBDUCtorFunction@01@0V23@0202020202@Z 0000000180020490 f i isolate.obj
 0001:0001f670       ??$NewInstance@VLibraryHandle@ivm@@$$V@ClassHandle@ivm@@SA?AV?$Local@VObject@v8@@@v8@@XZ 0000000180020670 f i isolate.obj
 0001:0001f8b0       ??$NewInstance@VLibHandle@ivm@@$$V@ClassHandle@ivm@@SA?AV?$Local@VObject@v8@@@v8@@XZ 00000001800208b0 f i isolate.obj
 0001:0001f980       ??_ELibTransferable@LibHandle@ivm@@UEAAPEAXI@Z 0000000180020980 f i * CIL library *:* CIL module *
 0001:0001f980       ??_GLibTransferable@LibHandle@ivm@@UEAAPEAXI@Z 0000000180020980 f i lib_handle.obj
 0001:0001f980       ??_ELibraryHandleTransferable@LibraryHandle@ivm@@UEAAPEAXI@Z 0000000180020980 f i * CIL library *:* CIL module *
 0001:0001f980       ??_GLibraryHandleTransferable@LibraryHandle@ivm@@UEAAPEAXI@Z 0000000180020980 f i isolate.obj
 0001:0001f9b0       ??$GetFunctionTemplate@VLibHandle@ivm@@@ClassHandle@ivm@@SA?AV?$Local@VFunctionTemplate@v8@@@v8@@XZ 00000001800209b0 f i isolate.obj
 0001:0001fc50       ?_Destroy@?$_Ref_count_obj@VIsolateHolder@ivm@@@std@@EEAAXXZ 0000000180020c50 f i isolate.obj
 0001:0001fcb0       ?_Destroy@?$_Ref_count_obj@VIsolateEnvironment@ivm@@@std@@EEAAXXZ 0000000180020cb0 f i isolate.obj
 0001:0001fcc0       ??$AddMethods@PEBDV?$Local@VFunctionTemplate@v8@@@v8@@PEBDV12@PEBDV12@PEBDV12@@ClassHandle@ivm@@CAXPEAVIsolate@v8@@AEAV?$Local@VFunctionTemplate@v8@@@3@AEAV?$Local@VObjectTemplate@v8@@@3@AEAV?$Local@VSignature@v8@@@3@AEAV?$Local@VAccessorSignature@v8@@@3@PEBD15V43@565656@Z 0000000180020cc0 f i isolate.obj
 0001:0001fef0       ??_G?$_Ref_count_obj@VIsolateEnvironment@ivm@@@std@@UEAAPEAXI@Z 0000000180020ef0 f i isolate.obj
 0001:0001fef0       ??_E?$_Ref_count_obj@VIsolateEnvironment@ivm@@@std@@UEAAPEAXI@Z 0000000180020ef0 f i * CIL library *:* CIL module *
 0001:0001ff20       ??1Source@ScriptCompiler@v8@@QEAA@XZ 0000000180020f20 f i isolate_handle.obj
 0001:0001ff50       ??1TmpIsolateScope@PlatformDelegate@ivm@@QEAA@XZ 0000000180020f50 f i isolate_handle.obj
 0001:0001ffc0       ?Phase2Async@ThreePhaseTask@ivm@@UEAA_NAEAVAsyncWait@Scheduler@IsolateEnvironment@2@@Z 0000000180020fc0 f i isolate_handle.obj
 0001:0001ffe0       ??0ScriptOriginHolder@ivm@@QEAA@V?$MaybeLocal@VObject@v8@@@v8@@_N@Z 0000000180020fe0 f i isolate_handle.obj
 0001:000203e0       ?ToScriptOrigin@ScriptOriginHolder@ivm@@QEAA?AVScriptOrigin@v8@@XZ 00000001800213e0 f i isolate_handle.obj
 0001:000204f0       ?TransferIn@IsolateHandleTransferable@IsolateHandle@ivm@@UEAA?AV?$Local@VValue@v8@@@v8@@XZ 00000001800214f0 f   isolate_handle.obj
 0001:00020600       ??_ESessionHandle@ivm@@UEAAPEAXI@Z 0000000180021600 f i * CIL library *:* CIL module *
 0001:00020600       ??_EModuleHandle@ivm@@UEAAPEAXI@Z 0000000180021600 f i * CIL library *:* CIL module *
 0001:00020600       ??_GIsolateHandle@ivm@@UEAAPEAXI@Z 0000000180021600 f i isolate_handle.obj
 0001:00020600       ??_EIsolateHandle@ivm@@UEAAPEAXI@Z 0000000180021600 f i * CIL library *:* CIL module *
 0001:00020600       ??_GModuleHandle@ivm@@UEAAPEAXI@Z 0000000180021600 f i module_handle.obj
 0001:00020600       ??_GSessionHandle@ivm@@UEAAPEAXI@Z 0000000180021600 f i session_handle.obj
 0001:00020600       ??_ENativeModuleHandle@ivm@@UEAAPEAXI@Z 0000000180021600 f i * CIL library *:* CIL module *
 0001:00020600       ??_GNativeModuleHandle@ivm@@UEAAPEAXI@Z 0000000180021600 f i native_module_handle.obj
 0001:00020600       ??_GScriptHandle@ivm@@UEAAPEAXI@Z 0000000180021600 f i script_handle.obj
 0001:00020600       ??_EScriptHandle@ivm@@UEAAPEAXI@Z 0000000180021600 f i * CIL library *:* CIL module *
 0001:000206c0       ?New@IsolateHandle@ivm@@SA?AV?$unique_ptr@VClassHandle@ivm@@U?$default_delete@VClassHandle@ivm@@@std@@@std@@V?$MaybeLocal@VObject@v8@@@v8@@@Z 00000001800216c0 f   isolate_handle.obj
 0001:00020c40       ?TransferOut@IsolateHandle@ivm@@UEAA?AV?$unique_ptr@VTransferable@ivm@@U?$default_delete@VTransferable@ivm@@@std@@@std@@XZ 0000000180021c40 f   isolate_handle.obj
 0001:00020cb0       ??0CreateContextRunner@ivm@@QEAA@AEAV?$MaybeLocal@VObject@v8@@@v8@@@Z 0000000180021cb0 f i isolate_handle.obj
 0001:00020d30       ?Phase2@CreateContextRunner@ivm@@UEAAXXZ 0000000180021d30 f i isolate_handle.obj
 0001:000213c0       ?Phase3@CreateContextRunner@ivm@@UEAA?AV?$Local@VValue@v8@@@v8@@XZ 00000001800223c0 f i isolate_handle.obj
 0001:000214f0       ??_GCreateContextRunner@ivm@@UEAAPEAXI@Z 00000001800224f0 f i isolate_handle.obj
 0001:000214f0       ??_ECreateContextRunner@ivm@@UEAAPEAXI@Z 00000001800224f0 f i * CIL library *:* CIL module *
 0001:00021530       ??1CreateContextRunner@ivm@@UEAA@XZ 0000000180022530 f i isolate_handle.obj
 0001:000215d0       ??_EContextDisposer@?1???RContextDeleter@?1??Phase2@CreateContextRunner@ivm@@UEAAXXZ@QEAAXPEAV?$RemoteHandle@VContext@v8@@@4@@Z@UEAAPEAXI@Z 00000001800225d0 f i * CIL library *:* CIL module *
 0001:000215d0       ??_GContextDisposer@?1???RContextDeleter@?1??Phase2@CreateContextRunner@ivm@@UEAAXXZ@QEAAXPEAV?$RemoteHandle@VContext@v8@@@4@@Z@UEAAPEAXI@Z 00000001800225d0 f i isolate_handle.obj
 0001:00021660       ??0CompileCodeRunner@ivm@@QEAA@AEBV?$Local@VString@v8@@@v8@@AEBV?$MaybeLocal@VObject@v8@@@3@_N@Z 0000000180022660 f i isolate_handle.obj
 0001:000219f0       ?GetCompilerSource@CompileCodeRunner@ivm@@QEAA?AV?$unique_ptr@VSource@ScriptCompiler@v8@@U?$default_delete@VSource@ScriptCompiler@v8@@@std@@@std@@XZ 00000001800229f0 f i isolate_handle.obj
 0001:00021af0       ??_ECompileCodeRunner@ivm@@UEAAPEAXI@Z 0000000180022af0 f i * CIL library *:* CIL module *
 0001:00021af0       ??_GCompileCodeRunner@ivm@@UEAAPEAXI@Z 0000000180022af0 f i isolate_handle.obj
 0001:00021b30       ??1CompileCodeRunner@ivm@@UEAA@XZ 0000000180022b30 f i isolate_handle.obj
 0001:00021c00       ?Phase2@CompileScriptRunner@ivm@@UEAAXXZ 0000000180022c00 f i isolate_handle.obj
 0001:00021f50       ?Phase3@CompileScriptRunner@ivm@@UEAA?AV?$Local@VValue@v8@@@v8@@XZ 0000000180022f50 f i isolate_handle.obj
 0001:000221d0       ??_ECompileModuleRunner@ivm@@UEAAPEAXI@Z 00000001800231d0 f i * CIL library *:* CIL module *
 0001:000221d0       ??_ECompileScriptRunner@ivm@@UEAAPEAXI@Z 00000001800231d0 f i * CIL library *:* CIL module *
 0001:000221d0       ??_GCompileModuleRunner@ivm@@UEAAPEAXI@Z 00000001800231d0 f i isolate_handle.obj
 0001:000221d0       ??_GCompileScriptRunner@ivm@@UEAAPEAXI@Z 00000001800231d0 f i isolate_handle.obj
 0001:00022210       ??1CompileScriptRunner@ivm@@UEAA@XZ 0000000180023210 f i isolate_handle.obj
 0001:00022210       ??1CompileModuleRunner@ivm@@UEAA@XZ 0000000180023210 f i isolate_handle.obj
 0001:00022280       ?Phase2@CompileModuleRunner@ivm@@UEAAXXZ 0000000180023280 f i isolate_handle.obj
 0001:00022450       ?Phase3@CompileModuleRunner@ivm@@UEAA?AV?$Local@VValue@v8@@@v8@@XZ 0000000180023450 f i isolate_handle.obj
 0001:000226d0       ?CreateInspectorSession@IsolateHandle@ivm@@QEAA?AV?$Local@VValue@v8@@@v8@@XZ 00000001800236d0 f   isolate_handle.obj
 0001:000228e0       ?Dispose@IsolateHandle@ivm@@QEAA?AV?$Local@VValue@v8@@@v8@@XZ 00000001800238e0 f   isolate_handle.obj
 0001:00022a00       ?Phase2@HeapStatRunner@ivm@@UEAAXXZ 0000000180023a00 f i isolate_handle.obj
 0001:00022a60       ?Phase3@HeapStatRunner@ivm@@UEAA?AV?$Local@VValue@v8@@@v8@@XZ 0000000180023a60 f i isolate_handle.obj
 0001:00023260       ??_EHeapStatRunner@ivm@@UEAAPEAXI@Z 0000000180024260 f i * CIL library *:* CIL module *
 0001:00023260       ??_GHeapStatRunner@ivm@@UEAAPEAXI@Z 0000000180024260 f i isolate_handle.obj
 0001:00023290       ?GetCpuTime@IsolateHandle@ivm@@QEAA?AV?$Local@VValue@v8@@@v8@@XZ 0000000180024290 f   isolate_handle.obj
 0001:00023530       ?GetWallTime@IsolateHandle@ivm@@QEAA?AV?$Local@VValue@v8@@@v8@@XZ 0000000180024530 f   isolate_handle.obj
 0001:000237d0       ?GetReferenceCount@IsolateHandle@ivm@@QEAA?AV?$Local@VValue@v8@@@v8@@XZ 00000001800247d0 f   isolate_handle.obj
 0001:00023910       ?CreateSnapshot@IsolateHandle@ivm@@SA?AV?$Local@VValue@v8@@@v8@@V?$Local@VArray@v8@@@4@V?$MaybeLocal@VString@v8@@@4@@Z 0000000180024910 f   isolate_handle.obj
 0001:00024640       ??$emplace_back@V?$basic_string@DU?$char_traits@D@std@@V?$allocator@D@2@@std@@VScriptOriginHolder@ivm@@@?$vector@U?$pair@V?$basic_string@DU?$char_traits@D@std@@V?$allocator@D@2@@std@@VScriptOriginHolder@ivm@@@std@@V?$allocator@U?$pair@V?$basic_string@DU?$char_traits@D@std@@V?$allocator@D@2@@std@@VScriptOriginHolder@ivm@@@std@@@2@@std@@QEAAX$$QEAV?$basic_string@DU?$char_traits@D@std@@V?$allocator@D@2@@1@$$QEAVScriptOriginHolder@ivm@@@Z 0000000180025640 f i isolate_handle.obj
 0001:00024d30       ??1?$unique_ptr@$$CBDU?$default_delete@$$CBD@std@@@std@@QEAA@XZ 0000000180025d30 f i isolate_handle.obj
 0001:00024d50       ?_Change_array@?$vector@U?$pair@V?$basic_string@DU?$char_traits@D@std@@V?$allocator@D@2@@std@@VScriptOriginHolder@ivm@@@std@@V?$allocator@U?$pair@V?$basic_string@DU?$char_traits@D@std@@V?$allocator@D@2@@std@@VScriptOriginHolder@ivm@@@std@@@2@@std@@AEAAXQEAU?$pair@V?$basic_string@DU?$char_traits@D@std@@V?$allocator@D@2@@std@@VScriptOriginHolder@ivm@@@2@_K1@Z 0000000180025d50 f i isolate_handle.obj
 0001:00024e70       ?_Umove_if_noexcept@?$vector@U?$pair@V?$basic_string@DU?$char_traits@D@std@@V?$allocator@D@2@@std@@VScriptOriginHolder@ivm@@@std@@V?$allocator@U?$pair@V?$basic_string@DU?$char_traits@D@std@@V?$allocator@D@2@@std@@VScriptOriginHolder@ivm@@@std@@@2@@std@@AEAAXPEAU?$pair@V?$basic_string@DU?$char_traits@D@std@@V?$allocator@D@2@@std@@VScriptOriginHolder@ivm@@@2@00@Z 0000000180025e70 f i isolate_handle.obj
 0001:00024f10       ??1?$vector@U?$pair@V?$basic_string@DU?$char_traits@D@std@@V?$allocator@D@2@@std@@VScriptOriginHolder@ivm@@@std@@V?$allocator@U?$pair@V?$basic_string@DU?$char_traits@D@std@@V?$allocator@D@2@@std@@VScriptOriginHolder@ivm@@@std@@@2@@std@@QEAA@XZ 0000000180025f10 f i isolate_handle.obj
 0001:00024ff0       ??1?$unique_ptr@UCachedData@ScriptCompiler@v8@@U?$default_delete@UCachedData@ScriptCompiler@v8@@@std@@@std@@QEAA@XZ 0000000180025ff0 f i isolate_handle.obj
 0001:00025020       ??1?$unique_ptr@VSource@ScriptCompiler@v8@@U?$default_delete@VSource@ScriptCompiler@v8@@@std@@@std@@QEAA@XZ 0000000180026020 f i isolate_handle.obj
 0001:00025070       ??1?$unique_ptr@VScriptOriginHolder@ivm@@U?$default_delete@VScriptOriginHolder@ivm@@@std@@@std@@QEAA@XZ 0000000180026070 f i isolate_handle.obj
 0001:000250a0       ??1?$unique_ptr@V?$RemoteHandle@VContext@v8@@@ivm@@U?$default_delete@V?$RemoteHandle@VContext@v8@@@ivm@@@std@@@std@@QEAA@XZ 00000001800260a0 f i isolate_handle.obj
 0001:000250d0       ??1?$vector@V?$unique_ptr@VTask@v8@@U?$default_delete@VTask@v8@@@std@@@std@@V?$allocator@V?$unique_ptr@VTask@v8@@U?$default_delete@VTask@v8@@@std@@@std@@@2@@std@@QEAA@XZ 00000001800260d0 f i isolate_handle.obj
 0001:000251b0       ?reset@?$shared_ptr@X@std@@QEAAXXZ 00000001800261b0 f i isolate_handle.obj
 0001:000251b0       ?reset@?$shared_ptr@V?$RemoteHandle@VUnboundScript@v8@@@ivm@@@std@@QEAAXXZ 00000001800261b0 f i script_handle.obj
 0001:00025210       ??1?$RemoteTuple@VContext@v8@@@ivm@@QEAA@XZ 0000000180026210 f i isolate_handle.obj
 0001:000252c0       ??$CompileScript@$00@IsolateHandle@ivm@@QEAA?AV?$Local@VValue@v8@@@v8@@V?$Local@VString@v8@@@3@V?$MaybeLocal@VObject@v8@@@3@@Z 00000001800262c0 f i isolate_handle.obj
 0001:00025410       ??$CompileScript@$0A@@IsolateHandle@ivm@@QEAA?AV?$Local@VValue@v8@@@v8@@V?$Local@VString@v8@@@3@V?$MaybeLocal@VObject@v8@@@3@@Z 0000000180026410 f i isolate_handle.obj
 0001:000254e0       ??$CompileModule@$00@IsolateHandle@ivm@@QEAA?AV?$Local@VValue@v8@@@v8@@V?$Local@VString@v8@@@3@V?$MaybeLocal@VObject@v8@@@3@@Z 00000001800264e0 f i isolate_handle.obj
 0001:00025630       ??$CompileModule@$0A@@IsolateHandle@ivm@@QEAA?AV?$Local@VValue@v8@@@v8@@V?$Local@VString@v8@@@3@V?$MaybeLocal@VObject@v8@@@3@@Z 0000000180026630 f i isolate_handle.obj
 0001:00025700       ??$CreateContext@$00@IsolateHandle@ivm@@QEAA?AV?$Local@VValue@v8@@@v8@@V?$MaybeLocal@VObject@v8@@@3@@Z 0000000180026700 f i isolate_handle.obj
 0001:00025850       ??$GetHeapStatistics@$00@IsolateHandle@ivm@@QEAA?AV?$Local@VValue@v8@@@v8@@XZ 0000000180026850 f i isolate_handle.obj
 0001:000259a0       ??$MakeClass@PEBDU?$pair@P6AXAEBV?$FunctionCallbackInfo@VValue@v8@@@v8@@@ZI@std@@PEBDU?$pair@P6AXAEBV?$FunctionCallbackInfo@VValue@v8@@@v8@@@ZH@2@PEBDU32@PEBDU32@PEBDU32@PEBDU?$pair@P6AXV?$Local@VString@v8@@@v8@@AEBV?$PropertyCallbackInfo@VValue@v8@@@2@@ZP6AX0V?$Local@VValue@v8@@@2@AEBV?$PropertyCallbackInfo@X@2@@Z@2@PEBDU32@PEBDU32@PEBDU32@PEBDU32@PEBDU32@PEBDU32@PEBDU42@PEBDU42@PEBDU42@@ClassHandle@ivm@@KA?AV?$Local@VFunctionTemplate@v8@@@v8@@PEBDUCtorFunction@01@0U?$pair@P6AXAEBV?$FunctionCallbackInfo@VValue@v8@@@v8@@@ZI@std@@0U?$pair@P6AXAEBV?$FunctionCallbackInfo@VValue@v8@@@v8@@@ZH@6@0303030U?$pair@P6AXV?$Local@VString@v8@@@v8@@AEBV?$PropertyCallbackInfo@VValue@v8@@@2@@ZP6AX0V?$Local@VValue@v8@@@2@AEBV?$PropertyCallbackInfo@X@2@@Z@6@030303030303040404@Z 00000001800269a0 f i isolate_handle.obj
 0001:00025e90       ??$Unwrap@VExternalCopyHandle@ivm@@@ClassHandle@ivm@@SAPEAVExternalCopyHandle@1@V?$Local@VObject@v8@@@v8@@@Z 0000000180026e90 f i isolate_handle.obj
 0001:00025f60       ??$New@AEA_KV?$shared_ptr@X@std@@AEA_K@IsolateEnvironment@ivm@@SA?AV?$shared_ptr@VIsolateHolder@ivm@@@std@@AEA_K$$QEAV?$shared_ptr@X@3@0@Z 0000000180026f60 f i isolate_handle.obj
 0001:000261b0       ??$NewInstance@VExternalCopyHandle@ivm@@V?$shared_ptr@VExternalCopyArrayBuffer@ivm@@@std@@@ClassHandle@ivm@@SA?AV?$Local@VObject@v8@@@v8@@$$QEAV?$shared_ptr@VExternalCopyArrayBuffer@ivm@@@std@@@Z 00000001800271b0 f i isolate_handle.obj
 0001:000262a0       ??$NewInstance@VSessionHandle@ivm@@AEAVIsolateEnvironment@2@@ClassHandle@ivm@@SA?AV?$Local@VObject@v8@@@v8@@AEAVIsolateEnvironment@1@@Z 00000001800272a0 f i isolate_handle.obj
 0001:00026870       ?_Destroy@?$_Ref_count_obj@UModuleInfo@ivm@@@std@@EEAAXXZ 0000000180027870 f i isolate_handle.obj
 0001:00026880       ?_Destroy@?$_Ref_count_obj@V?$RemoteHandle@VUnboundScript@v8@@@ivm@@@std@@EEAAXXZ 0000000180027880 f i isolate_handle.obj
 0001:00026890       ?_Destroy@?$_Ref_count_obj@V?$RemoteHandle@VValue@v8@@@ivm@@@std@@EEAAXXZ 0000000180027890 f i isolate_handle.obj
 0001:000268a0       ?_Destroy@?$_Ref_count_obj@V?$vector@V?$unique_ptr@VTask@v8@@U?$default_delete@VTask@v8@@@std@@@std@@V?$allocator@V?$unique_ptr@VTask@v8@@U?$default_delete@VTask@v8@@@std@@@std@@@2@@std@@@std@@EEAAXXZ 00000001800278a0 f i isolate_handle.obj
 0001:00026980       ??1?$RemoteTuple@VValue@v8@@@ivm@@QEAA@XZ 0000000180027980 f i isolate_handle.obj
 0001:00026a30       ??1?$RemoteTuple@VUnboundScript@v8@@@ivm@@QEAA@XZ 0000000180027a30 f i isolate_handle.obj
 0001:00026ae0       ??$?HDU?$char_traits@D@std@@V?$allocator@D@1@@std@@YA?AV?$basic_string@DU?$char_traits@D@std@@V?$allocator@D@2@@0@AEBV10@QEBD@Z 0000000180027ae0 f i isolate_handle.obj
 0001:00026c10       ??$ParameterizeCtorEntry@P6A?AV?$unique_ptr@VClassHandle@ivm@@U?$default_delete@VClassHandle@ivm@@@std@@@std@@V?$MaybeLocal@VObject@v8@@@v8@@@Z$1?New@IsolateHandle@ivm@@SA?AV12@0@Z@ClassHandle@ivm@@CAXAEBV?$FunctionCallbackInfo@VValue@v8@@@v8@@@Z 0000000180027c10 f i isolate_handle.obj
 0001:00026c20       ??$ParameterizeEntry@$0A@P6A?AV?$Local@VValue@v8@@@v8@@V?$Local@VArray@v8@@@2@V?$MaybeLocal@VString@v8@@@2@@Z$1?CreateSnapshot@IsolateHandle@ivm@@SA?AV12@01@Z@ClassHandle@ivm@@CAXAEBV?$FunctionCallbackInfo@VValue@v8@@@v8@@@Z 0000000180027c20 f i isolate_handle.obj
 0001:00026cd0       ??$Invoke@$1??$CompileScript@$00@IsolateHandle@ivm@@QEAA?AV?$Local@VValue@v8@@@v8@@V?$Local@VString@v8@@@4@V?$MaybeLocal@VObject@v8@@@4@@Z@?$MethodCast@P8IsolateHandle@ivm@@EAA?AV?$Local@VValue@v8@@@v8@@V?$Local@VString@v8@@@4@V?$MaybeLocal@VObject@v8@@@4@@Z@ClassHandle@ivm@@SA?AV?$Local@VValue@v8@@@v8@@PEAVIsolateHandle@2@V?$Local@VString@v8@@@4@V?$MaybeLocal@VObject@v8@@@4@@Z 0000000180027cd0 f i isolate_handle.obj
 0001:00026d00       ??$ParameterizeEntry@$0?0P6A?AV?$Local@VValue@v8@@@v8@@PEAVIsolateHandle@ivm@@V?$Local@VString@v8@@@2@V?$MaybeLocal@VObject@v8@@@2@@Z$1??$Invoke@$1??$CompileScript@$00@IsolateHandle@ivm@@QEAA?AV?$Local@VValue@v8@@@v8@@V?$Local@VString@v8@@@4@V?$MaybeLocal@VObject@v8@@@4@@Z@?$MethodCast@P8IsolateHandle@ivm@@EAA?AV?$Local@VValue@v8@@@v8@@V?$Local@VString@v8@@@4@V?$MaybeLocal@VObject@v8@@@4@@Z@ClassHandle@4@SA?AV12@012@Z@ClassHandle@ivm@@CAXAEBV?$FunctionCallbackInfo@VValue@v8@@@v8@@@Z 0000000180027d00 f i isolate_handle.obj
 0001:00026d10       ??$Invoke@$1??$CompileScript@$0A@@IsolateHandle@ivm@@QEAA?AV?$Local@VValue@v8@@@v8@@V?$Local@VString@v8@@@4@V?$MaybeLocal@VObject@v8@@@4@@Z@?$MethodCast@P8IsolateHandle@ivm@@EAA?AV?$Local@VValue@v8@@@v8@@V?$Local@VString@v8@@@4@V?$MaybeLocal@VObject@v8@@@4@@Z@ClassHandle@ivm@@SA?AV?$Local@VValue@v8@@@v8@@PEAVIsolateHandle@2@V?$Local@VString@v8@@@4@V?$MaybeLocal@VObject@v8@@@4@@Z 0000000180027d10 f i isolate_handle.obj
 0001:00026d40       ??$ParameterizeEntry@$0?0P6A?AV?$Local@VValue@v8@@@v8@@PEAVIsolateHandle@ivm@@V?$Local@VString@v8@@@2@V?$MaybeLocal@VObject@v8@@@2@@Z$1??$Invoke@$1??$CompileScript@$0A@@IsolateHandle@ivm@@QEAA?AV?$Local@VValue@v8@@@v8@@V?$Local@VString@v8@@@4@V?$MaybeLocal@VObject@v8@@@4@@Z@?$MethodCast@P8IsolateHandle@ivm@@EAA?AV?$Local@VValue@v8@@@v8@@V?$Local@VString@v8@@@4@V?$MaybeLocal@VObject@v8@@@4@@Z@ClassHandle@4@SA?AV12@012@Z@ClassHandle@ivm@@CAXAEBV?$FunctionCallbackInfo@VValue@v8@@@v8@@@Z 0000000180027d40 f i isolate_handle.obj
 0001:00026d50       ??$Invoke@$1??$CompileModule@$00@IsolateHandle@ivm@@QEAA?AV?$Local@VValue@v8@@@v8@@V?$Local@VString@v8@@@4@V?$MaybeLocal@VObject@v8@@@4@@Z@?$MethodCast@P8IsolateHandle@ivm@@EAA?AV?$Local@VValue@v8@@@v8@@V?$Local@VString@v8@@@4@V?$MaybeLocal@VObject@v8@@@4@@Z@ClassHandle@ivm@@SA?AV?$Local@VValue@v8@@@v8@@PEAVIsolateHandle@2@V?$Local@VString@v8@@@4@V?$MaybeLocal@VObject@v8@@@4@@Z 0000000180027d50 f i isolate_handle.obj
 0001:00026d80       ??$ParameterizeEntry@$0?0P6A?AV?$Local@VValue@v8@@@v8@@PEAVIsolateHandle@ivm@@V?$Local@VString@v8@@@2@V?$MaybeLocal@VObject@v8@@@2@@Z$1??$Invoke@$1??$CompileModule@$00@IsolateHandle@ivm@@QEAA?AV?$Local@VValue@v8@@@v8@@V?$Local@VString@v8@@@4@V?$MaybeLocal@VObject@v8@@@4@@Z@?$MethodCast@P8IsolateHandle@ivm@@EAA?AV?$Local@VValue@v8@@@v8@@V?$Local@VString@v8@@@4@V?$MaybeLocal@VObject@v8@@@4@@Z@ClassHandle@4@SA?AV12@012@Z@ClassHandle@ivm@@CAXAEBV?$FunctionCallbackInfo@VValue@v8@@@v8@@@Z 0000000180027d80 f i isolate_handle.obj
 0001:00026d90       ??$Invoke@$1??$CompileModule@$0A@@IsolateHandle@ivm@@QEAA?AV?$Local@VValue@v8@@@v8@@V?$Local@VString@v8@@@4@V?$MaybeLocal@VObject@v8@@@4@@Z@?$MethodCast@P8IsolateHandle@ivm@@EAA?AV?$Local@VValue@v8@@@v8@@V?$Local@VString@v8@@@4@V?$MaybeLocal@VObject@v8@@@4@@Z@ClassHandle@ivm@@SA?AV?$Local@VValue@v8@@@v8@@PEAVIsolateHandle@2@V?$Local@VString@v8@@@4@V?$MaybeLocal@VObject@v8@@@4@@Z 0000000180027d90 f i isolate_handle.obj
 0001:00026dc0       ??$ParameterizeEntry@$0?0P6A?AV?$Local@VValue@v8@@@v8@@PEAVIsolateHandle@ivm@@V?$Local@VString@v8@@@2@V?$MaybeLocal@VObject@v8@@@2@@Z$1??$Invoke@$1??$CompileModule@$0A@@IsolateHandle@ivm@@QEAA?AV?$Local@VValue@v8@@@v8@@V?$Local@VString@v8@@@4@V?$MaybeLocal@VObject@v8@@@4@@Z@?$MethodCast@P8IsolateHandle@ivm@@EAA?AV?$Local@VValue@v8@@@v8@@V?$Local@VString@v8@@@4@V?$MaybeLocal@VObject@v8@@@4@@Z@ClassHandle@4@SA?AV12@012@Z@ClassHandle@ivm@@CAXAEBV?$FunctionCallbackInfo@VValue@v8@@@v8@@@Z 0000000180027dc0 f i isolate_handle.obj
 0001:00026dd0       ??$Invoke@$1?GetCpuTime@IsolateHandle@ivm@@QEAA?AV?$Local@VValue@v8@@@v8@@XZ@?$MethodCast@P8IsolateHandle@ivm@@EAA?AV?$Local@VValue@v8@@@v8@@XZ@ClassHandle@ivm@@SA?AV?$Local@VValue@v8@@@v8@@PEAVIsolateHandle@2@@Z 0000000180027dd0 f i isolate_handle.obj
 0001:00026e00       ??$ParameterizeGetterEntry@P6A?AV?$Local@VValue@v8@@@v8@@PEAVIsolateHandle@ivm@@@Z$1??$Invoke@$1?GetCpuTime@IsolateHandle@ivm@@QEAA?AV?$Local@VValue@v8@@@v8@@XZ@?$MethodCast@P8IsolateHandle@ivm@@EAA?AV?$Local@VValue@v8@@@v8@@XZ@ClassHandle@4@SA?AV12@0@Z@ClassHandle@ivm@@CAXV?$Local@VString@v8@@@v8@@AEBV?$PropertyCallbackInfo@VValue@v8@@@3@@Z 0000000180027e00 f i isolate_handle.obj
 0001:00026e10       ??$Invoke@$1??$CreateContext@$00@IsolateHandle@ivm@@QEAA?AV?$Local@VValue@v8@@@v8@@V?$MaybeLocal@VObject@v8@@@4@@Z@?$MethodCast@P8IsolateHandle@ivm@@EAA?AV?$Local@VValue@v8@@@v8@@V?$MaybeLocal@VObject@v8@@@4@@Z@ClassHandle@ivm@@SA?AV?$Local@VValue@v8@@@v8@@PEAVIsolateHandle@2@V?$MaybeLocal@VObject@v8@@@4@@Z 0000000180027e10 f i isolate_handle.obj
 0001:00026e40       ??$ParameterizeEntry@$0?0P6A?AV?$Local@VValue@v8@@@v8@@PEAVIsolateHandle@ivm@@V?$MaybeLocal@VObject@v8@@@2@@Z$1??$Invoke@$1??$CreateContext@$00@IsolateHandle@ivm@@QEAA?AV?$Local@VValue@v8@@@v8@@V?$MaybeLocal@VObject@v8@@@4@@Z@?$MethodCast@P8IsolateHandle@ivm@@EAA?AV?$Local@VValue@v8@@@v8@@V?$MaybeLocal@VObject@v8@@@4@@Z@ClassHandle@4@SA?AV12@01@Z@ClassHandle@ivm@@CAXAEBV?$FunctionCallbackInfo@VValue@v8@@@v8@@@Z 0000000180027e40 f i isolate_handle.obj
 0001:00026e50       ??$Invoke@$1??$CreateContext@$0A@@IsolateHandle@ivm@@QEAA?AV?$Local@VValue@v8@@@v8@@V?$MaybeLocal@VObject@v8@@@4@@Z@?$MethodCast@P8IsolateHandle@ivm@@EAA?AV?$Local@VValue@v8@@@v8@@V?$MaybeLocal@VObject@v8@@@4@@Z@ClassHandle@ivm@@SA?AV?$Local@VValue@v8@@@v8@@PEAVIsolateHandle@2@V?$MaybeLocal@VObject@v8@@@4@@Z 0000000180027e50 f i isolate_handle.obj
 0001:00026f00       ??$ParameterizeEntry@$0?0P6A?AV?$Local@VValue@v8@@@v8@@PEAVIsolateHandle@ivm@@V?$MaybeLocal@VObject@v8@@@2@@Z$1??$Invoke@$1??$CreateContext@$0A@@IsolateHandle@ivm@@QEAA?AV?$Local@VValue@v8@@@v8@@V?$MaybeLocal@VObject@v8@@@4@@Z@?$MethodCast@P8IsolateHandle@ivm@@EAA?AV?$Local@VValue@v8@@@v8@@V?$MaybeLocal@VObject@v8@@@4@@Z@ClassHandle@4@SA?AV12@01@Z@ClassHandle@ivm@@CAXAEBV?$FunctionCallbackInfo@VValue@v8@@@v8@@@Z 0000000180027f00 f i isolate_handle.obj
 0001:00026f10       ??$Invoke@$1?CreateInspectorSession@IsolateHandle@ivm@@QEAA?AV?$Local@VValue@v8@@@v8@@XZ@?$MethodCast@P8IsolateHandle@ivm@@EAA?AV?$Local@VValue@v8@@@v8@@XZ@ClassHandle@ivm@@SA?AV?$Local@VValue@v8@@@v8@@PEAVIsolateHandle@2@@Z 0000000180027f10 f i isolate_handle.obj
 0001:00026f40       ??$ParameterizeEntry@$0?0P6A?AV?$Local@VValue@v8@@@v8@@PEAVIsolateHandle@ivm@@@Z$1??$Invoke@$1?CreateInspectorSession@IsolateHandle@ivm@@QEAA?AV?$Local@VValue@v8@@@v8@@XZ@?$MethodCast@P8IsolateHandle@ivm@@EAA?AV?$Local@VValue@v8@@@v8@@XZ@ClassHandle@4@SA?AV12@0@Z@ClassHandle@ivm@@CAXAEBV?$FunctionCallbackInfo@VValue@v8@@@v8@@@Z 0000000180027f40 f i isolate_handle.obj
 0001:00026f50       ??$Invoke@$1?Dispose@IsolateHandle@ivm@@QEAA?AV?$Local@VValue@v8@@@v8@@XZ@?$MethodCast@P8IsolateHandle@ivm@@EAA?AV?$Local@VValue@v8@@@v8@@XZ@ClassHandle@ivm@@SA?AV?$Local@VValue@v8@@@v8@@PEAVIsolateHandle@2@@Z 0000000180027f50 f i isolate_handle.obj
 0001:00026f80       ??$ParameterizeEntry@$0?0P6A?AV?$Local@VValue@v8@@@v8@@PEAVIsolateHandle@ivm@@@Z$1??$Invoke@$1?Dispose@IsolateHandle@ivm@@QEAA?AV?$Local@VValue@v8@@@v8@@XZ@?$MethodCast@P8IsolateHandle@ivm@@EAA?AV?$Local@VValue@v8@@@v8@@XZ@ClassHandle@4@SA?AV12@0@Z@ClassHandle@ivm@@CAXAEBV?$FunctionCallbackInfo@VValue@v8@@@v8@@@Z 0000000180027f80 f i isolate_handle.obj
 0001:00026f90       ??$Invoke@$1??$GetHeapStatistics@$00@IsolateHandle@ivm@@QEAA?AV?$Local@VValue@v8@@@v8@@XZ@?$MethodCast@P8IsolateHandle@ivm@@EAA?AV?$Local@VValue@v8@@@v8@@XZ@ClassHandle@ivm@@SA?AV?$Local@VValue@v8@@@v8@@PEAVIsolateHandle@2@@Z 0000000180027f90 f i isolate_handle.obj
 0001:00026fc0       ??$ParameterizeEntry@$0?0P6A?AV?$Local@VValue@v8@@@v8@@PEAVIsolateHandle@ivm@@@Z$1??$Invoke@$1??$GetHeapStatistics@$00@IsolateHandle@ivm@@QEAA?AV?$Local@VValue@v8@@@v8@@XZ@?$MethodCast@P8IsolateHandle@ivm@@EAA?AV?$Local@VValue@v8@@@v8@@XZ@ClassHandle@4@SA?AV12@0@Z@ClassHandle@ivm@@CAXAEBV?$FunctionCallbackInfo@VValue@v8@@@v8@@@Z 0000000180027fc0 f i isolate_handle.obj
 0001:00026fd0       ??$Invoke@$1??$GetHeapStatistics@$0A@@IsolateHandle@ivm@@QEAA?AV?$Local@VValue@v8@@@v8@@XZ@?$MethodCast@P8IsolateHandle@ivm@@EAA?AV?$Local@VValue@v8@@@v8@@XZ@ClassHandle@ivm@@SA?AV?$Local@VValue@v8@@@v8@@PEAVIsolateHandle@2@@Z 0000000180027fd0 f i isolate_handle.obj
 0001:00027060       ??$ParameterizeEntry@$0?0P6A?AV?$Local@VValue@v8@@@v8@@PEAVIsolateHandle@ivm@@@Z$1??$Invoke@$1??$GetHeapStatistics@$0A@@IsolateHandle@ivm@@QEAA?AV?$Local@VValue@v8@@@v8@@XZ@?$MethodCast@P8IsolateHandle@ivm@@EAA?AV?$Local@VValue@v8@@@v8@@XZ@ClassHandle@4@SA?AV12@0@Z@ClassHandle@ivm@@CAXAEBV?$FunctionCallbackInfo@VValue@v8@@@v8@@@Z 0000000180028060 f i isolate_handle.obj
 0001:00027070       ??$Invoke@$1?IsDisposedGetter@IsolateHandle@ivm@@QEAA?AV?$Local@VValue@v8@@@v8@@XZ@?$MethodCast@P8IsolateHandle@ivm@@EAA?AV?$Local@VValue@v8@@@v8@@XZ@ClassHandle@ivm@@SA?AV?$Local@VValue@v8@@@v8@@PEAVIsolateHandle@2@@Z 0000000180028070 f i isolate_handle.obj
 0001:00027130       ??$ParameterizeGetterEntry@P6A?AV?$Local@VValue@v8@@@v8@@PEAVIsolateHandle@ivm@@@Z$1??$Invoke@$1?IsDisposedGetter@IsolateHandle@ivm@@QEAA?AV?$Local@VValue@v8@@@v8@@XZ@?$MethodCast@P8IsolateHandle@ivm@@EAA?AV?$Local@VValue@v8@@@v8@@XZ@ClassHandle@4@SA?AV12@0@Z@ClassHandle@ivm@@CAXV?$Local@VString@v8@@@v8@@AEBV?$PropertyCallbackInfo@VValue@v8@@@3@@Z 0000000180028130 f i isolate_handle.obj
 0001:00027140       ??$Invoke@$1?GetReferenceCount@IsolateHandle@ivm@@QEAA?AV?$Local@VValue@v8@@@v8@@XZ@?$MethodCast@P8IsolateHandle@ivm@@EAA?AV?$Local@VValue@v8@@@v8@@XZ@ClassHandle@ivm@@SA?AV?$Local@VValue@v8@@@v8@@PEAVIsolateHandle@2@@Z 0000000180028140 f i isolate_handle.obj
 0001:00027170       ??$ParameterizeGetterEntry@P6A?AV?$Local@VValue@v8@@@v8@@PEAVIsolateHandle@ivm@@@Z$1??$Invoke@$1?GetReferenceCount@IsolateHandle@ivm@@QEAA?AV?$Local@VValue@v8@@@v8@@XZ@?$MethodCast@P8IsolateHandle@ivm@@EAA?AV?$Local@VValue@v8@@@v8@@XZ@ClassHandle@4@SA?AV12@0@Z@ClassHandle@ivm@@CAXV?$Local@VString@v8@@@v8@@AEBV?$PropertyCallbackInfo@VValue@v8@@@3@@Z 0000000180028170 f i isolate_handle.obj
 0001:00027180       ??$Invoke@$1?GetWallTime@IsolateHandle@ivm@@QEAA?AV?$Local@VValue@v8@@@v8@@XZ@?$MethodCast@P8IsolateHandle@ivm@@EAA?AV?$Local@VValue@v8@@@v8@@XZ@ClassHandle@ivm@@SA?AV?$Local@VValue@v8@@@v8@@PEAVIsolateHandle@2@@Z 0000000180028180 f i isolate_handle.obj
 0001:000271b0       ??$ParameterizeGetterEntry@P6A?AV?$Local@VValue@v8@@@v8@@PEAVIsolateHandle@ivm@@@Z$1??$Invoke@$1?GetWallTime@IsolateHandle@ivm@@QEAA?AV?$Local@VValue@v8@@@v8@@XZ@?$MethodCast@P8IsolateHandle@ivm@@EAA?AV?$Local@VValue@v8@@@v8@@XZ@ClassHandle@4@SA?AV12@0@Z@ClassHandle@ivm@@CAXV?$Local@VString@v8@@@v8@@AEBV?$PropertyCallbackInfo@VValue@v8@@@3@@Z 00000001800281b0 f i isolate_handle.obj
 0001:000271c0       ??$Unmaybe@H@ivm@@YAHV?$Maybe@H@v8@@@Z 00000001800281c0 f i isolate_handle.obj
 0001:00027200       ??$GetFunctionTemplate@VModuleHandle@ivm@@@ClassHandle@ivm@@SA?AV?$Local@VFunctionTemplate@v8@@@v8@@XZ 0000000180028200 f i isolate_handle.obj
 0001:00027400       ??_E?$_Ref_count_obj@VExternalCopyArrayBuffer@ivm@@@std@@UEAAPEAXI@Z 0000000180028400 f i * CIL library *:* CIL module *
 0001:00027400       ??_G?$_Ref_count_obj@VExternalCopyArrayBuffer@ivm@@@std@@UEAAPEAXI@Z 0000000180028400 f i isolate_handle.obj
 0001:00027430       ??_E?$_Ref_count_obj@UModuleInfo@ivm@@@std@@UEAAPEAXI@Z 0000000180028430 f i * CIL library *:* CIL module *
 0001:00027430       ??_G?$_Ref_count_obj@UModuleInfo@ivm@@@std@@UEAAPEAXI@Z 0000000180028430 f i isolate_handle.obj
 0001:000274b0       ??_G?$_Ref_count_resource@PEAV?$RemoteHandle@VContext@v8@@@ivm@@UContextDeleter@?1??Phase2@CreateContextRunner@2@UEAAXXZ@@std@@UEAAPEAXI@Z 00000001800284b0 f i isolate_handle.obj
 0001:000274b0       ??_E?$_Ref_count_resource@PEAV?$RemoteHandle@VContext@v8@@@ivm@@UContextDeleter@?1??Phase2@CreateContextRunner@2@UEAAXXZ@@std@@UEAAPEAXI@Z 00000001800284b0 f i * CIL library *:* CIL module *
 0001:00028510       ?Invoke@?$ConvertParamInvoke@U?$ConvertParam@V?$Local@VArray@v8@@@v8@@@ivm@@$0A@$01@ivm@@SA?AV?$Local@VArray@v8@@@v8@@AEBV?$FunctionCallbackInfo@VValue@v8@@@4@@Z 0000000180029510 f i isolate_handle.obj
 0001:00028620       ?Invoke@?$ConvertParamInvoke@U?$ConvertParam@PEAVIsolateHandle@ivm@@@ivm@@$0?0$01@ivm@@SAPEAVIsolateHandle@2@AEBV?$FunctionCallbackInfo@VValue@v8@@@v8@@@Z 0000000180029620 f i isolate_handle.obj
 0001:00028670       ?Invoke@?$ConvertParamInvoke@U?$ConvertParam@PEAVIsolateHandle@ivm@@@ivm@@$0?0$0A@@ivm@@SAPEAVIsolateHandle@2@AEBV?$PropertyCallbackInfo@VValue@v8@@@v8@@@Z 0000000180029670 f i isolate_handle.obj
 0001:000286c0       ?Invoke@?$ConvertParamInvoke@U?$ConvertParam@PEAVIsolateHandle@ivm@@@ivm@@$0?0$00@ivm@@SAPEAVIsolateHandle@2@AEBV?$FunctionCallbackInfo@VValue@v8@@@v8@@@Z 00000001800296c0 f i isolate_handle.obj
 0001:00028710       ?Invoke@?$ConvertParamInvoke@U?$ConvertParam@PEAVIsolateHandle@ivm@@@ivm@@$0?0$0A@@ivm@@SAPEAVIsolateHandle@2@AEBV?$FunctionCallbackInfo@VValue@v8@@@v8@@@Z 0000000180029710 f i isolate_handle.obj
 0001:00028760       ??$AddMethods@PEBDU?$pair@P6AXAEBV?$FunctionCallbackInfo@VValue@v8@@@v8@@@ZH@std@@PEBDU12@PEBDU?$pair@P6AXV?$Local@VString@v8@@@v8@@AEBV?$PropertyCallbackInfo@VValue@v8@@@2@@ZP6AX0V?$Local@VValue@v8@@@2@AEBV?$PropertyCallbackInfo@X@2@@Z@2@PEBDU12@PEBDU12@PEBDU12@PEBDU12@PEBDU12@PEBDU12@PEBDU32@PEBDU32@PEBDU32@@ClassHandle@ivm@@CAXPEAVIsolate@v8@@AEAV?$Local@VFunctionTemplate@v8@@@3@AEAV?$Local@VObjectTemplate@v8@@@3@AEAV?$Local@VSignature@v8@@@3@AEAV?$Local@VAccessorSignature@v8@@@3@PEBDU?$pair@P6AXAEBV?$FunctionCallbackInfo@VValue@v8@@@v8@@@ZH@std@@56565U?$pair@P6AXV?$Local@VString@v8@@@v8@@AEBV?$PropertyCallbackInfo@VValue@v8@@@2@@ZP6AX0V?$Local@VValue@v8@@@2@AEBV?$PropertyCallbackInfo@X@2@@Z@9@565656565656575757@Z 0000000180029760 f i isolate_handle.obj
 0001:00028b90       ?Convert@?$ConvertParam@PEAVIsolateHandle@ivm@@@ivm@@SAPEAVIsolateHandle@2@V?$Local@VValue@v8@@@v8@@@Z 0000000180029b90 f i isolate_handle.obj
 0001:00028ce0       ?Invoke@?$ConvertParamInvoke@U?$ConvertParam@V?$MaybeLocal@VString@v8@@@v8@@@ivm@@$00$01@ivm@@SA?AV?$MaybeLocal@VString@v8@@@v8@@AEBV?$FunctionCallbackInfo@VValue@v8@@@4@@Z 0000000180029ce0 f i isolate_handle.obj
 0001:00028dc0       ?Invoke@?$ConvertParamInvoke@U?$ConvertParam@V?$Local@VString@v8@@@v8@@@ivm@@$0A@$01@ivm@@SA?AV?$Local@VString@v8@@@v8@@AEBV?$FunctionCallbackInfo@VValue@v8@@@4@@Z 0000000180029dc0 f i isolate_handle.obj
 0001:00028ed0       ??$AddMethods@PEBDU?$pair@P6AXAEBV?$FunctionCallbackInfo@VValue@v8@@@v8@@@ZH@std@@PEBDU12@PEBDU12@PEBDU12@PEBDU12@PEBDU12@PEBDU?$pair@P6AXV?$Local@VString@v8@@@v8@@AEBV?$PropertyCallbackInfo@VValue@v8@@@2@@ZP6AX0V?$Local@VValue@v8@@@2@AEBV?$PropertyCallbackInfo@X@2@@Z@2@PEBDU32@PEBDU32@@ClassHandle@ivm@@CAXPEAVIsolate@v8@@AEAV?$Local@VFunctionTemplate@v8@@@3@AEAV?$Local@VObjectTemplate@v8@@@3@AEAV?$Local@VSignature@v8@@@3@AEAV?$Local@VAccessorSignature@v8@@@3@PEBDU?$pair@P6AXV?$Local@VString@v8@@@v8@@AEBV?$PropertyCallbackInfo@VValue@v8@@@2@@ZP6AX0V?$Local@VValue@v8@@@2@AEBV?$PropertyCallbackInfo@X@2@@Z@std@@5U?$pair@P6AXAEBV?$FunctionCallbackInfo@VValue@v8@@@v8@@@ZH@9@5757575757565656@Z 0000000180029ed0 f i isolate_handle.obj
 0001:00029340       ??$AddMethods@PEBDU?$pair@P6AXAEBV?$FunctionCallbackInfo@VValue@v8@@@v8@@@ZH@std@@PEBDU?$pair@P6AXV?$Local@VString@v8@@@v8@@AEBV?$PropertyCallbackInfo@VValue@v8@@@2@@ZP6AX0V?$Local@VValue@v8@@@2@AEBV?$PropertyCallbackInfo@X@2@@Z@2@PEBDU32@PEBDU32@@ClassHandle@ivm@@CAXPEAVIsolate@v8@@AEAV?$Local@VFunctionTemplate@v8@@@3@AEAV?$Local@VObjectTemplate@v8@@@3@AEAV?$Local@VSignature@v8@@@3@AEAV?$Local@VAccessorSignature@v8@@@3@PEBDU?$pair@P6AXAEBV?$FunctionCallbackInfo@VValue@v8@@@v8@@@ZH@std@@565U?$pair@P6AXV?$Local@VString@v8@@@v8@@AEBV?$PropertyCallbackInfo@VValue@v8@@@2@@ZP6AX0V?$Local@VValue@v8@@@2@AEBV?$PropertyCallbackInfo@X@2@@Z@9@5757@Z 000000018002a340 f i isolate_handle.obj
 0001:00029670       ?Convert@?$ConvertParam@V?$MaybeLocal@VArray@v8@@@v8@@@ivm@@SA?AV?$MaybeLocal@VArray@v8@@@v8@@AEBV?$Local@VValue@v8@@@4@@Z 000000018002a670 f i lib_handle.obj
 0001:00029710       ?TransferIn@LibTransferable@LibHandle@ivm@@UEAA?AV?$Local@VValue@v8@@@v8@@XZ 000000018002a710 f   lib_handle.obj
 0001:00029740       ?TransferOut@LibHandle@ivm@@UEAA?AV?$unique_ptr@VTransferable@ivm@@U?$default_delete@VTransferable@ivm@@@std@@@std@@XZ 000000018002a740 f   lib_handle.obj
 0001:00029770       ?Hrtime@LibHandle@ivm@@AEAA?AV?$Local@VValue@v8@@@v8@@V?$MaybeLocal@VArray@v8@@@4@@Z 000000018002a770 f   lib_handle.obj
 0001:000299e0       ??$Invoke@$1?Hrtime@LibHandle@ivm@@AEAA?AV?$Local@VValue@v8@@@v8@@V?$MaybeLocal@VArray@v8@@@5@@Z@?$MethodCast@P8LibHandle@ivm@@EAA?AV?$Local@VValue@v8@@@v8@@V?$MaybeLocal@VArray@v8@@@4@@Z@ClassHandle@ivm@@SA?AV?$Local@VValue@v8@@@v8@@PEAVLibHandle@2@V?$MaybeLocal@VArray@v8@@@4@@Z 000000018002a9e0 f i lib_handle.obj
 0001:00029a10       ??$ParameterizeEntry@$0?0P6A?AV?$Local@VValue@v8@@@v8@@PEAVLibHandle@ivm@@V?$MaybeLocal@VArray@v8@@@2@@Z$1??$Invoke@$1?Hrtime@LibHandle@ivm@@AEAA?AV?$Local@VValue@v8@@@v8@@V?$MaybeLocal@VArray@v8@@@5@@Z@?$MethodCast@P8LibHandle@ivm@@EAA?AV?$Local@VValue@v8@@@v8@@V?$MaybeLocal@VArray@v8@@@4@@Z@ClassHandle@4@SA?AV12@01@Z@ClassHandle@ivm@@CAXAEBV?$FunctionCallbackInfo@VValue@v8@@@v8@@@Z 000000018002aa10 f i lib_handle.obj
 0001:00029ac0       ?Invoke@?$ConvertParamInvoke@U?$ConvertParam@PEAVLibHandle@ivm@@@ivm@@$0?0$00@ivm@@SAPEAVLibHandle@2@AEBV?$FunctionCallbackInfo@VValue@v8@@@v8@@@Z 000000018002aac0 f i lib_handle.obj
 0001:00029b10       ?Convert@?$ConvertParam@PEAVLibHandle@ivm@@@ivm@@SAPEAVLibHandle@2@V?$Local@VValue@v8@@@v8@@@Z 000000018002ab10 f i lib_handle.obj
 0001:00029c60       ?Invoke@?$ConvertParamInvoke@U?$ConvertParam@V?$MaybeLocal@VArray@v8@@@v8@@@ivm@@$0A@$00@ivm@@SA?AV?$MaybeLocal@VArray@v8@@@v8@@AEBV?$FunctionCallbackInfo@VValue@v8@@@4@@Z 000000018002ac60 f i lib_handle.obj
 0001:00029cf0       ?TransferIn@NativeModuleTransferable@NativeModuleHandle@ivm@@UEAA?AV?$Local@VValue@v8@@@v8@@XZ 000000018002acf0 f   native_module_handle.obj
 0001:00029e00       ?New@NativeModuleHandle@ivm@@SA?AV?$unique_ptr@VNativeModuleHandle@ivm@@U?$default_delete@VNativeModuleHandle@ivm@@@std@@@std@@V?$Local@VString@v8@@@v8@@@Z 000000018002ae00 f   native_module_handle.obj
 0001:0002a000       ?TransferOut@NativeModuleHandle@ivm@@UEAA?AV?$unique_ptr@VTransferable@ivm@@U?$default_delete@VTransferable@ivm@@@std@@@std@@XZ 000000018002b000 f   native_module_handle.obj
 0001:0002a070       ??0CreateRunner@ivm@@QEAA@V?$shared_ptr@V?$RemoteHandle@VContext@v8@@@ivm@@@std@@V?$shared_ptr@VNativeModule@ivm@@@3@@Z 000000018002b070 f i native_module_handle.obj
 0001:0002a160       ?Phase2@CreateRunner@ivm@@MEAAXXZ 000000018002b160 f i native_module_handle.obj
 0001:0002a3d0       ?Phase3@CreateRunner@ivm@@MEAA?AV?$Local@VValue@v8@@@v8@@XZ 000000018002b3d0 f i native_module_handle.obj
 0001:0002a3d0       ?Phase3@CopyRunner@ivm@@UEAA?AV?$Local@VValue@v8@@@v8@@XZ 000000018002b3d0 f i reference_handle.obj
 0001:0002a3f0       ??_ECopyRunner@ivm@@UEAAPEAXI@Z 000000018002b3f0 f i * CIL library *:* CIL module *
 0001:0002a3f0       ??_GCopyRunner@ivm@@UEAAPEAXI@Z 000000018002b3f0 f i reference_handle.obj
 0001:0002a3f0       ??_ECreateRunner@ivm@@UEAAPEAXI@Z 000000018002b3f0 f i * CIL library *:* CIL module *
 0001:0002a3f0       ??_GCreateRunner@ivm@@UEAAPEAXI@Z 000000018002b3f0 f i native_module_handle.obj
 0001:0002a430       ??1CopyRunner@ivm@@UEAA@XZ 000000018002b430 f i reference_handle.obj
 0001:0002a430       ??1CreateRunner@ivm@@UEAA@XZ 000000018002b430 f i native_module_handle.obj
 0001:0002a4e0       ??$Create@$00@NativeModuleHandle@ivm@@AEAA?AV?$Local@VValue@v8@@@v8@@PEAVContextHandle@1@@Z 000000018002b4e0 f i native_module_handle.obj
 0001:0002a640       ??$Create@$0A@@NativeModuleHandle@ivm@@AEAA?AV?$Local@VValue@v8@@@v8@@PEAVContextHandle@1@@Z 000000018002b640 f i native_module_handle.obj
 0001:0002a710       ??$MakeClass@PEBDU?$pair@P6AXAEBV?$FunctionCallbackInfo@VValue@v8@@@v8@@@ZH@std@@PEBDU12@@ClassHandle@ivm@@KA?AV?$Local@VFunctionTemplate@v8@@@v8@@PEBDUCtorFunction@01@0U?$pair@P6AXAEBV?$FunctionCallbackInfo@VValue@v8@@@v8@@@ZH@std@@02@Z 000000018002b710 f i native_module_handle.obj
 0001:0002a980       ?_Destroy@?$_Ref_count_obj@VNativeModule@ivm@@@std@@EEAAXXZ 000000018002b980 f i native_module_handle.obj
 0001:0002a990       ??$ParameterizeCtorEntry@P6A?AV?$unique_ptr@VNativeModuleHandle@ivm@@U?$default_delete@VNativeModuleHandle@ivm@@@std@@@std@@V?$Local@VString@v8@@@v8@@@Z$1?New@NativeModuleHandle@ivm@@SA?AV12@0@Z@ClassHandle@ivm@@CAXAEBV?$FunctionCallbackInfo@VValue@v8@@@v8@@@Z 000000018002b990 f i native_module_handle.obj
 0001:0002a9a0       ??$Invoke@$1??$Create@$00@NativeModuleHandle@ivm@@AEAA?AV?$Local@VValue@v8@@@v8@@PEAVContextHandle@2@@Z@?$MethodCast@P8NativeModuleHandle@ivm@@EAA?AV?$Local@VValue@v8@@@v8@@PEAVContextHandle@2@@Z@ClassHandle@ivm@@SA?AV?$Local@VValue@v8@@@v8@@PEAVNativeModuleHandle@2@PEAVContextHandle@2@@Z 000000018002b9a0 f i native_module_handle.obj
 0001:0002a9d0       ??$ParameterizeEntry@$0?0P6A?AV?$Local@VValue@v8@@@v8@@PEAVNativeModuleHandle@ivm@@PEAVContextHandle@4@@Z$1??$Invoke@$1??$Create@$00@NativeModuleHandle@ivm@@AEAA?AV?$Local@VValue@v8@@@v8@@PEAVContextHandle@2@@Z@?$MethodCast@P8NativeModuleHandle@ivm@@EAA?AV?$Local@VValue@v8@@@v8@@PEAVContextHandle@2@@Z@ClassHandle@4@SA?AV12@01@Z@ClassHandle@ivm@@CAXAEBV?$FunctionCallbackInfo@VValue@v8@@@v8@@@Z 000000018002b9d0 f i native_module_handle.obj
 0001:0002a9e0       ??$Invoke@$1??$Create@$0A@@NativeModuleHandle@ivm@@AEAA?AV?$Local@VValue@v8@@@v8@@PEAVContextHandle@2@@Z@?$MethodCast@P8NativeModuleHandle@ivm@@EAA?AV?$Local@VValue@v8@@@v8@@PEAVContextHandle@2@@Z@ClassHandle@ivm@@SA?AV?$Local@VValue@v8@@@v8@@PEAVNativeModuleHandle@2@PEAVContextHandle@2@@Z 000000018002b9e0 f i native_module_handle.obj
 0001:0002aa10       ??$ParameterizeEntry@$0?0P6A?AV?$Local@VValue@v8@@@v8@@PEAVNativeModuleHandle@ivm@@PEAVContextHandle@4@@Z$1??$Invoke@$1??$Create@$0A@@NativeModuleHandle@ivm@@AEAA?AV?$Local@VValue@v8@@@v8@@PEAVContextHandle@2@@Z@?$MethodCast@P8NativeModuleHandle@ivm@@EAA?AV?$Local@VValue@v8@@@v8@@PEAVContextHandle@2@@Z@ClassHandle@4@SA?AV12@01@Z@ClassHandle@ivm@@CAXAEBV?$FunctionCallbackInfo@VValue@v8@@@v8@@@Z 000000018002ba10 f i native_module_handle.obj
 0001:0002aa20       ??$_Insert@AEAU?$pair@QEAVNativeModule@ivm@@V?$shared_ptr@VNativeModule@ivm@@@std@@@std@@V?$_List_unchecked_iterator@V?$_List_val@U?$_List_simple_types@U?$pair@QEAVNativeModule@ivm@@V?$shared_ptr@VNativeModule@ivm@@@std@@@std@@@std@@@std@@@2@@?$_Hash@V?$_Umap_traits@PEAVNativeModule@ivm@@V?$shared_ptr@VNativeModule@ivm@@@std@@V?$_Uhash_compare@PEAVNativeModule@ivm@@U?$hash@PEAVNativeModule@ivm@@@std@@U?$equal_to@PEAVNativeModule@ivm@@@4@@4@V?$allocator@U?$pair@QEAVNativeModule@ivm@@V?$shared_ptr@VNativeModule@ivm@@@std@@@std@@@4@$0A@@std@@@std@@IEAA?AU?$pair@V?$_List_iterator@V?$_List_val@U?$_List_simple_types@U?$pair@QEAVNativeModule@ivm@@V?$shared_ptr@VNativeModule@ivm@@@std@@@std@@@std@@@std@@@std@@_N@1@AEAU?$pair@QEAVNativeModule@ivm@@V?$shared_ptr@VNativeModule@ivm@@@std@@@1@V?$_List_unchecked_iterator@V?$_List_val@U?$_List_simple_types@U?$pair@QEAVNativeModule@ivm@@V?$shared_ptr@VNativeModule@ivm@@@std@@@std@@@std@@@std@@@1@@Z 000000018002ba20 f i native_module_handle.obj
 0001:0002ac60       ?_Destroy_if_node@?$_Hash@V?$_Umap_traits@PEAVNativeModule@ivm@@V?$shared_ptr@VNativeModule@ivm@@@std@@V?$_Uhash_compare@PEAVNativeModule@ivm@@U?$hash@PEAVNativeModule@ivm@@@std@@U?$equal_to@PEAVNativeModule@ivm@@@4@@4@V?$allocator@U?$pair@QEAVNativeModule@ivm@@V?$shared_ptr@VNativeModule@ivm@@@std@@@std@@@4@$0A@@std@@@std@@IEAAXV?$_List_unchecked_iterator@V?$_List_val@U?$_List_simple_types@U?$pair@QEAVNativeModule@ivm@@V?$shared_ptr@VNativeModule@ivm@@@std@@@std@@@std@@@std@@@2@@Z 000000018002bc60 f i native_module_handle.obj
 0001:0002b070       ?Invoke@?$ConvertParamInvoke@U?$ConvertParam@V?$Local@VString@v8@@@v8@@@ivm@@$0A@$00@ivm@@SA?AV?$Local@VString@v8@@@v8@@AEBV?$FunctionCallbackInfo@VValue@v8@@@4@@Z 000000018002c070 f i native_module_handle.obj
 0001:0002b180       ?Invoke@?$ConvertParamInvoke@U?$ConvertParam@PEAVNativeModuleHandle@ivm@@@ivm@@$0?0$00@ivm@@SAPEAVNativeModuleHandle@2@AEBV?$FunctionCallbackInfo@VValue@v8@@@v8@@@Z 000000018002c180 f i native_module_handle.obj
 0001:0002b1d0       ?Convert@?$ConvertParam@PEAVNativeModuleHandle@ivm@@@ivm@@SAPEAVNativeModuleHandle@2@V?$Local@VValue@v8@@@v8@@@Z 000000018002c1d0 f i native_module_handle.obj
 0001:0002b320       ?Invoke@?$ConvertParamInvoke@U?$ConvertParam@PEAVContextHandle@ivm@@@ivm@@$0A@$00@ivm@@SAPEAVContextHandle@2@AEBV?$FunctionCallbackInfo@VValue@v8@@@v8@@@Z 000000018002c320 f i native_module_handle.obj
 0001:0002b390       ?CancelAsync@IsolateEnvironment@ivm@@QEAAXXZ 000000018002c390 f i reference_handle.obj
 0001:0002b410       ??0timer_t@ivm@@QEAA@IPEAPEAXV?$function@$$A6AXPEAX@Z@std@@@Z 000000018002c410 f i reference_handle.obj
 0001:0002b5d0       ?global_mutex@ThreadWait@ivm@@CAAEAVmutex@std@@XZ 000000018002c5d0 f i reference_handle.obj
 0001:0002b650       ?global_cv@ThreadWait@ivm@@CAAEAVcondition_variable@std@@XZ 000000018002c650 f i reference_handle.obj
 0001:0002b6d0       ??1ThreadWait@ivm@@QEAA@XZ 000000018002c6d0 f i reference_handle.obj
 0001:0002b7c0       ?Run@TimeoutRunner@ivm@@UEAAXXZ 000000018002c7c0 f i reference_handle.obj
 0001:0002b880       ??_ETimeoutRunner@ivm@@UEAAPEAXI@Z 000000018002c880 f i * CIL library *:* CIL module *
 0001:0002b880       ??_GTimeoutRunner@ivm@@UEAAPEAXI@Z 000000018002c880 f i reference_handle.obj
 0001:0002ba10       ??0ReferenceHandleTransferable@ReferenceHandle@ivm@@QEAA@V?$shared_ptr@VIsolateHolder@ivm@@@std@@V?$shared_ptr@V?$RemoteHandle@VValue@v8@@@ivm@@@4@V?$shared_ptr@V?$RemoteHandle@VContext@v8@@@ivm@@@4@W4TypeOf@12@@Z 000000018002ca10 f   reference_handle.obj
 0001:0002bb70       ??_EReferenceHandleTransferable@ReferenceHandle@ivm@@UEAAPEAXI@Z 000000018002cb70 f i * CIL library *:* CIL module *
 0001:0002bb70       ??_GReferenceHandleTransferable@ReferenceHandle@ivm@@UEAAPEAXI@Z 000000018002cb70 f i reference_handle.obj
 0001:0002bc60       ?TransferIn@ReferenceHandleTransferable@ReferenceHandle@ivm@@UEAA?AV?$Local@VValue@v8@@@v8@@XZ 000000018002cc60 f   reference_handle.obj
 0001:0002bdb0       ??0ReferenceHandle@ivm@@QEAA@V?$shared_ptr@VIsolateHolder@ivm@@@std@@V?$shared_ptr@V?$RemoteHandle@VValue@v8@@@ivm@@@3@V?$shared_ptr@V?$RemoteHandle@VContext@v8@@@ivm@@@3@W4TypeOf@01@@Z 000000018002cdb0 f   reference_handle.obj
 0001:0002bf10       ??_GReferenceHandle@ivm@@UEAAPEAXI@Z 000000018002cf10 f i reference_handle.obj
 0001:0002bf10       ??_EReferenceHandle@ivm@@UEAAPEAXI@Z 000000018002cf10 f i * CIL library *:* CIL module *
 0001:0002c030       ?TransferOut@ReferenceHandle@ivm@@UEAA?AV?$unique_ptr@VTransferable@ivm@@U?$default_delete@VTransferable@ivm@@@std@@@std@@XZ 000000018002d030 f   reference_handle.obj
 0001:0002c0e0       ?New@ReferenceHandle@ivm@@SA?AV?$unique_ptr@VReferenceHandle@ivm@@U?$default_delete@VReferenceHandle@ivm@@@std@@@std@@V?$Local@VValue@v8@@@v8@@@Z 000000018002d0e0 f   reference_handle.obj
 0001:0002c290       ?CheckDisposed@ReferenceHandle@ivm@@AEBAXXZ 000000018002d290 f   reference_handle.obj
 0001:0002c300       ?TypeOfGetter@ReferenceHandle@ivm@@QEAA?AV?$Local@VValue@v8@@@v8@@XZ 000000018002d300 f   reference_handle.obj
 0001:0002c5f0       ?Deref@ReferenceHandle@ivm@@QEAA?AV?$Local@VValue@v8@@@v8@@V?$MaybeLocal@VObject@v8@@@4@@Z 000000018002d5f0 f   reference_handle.obj
 0001:0002c780       ?Release@ReferenceHandle@ivm@@QEAA?AV?$Local@VValue@v8@@@v8@@XZ 000000018002d780 f   reference_handle.obj
 0001:0002c890       ??0CopyRunner@ivm@@QEAA@AEBVReferenceHandle@1@V?$shared_ptr@V?$RemoteHandle@VContext@v8@@@ivm@@@std@@V?$shared_ptr@V?$RemoteHandle@VValue@v8@@@ivm@@@4@@Z 000000018002d890 f i reference_handle.obj
 0001:0002c990       ?Phase2@CopyRunner@ivm@@UEAAXXZ 000000018002d990 f i reference_handle.obj
 0001:0002caf0       ??0GetRunner@ivm@@QEAA@AEBVReferenceHandle@1@AEAV?$Local@VValue@v8@@@v8@@V?$shared_ptr@V?$RemoteHandle@VContext@v8@@@ivm@@@std@@V?$shared_ptr@V?$RemoteHandle@VValue@v8@@@ivm@@@6@@Z 000000018002daf0 f i reference_handle.obj
 0001:0002ccb0       ?Phase2@GetRunner@ivm@@UEAAXXZ 000000018002dcb0 f i reference_handle.obj
 0001:0002cec0       ?Phase3@GetRunner@ivm@@UEAA?AV?$Local@VValue@v8@@@v8@@XZ 000000018002dec0 f i reference_handle.obj
 0001:0002d010       ??_EGetRunner@ivm@@UEAAPEAXI@Z 000000018002e010 f i * CIL library *:* CIL module *
 0001:0002d010       ??_GGetRunner@ivm@@UEAAPEAXI@Z 000000018002e010 f i reference_handle.obj
 0001:0002d050       ??1GetRunner@ivm@@UEAA@XZ  000000018002e050 f i reference_handle.obj
 0001:0002d110       ??0SetRunner@ivm@@QEAA@AEAVReferenceHandle@1@AEAV?$Local@VValue@v8@@@v8@@1V?$shared_ptr@V?$RemoteHandle@VContext@v8@@@ivm@@@std@@V?$shared_ptr@V?$RemoteHandle@VValue@v8@@@ivm@@@6@@Z 000000018002e110 f i reference_handle.obj
 0001:0002d390       ?Phase2@SetRunner@ivm@@UEAAXXZ 000000018002e390 f i reference_handle.obj
 0001:0002d500       ?Phase3@SetRunner@ivm@@UEAA?AV?$Local@VValue@v8@@@v8@@XZ 000000018002e500 f i reference_handle.obj
 0001:0002d540       ??_ESetRunner@ivm@@UEAAPEAXI@Z 000000018002e540 f i * CIL library *:* CIL module *
 0001:0002d540       ??_GSetRunner@ivm@@UEAAPEAXI@Z 000000018002e540 f i reference_handle.obj
 0001:0002d580       ??1SetRunner@ivm@@UEAA@XZ  000000018002e580 f i reference_handle.obj
 0001:0002d640       ??0ApplyRunner@ivm@@QEAA@AEAVReferenceHandle@1@AEAV?$MaybeLocal@VValue@v8@@@v8@@AEAV?$MaybeLocal@VArray@v8@@@4@AEAV?$MaybeLocal@VObject@v8@@@4@V?$shared_ptr@V?$RemoteHandle@VContext@v8@@@ivm@@@std@@V?$shared_ptr@V?$RemoteHandle@VValue@v8@@@ivm@@@8@@Z 000000018002e640 f i reference_handle.obj
 0001:0002dce0       ?AsyncCallback@ApplyRunner@ivm@@SAXAEBV?$FunctionCallbackInfo@VValue@v8@@@v8@@@Z 000000018002ece0 f i reference_handle.obj
 0001:0002df20       ?CompileAsyncWrapper@ApplyRunner@ivm@@SA?AV?$Local@VFunction@v8@@@v8@@XZ 000000018002ef20 f i reference_handle.obj
 0001:0002e180       ?TransferArguments@ApplyRunner@ivm@@QEAA?AV?$vector@V?$Local@VValue@v8@@@v8@@V?$allocator@V?$Local@VValue@v8@@@v8@@@std@@@std@@XZ 000000018002f180 f i reference_handle.obj
 0001:0002e220       ?Phase2@ApplyRunner@ivm@@UEAAXXZ 000000018002f220 f i reference_handle.obj
 0001:0002e4b0       ?Phase2Async@ApplyRunner@ivm@@UEAA_NAEAVAsyncWait@Scheduler@IsolateEnvironment@2@@Z 000000018002f4b0 f i reference_handle.obj
 0001:0002ea10       ?Phase3@ApplyRunner@ivm@@UEAA?AV?$Local@VValue@v8@@@v8@@XZ 000000018002fa10 f i reference_handle.obj
 0001:0002eb10       ?TransferIn@DereferenceHandleTransferable@DereferenceHandle@ivm@@UEAA?AV?$Local@VValue@v8@@@v8@@XZ 000000018002fb10 f   reference_handle.obj
 0001:0002ec40       ?TransferOut@DereferenceHandle@ivm@@UEAA?AV?$unique_ptr@VTransferable@ivm@@U?$default_delete@VTransferable@ivm@@@std@@@std@@XZ 000000018002fc40 f   reference_handle.obj
 0001:0002ed20       ??_EApplyRunner@ivm@@UEAAPEAXI@Z 000000018002fd20 f i * CIL library *:* CIL module *
 0001:0002ed20       ??_GApplyRunner@ivm@@UEAAPEAXI@Z 000000018002fd20 f i reference_handle.obj
 0001:0002ed60       ??1ApplyRunner@ivm@@UEAA@XZ 000000018002fd60 f i reference_handle.obj
 0001:0002ef30       ??_EDereferenceHandle@ivm@@UEAAPEAXI@Z 000000018002ff30 f i * CIL library *:* CIL module *
 0001:0002ef30       ??_GDereferenceHandle@ivm@@UEAAPEAXI@Z 000000018002ff30 f i reference_handle.obj
 0001:0002f020       ??1?$unique_ptr@V?$shared_ptr@_N@std@@U?$default_delete@V?$shared_ptr@_N@std@@@2@@std@@QEAA@XZ 0000000180030020 f i reference_handle.obj
 0001:0002f0a0       ??$emplace_back@V?$unique_ptr@VTransferable@ivm@@U?$default_delete@VTransferable@ivm@@@std@@@std@@@?$vector@V?$unique_ptr@VTransferable@ivm@@U?$default_delete@VTransferable@ivm@@@std@@@std@@V?$allocator@V?$unique_ptr@VTransferable@ivm@@U?$default_delete@VTransferable@ivm@@@std@@@std@@@2@@std@@QEAAX$$QEAV?$unique_ptr@VTransferable@ivm@@U?$default_delete@VTransferable@ivm@@@std@@@1@@Z 00000001800300a0 f i reference_handle.obj
 0001:0002f220       ??$Copy@$00@ReferenceHandle@ivm@@QEAA?AV?$Local@VValue@v8@@@v8@@XZ 0000000180030220 f i reference_handle.obj
 0001:0002f380       ??$Copy@$0A@@ReferenceHandle@ivm@@QEAA?AV?$Local@VValue@v8@@@v8@@XZ 0000000180030380 f i reference_handle.obj
 0001:0002f440       ??$Get@$00@ReferenceHandle@ivm@@QEAA?AV?$Local@VValue@v8@@@v8@@V23@@Z 0000000180030440 f i reference_handle.obj
 0001:0002f5b0       ??$Get@$0A@@ReferenceHandle@ivm@@QEAA?AV?$Local@VValue@v8@@@v8@@V23@@Z 00000001800305b0 f i reference_handle.obj
 0001:0002f680       ??$Set@$00@ReferenceHandle@ivm@@QEAA?AV?$Local@VValue@v8@@@v8@@V23@0@Z 0000000180030680 f i reference_handle.obj
 0001:0002f810       ??$Set@$01@ReferenceHandle@ivm@@QEAA?AV?$Local@VValue@v8@@@v8@@V23@0@Z 0000000180030810 f i reference_handle.obj
 0001:0002f940       ??$Set@$0A@@ReferenceHandle@ivm@@QEAA?AV?$Local@VValue@v8@@@v8@@V23@0@Z 0000000180030940 f i reference_handle.obj
 0001:0002fa20       ??$Apply@$00@ReferenceHandle@ivm@@QEAA?AV?$Local@VValue@v8@@@v8@@V?$MaybeLocal@VValue@v8@@@3@V?$MaybeLocal@VArray@v8@@@3@V?$MaybeLocal@VObject@v8@@@3@@Z 0000000180030a20 f i reference_handle.obj
 0001:0002fbc0       ??$Apply@$01@ReferenceHandle@ivm@@QEAA?AV?$Local@VValue@v8@@@v8@@V?$MaybeLocal@VValue@v8@@@3@V?$MaybeLocal@VArray@v8@@@3@V?$MaybeLocal@VObject@v8@@@3@@Z 0000000180030bc0 f i reference_handle.obj
 0001:0002fc90       ??$Apply@$0A@@ReferenceHandle@ivm@@QEAA?AV?$Local@VValue@v8@@@v8@@V?$MaybeLocal@VValue@v8@@@3@V?$MaybeLocal@VArray@v8@@@3@V?$MaybeLocal@VObject@v8@@@3@@Z 0000000180030c90 f i reference_handle.obj
 0001:0002fd80       ??$Apply@$03@ReferenceHandle@ivm@@QEAA?AV?$Local@VValue@v8@@@v8@@V?$MaybeLocal@VValue@v8@@@3@V?$MaybeLocal@VArray@v8@@@3@V?$MaybeLocal@VObject@v8@@@3@@Z 0000000180030d80 f i reference_handle.obj
 0001:0002fe70       ??$MakeClass@PEBDU?$pair@P6AXAEBV?$FunctionCallbackInfo@VValue@v8@@@v8@@@ZH@std@@PEBDU12@PEBDU12@PEBDU12@PEBDU12@PEBDU12@PEBDU12@PEBDU12@PEBDU12@PEBDU12@PEBDU12@PEBDU12@PEBDU12@PEBDU12@PEBDU12@PEBDU?$pair@P6AXV?$Local@VString@v8@@@v8@@AEBV?$PropertyCallbackInfo@VValue@v8@@@2@@ZP6AX0V?$Local@VValue@v8@@@2@AEBV?$PropertyCallbackInfo@X@2@@Z@2@@ClassHandle@ivm@@KA?AV?$Local@VFunctionTemplate@v8@@@v8@@PEBDUCtorFunction@01@0U?$pair@P6AXAEBV?$FunctionCallbackInfo@VValue@v8@@@v8@@@ZH@std@@02020202020202020202020202020U?$pair@P6AXV?$Local@VString@v8@@@v8@@AEBV?$PropertyCallbackInfo@VValue@v8@@@2@@ZP6AX0V?$Local@VValue@v8@@@2@AEBV?$PropertyCallbackInfo@X@2@@Z@6@@Z 0000000180030e70 f i reference_handle.obj
 0001:00030330       ??$NewInstance@VDereferenceHandle@ivm@@AEAV?$shared_ptr@VIsolateHolder@ivm@@@std@@AEAV?$shared_ptr@V?$RemoteHandle@VValue@v8@@@ivm@@@4@@ClassHandle@ivm@@SA?AV?$Local@VObject@v8@@@v8@@AEAV?$shared_ptr@VIsolateHolder@ivm@@@std@@AEAV?$shared_ptr@V?$RemoteHandle@VValue@v8@@@ivm@@@5@@Z 0000000180031330 f i reference_handle.obj
 0001:000314b0       ??1?$unique_ptr@Vtimer_t@ivm@@U?$default_delete@Vtimer_t@ivm@@@std@@@std@@QEAA@XZ 00000001800324b0 f i reference_handle.obj
 0001:000314c0       ?_Destroy@?$_Ref_count_obj@V?$RemoteHandle@VContext@v8@@@ivm@@@std@@EEAAXXZ 00000001800324c0 f i reference_handle.obj
 0001:000314d0       ??0?$js_error_ctor@$1?Error@Exception@v8@@SA?AV?$Local@VValue@v8@@@3@V?$Local@VString@v8@@@3@@Z@ivm@@QEAA@PEBDV?$basic_string@DU?$char_traits@D@std@@V?$allocator@D@2@@std@@@Z 00000001800324d0 f i reference_handle.obj
 0001:00031550       ??R?$default_delete@Vtimer_t@ivm@@@std@@QEBAXPEAVtimer_t@ivm@@@Z 0000000180032550 f i reference_handle.obj
 0001:00031650       ??$ParameterizeCtorEntry@P6A?AV?$unique_ptr@VReferenceHandle@ivm@@U?$default_delete@VReferenceHandle@ivm@@@std@@@std@@V?$Local@VValue@v8@@@v8@@@Z$1?New@ReferenceHandle@ivm@@SA?AV12@0@Z@ClassHandle@ivm@@CAXAEBV?$FunctionCallbackInfo@VValue@v8@@@v8@@@Z 0000000180032650 f i reference_handle.obj
 0001:00031660       ??$Invoke@$1?Deref@ReferenceHandle@ivm@@QEAA?AV?$Local@VValue@v8@@@v8@@V?$MaybeLocal@VObject@v8@@@5@@Z@?$MethodCast@P8ReferenceHandle@ivm@@EAA?AV?$Local@VValue@v8@@@v8@@V?$MaybeLocal@VObject@v8@@@4@@Z@ClassHandle@ivm@@SA?AV?$Local@VValue@v8@@@v8@@PEAVReferenceHandle@2@V?$MaybeLocal@VObject@v8@@@4@@Z 0000000180032660 f i reference_handle.obj
 0001:00031690       ??$ParameterizeEntry@$0?0P6A?AV?$Local@VValue@v8@@@v8@@PEAVReferenceHandle@ivm@@V?$MaybeLocal@VObject@v8@@@2@@Z$1??$Invoke@$1?Deref@ReferenceHandle@ivm@@QEAA?AV?$Local@VValue@v8@@@v8@@V?$MaybeLocal@VObject@v8@@@5@@Z@?$MethodCast@P8ReferenceHandle@ivm@@EAA?AV?$Local@VValue@v8@@@v8@@V?$MaybeLocal@VObject@v8@@@4@@Z@ClassHandle@4@SA?AV12@01@Z@ClassHandle@ivm@@CAXAEBV?$FunctionCallbackInfo@VValue@v8@@@v8@@@Z 0000000180032690 f i reference_handle.obj
 0001:000316a0       ??$Invoke@$1?DerefInto@ReferenceHandle@ivm@@QEAA?AV?$Local@VValue@v8@@@v8@@V?$MaybeLocal@VObject@v8@@@5@@Z@?$MethodCast@P8ReferenceHandle@ivm@@EAA?AV?$Local@VValue@v8@@@v8@@V?$MaybeLocal@VObject@v8@@@4@@Z@ClassHandle@ivm@@SA?AV?$Local@VValue@v8@@@v8@@PEAVReferenceHandle@2@V?$MaybeLocal@VObject@v8@@@4@@Z 00000001800326a0 f i reference_handle.obj
 0001:00031730       ??$ParameterizeEntry@$0?0P6A?AV?$Local@VValue@v8@@@v8@@PEAVReferenceHandle@ivm@@V?$MaybeLocal@VObject@v8@@@2@@Z$1??$Invoke@$1?DerefInto@ReferenceHandle@ivm@@QEAA?AV?$Local@VValue@v8@@@v8@@V?$MaybeLocal@VObject@v8@@@5@@Z@?$MethodCast@P8ReferenceHandle@ivm@@EAA?AV?$Local@VValue@v8@@@v8@@V?$MaybeLocal@VObject@v8@@@4@@Z@ClassHandle@4@SA?AV12@01@Z@ClassHandle@ivm@@CAXAEBV?$FunctionCallbackInfo@VValue@v8@@@v8@@@Z 0000000180032730 f i reference_handle.obj
 0001:00031740       ??$Invoke@$1?Dispose@ReferenceHandle@ivm@@QEAA?AV?$Local@VValue@v8@@@v8@@XZ@?$MethodCast@P8ReferenceHandle@ivm@@EAA?AV?$Local@VValue@v8@@@v8@@XZ@ClassHandle@ivm@@SA?AV?$Local@VValue@v8@@@v8@@PEAVReferenceHandle@2@@Z 0000000180032740 f i reference_handle.obj
 0001:00031770       ??$ParameterizeEntry@$0?0P6A?AV?$Local@VValue@v8@@@v8@@PEAVReferenceHandle@ivm@@@Z$1??$Invoke@$1?Dispose@ReferenceHandle@ivm@@QEAA?AV?$Local@VValue@v8@@@v8@@XZ@?$MethodCast@P8ReferenceHandle@ivm@@EAA?AV?$Local@VValue@v8@@@v8@@XZ@ClassHandle@4@SA?AV12@0@Z@ClassHandle@ivm@@CAXAEBV?$FunctionCallbackInfo@VValue@v8@@@v8@@@Z 0000000180032770 f i reference_handle.obj
 0001:00031780       ??$Invoke@$1?Release@ReferenceHandle@ivm@@QEAA?AV?$Local@VValue@v8@@@v8@@XZ@?$MethodCast@P8ReferenceHandle@ivm@@EAA?AV?$Local@VValue@v8@@@v8@@XZ@ClassHandle@ivm@@SA?AV?$Local@VValue@v8@@@v8@@PEAVReferenceHandle@2@@Z 0000000180032780 f i reference_handle.obj
 0001:000317b0       ??$ParameterizeEntry@$0?0P6A?AV?$Local@VValue@v8@@@v8@@PEAVReferenceHandle@ivm@@@Z$1??$Invoke@$1?Release@ReferenceHandle@ivm@@QEAA?AV?$Local@VValue@v8@@@v8@@XZ@?$MethodCast@P8ReferenceHandle@ivm@@EAA?AV?$Local@VValue@v8@@@v8@@XZ@ClassHandle@4@SA?AV12@0@Z@ClassHandle@ivm@@CAXAEBV?$FunctionCallbackInfo@VValue@v8@@@v8@@@Z 00000001800327b0 f i reference_handle.obj
 0001:000317c0       ??$Invoke@$1??$Copy@$00@ReferenceHandle@ivm@@QEAA?AV?$Local@VValue@v8@@@v8@@XZ@?$MethodCast@P8ReferenceHandle@ivm@@EAA?AV?$Local@VValue@v8@@@v8@@XZ@ClassHandle@ivm@@SA?AV?$Local@VValue@v8@@@v8@@PEAVReferenceHandle@2@@Z 00000001800327c0 f i reference_handle.obj
 0001:000317f0       ??$ParameterizeEntry@$0?0P6A?AV?$Local@VValue@v8@@@v8@@PEAVReferenceHandle@ivm@@@Z$1??$Invoke@$1??$Copy@$00@ReferenceHandle@ivm@@QEAA?AV?$Local@VValue@v8@@@v8@@XZ@?$MethodCast@P8ReferenceHandle@ivm@@EAA?AV?$Local@VValue@v8@@@v8@@XZ@ClassHandle@4@SA?AV12@0@Z@ClassHandle@ivm@@CAXAEBV?$FunctionCallbackInfo@VValue@v8@@@v8@@@Z 00000001800327f0 f i reference_handle.obj
 0001:00031800       ??$Invoke@$1??$Copy@$0A@@ReferenceHandle@ivm@@QEAA?AV?$Local@VValue@v8@@@v8@@XZ@?$MethodCast@P8ReferenceHandle@ivm@@EAA?AV?$Local@VValue@v8@@@v8@@XZ@ClassHandle@ivm@@SA?AV?$Local@VValue@v8@@@v8@@PEAVReferenceHandle@2@@Z 0000000180032800 f i reference_handle.obj
 0001:00031830       ??$ParameterizeEntry@$0?0P6A?AV?$Local@VValue@v8@@@v8@@PEAVReferenceHandle@ivm@@@Z$1??$Invoke@$1??$Copy@$0A@@ReferenceHandle@ivm@@QEAA?AV?$Local@VValue@v8@@@v8@@XZ@?$MethodCast@P8ReferenceHandle@ivm@@EAA?AV?$Local@VValue@v8@@@v8@@XZ@ClassHandle@4@SA?AV12@0@Z@ClassHandle@ivm@@CAXAEBV?$FunctionCallbackInfo@VValue@v8@@@v8@@@Z 0000000180032830 f i reference_handle.obj
 0001:00031980       ??$Invoke@$1??$Get@$00@ReferenceHandle@ivm@@QEAA?AV?$Local@VValue@v8@@@v8@@V34@@Z@?$MethodCast@P8ReferenceHandle@ivm@@EAA?AV?$Local@VValue@v8@@@v8@@V34@@Z@ClassHandle@ivm@@SA?AV?$Local@VValue@v8@@@v8@@PEAVReferenceHandle@2@V34@@Z 0000000180032980 f i reference_handle.obj
 0001:000319b0       ??$ParameterizeEntry@$0?0P6A?AV?$Local@VValue@v8@@@v8@@PEAVReferenceHandle@ivm@@V12@@Z$1??$Invoke@$1??$Get@$00@ReferenceHandle@ivm@@QEAA?AV?$Local@VValue@v8@@@v8@@V34@@Z@?$MethodCast@P8ReferenceHandle@ivm@@EAA?AV?$Local@VValue@v8@@@v8@@V34@@Z@ClassHandle@4@SA?AV12@01@Z@ClassHandle@ivm@@CAXAEBV?$FunctionCallbackInfo@VValue@v8@@@v8@@@Z 00000001800329b0 f i reference_handle.obj
 0001:000319c0       ??$Invoke@$1??$Get@$0A@@ReferenceHandle@ivm@@QEAA?AV?$Local@VValue@v8@@@v8@@V34@@Z@?$MethodCast@P8ReferenceHandle@ivm@@EAA?AV?$Local@VValue@v8@@@v8@@V34@@Z@ClassHandle@ivm@@SA?AV?$Local@VValue@v8@@@v8@@PEAVReferenceHandle@2@V34@@Z 00000001800329c0 f i reference_handle.obj
 0001:000319f0       ??$ParameterizeEntry@$0?0P6A?AV?$Local@VValue@v8@@@v8@@PEAVReferenceHandle@ivm@@V12@@Z$1??$Invoke@$1??$Get@$0A@@ReferenceHandle@ivm@@QEAA?AV?$Local@VValue@v8@@@v8@@V34@@Z@?$MethodCast@P8ReferenceHandle@ivm@@EAA?AV?$Local@VValue@v8@@@v8@@V34@@Z@ClassHandle@4@SA?AV12@01@Z@ClassHandle@ivm@@CAXAEBV?$FunctionCallbackInfo@VValue@v8@@@v8@@@Z 00000001800329f0 f i reference_handle.obj
 0001:00031b50       ??$Invoke@$1??$Set@$00@ReferenceHandle@ivm@@QEAA?AV?$Local@VValue@v8@@@v8@@V34@0@Z@?$MethodCast@P8ReferenceHandle@ivm@@EAA?AV?$Local@VValue@v8@@@v8@@V34@0@Z@ClassHandle@ivm@@SA?AV?$Local@VValue@v8@@@v8@@PEAVReferenceHandle@2@V34@1@Z 0000000180032b50 f i reference_handle.obj
 0001:00031b80       ??$ParameterizeEntry@$0?0P6A?AV?$Local@VValue@v8@@@v8@@PEAVReferenceHandle@ivm@@V12@1@Z$1??$Invoke@$1??$Set@$00@ReferenceHandle@ivm@@QEAA?AV?$Local@VValue@v8@@@v8@@V34@0@Z@?$MethodCast@P8ReferenceHandle@ivm@@EAA?AV?$Local@VValue@v8@@@v8@@V34@0@Z@ClassHandle@4@SA?AV12@011@Z@ClassHandle@ivm@@CAXAEBV?$FunctionCallbackInfo@VValue@v8@@@v8@@@Z 0000000180032b80 f i reference_handle.obj
 0001:00031b90       ??$Invoke@$1??$Set@$01@ReferenceHandle@ivm@@QEAA?AV?$Local@VValue@v8@@@v8@@V34@0@Z@?$MethodCast@P8ReferenceHandle@ivm@@EAA?AV?$Local@VValue@v8@@@v8@@V34@0@Z@ClassHandle@ivm@@SA?AV?$Local@VValue@v8@@@v8@@PEAVReferenceHandle@2@V34@1@Z 0000000180032b90 f i reference_handle.obj
 0001:00031bc0       ??$ParameterizeEntry@$0?0P6A?AV?$Local@VValue@v8@@@v8@@PEAVReferenceHandle@ivm@@V12@1@Z$1??$Invoke@$1??$Set@$01@ReferenceHandle@ivm@@QEAA?AV?$Local@VValue@v8@@@v8@@V34@0@Z@?$MethodCast@P8ReferenceHandle@ivm@@EAA?AV?$Local@VValue@v8@@@v8@@V34@0@Z@ClassHandle@4@SA?AV12@011@Z@ClassHandle@ivm@@CAXAEBV?$FunctionCallbackInfo@VValue@v8@@@v8@@@Z 0000000180032bc0 f i reference_handle.obj
 0001:00031bd0       ??$Invoke@$1??$Set@$0A@@ReferenceHandle@ivm@@QEAA?AV?$Local@VValue@v8@@@v8@@V34@0@Z@?$MethodCast@P8ReferenceHandle@ivm@@EAA?AV?$Local@VValue@v8@@@v8@@V34@0@Z@ClassHandle@ivm@@SA?AV?$Local@VValue@v8@@@v8@@PEAVReferenceHandle@2@V34@1@Z 0000000180032bd0 f i reference_handle.obj
 0001:00031c00       ??$ParameterizeEntry@$0?0P6A?AV?$Local@VValue@v8@@@v8@@PEAVReferenceHandle@ivm@@V12@1@Z$1??$Invoke@$1??$Set@$0A@@ReferenceHandle@ivm@@QEAA?AV?$Local@VValue@v8@@@v8@@V34@0@Z@?$MethodCast@P8ReferenceHandle@ivm@@EAA?AV?$Local@VValue@v8@@@v8@@V34@0@Z@ClassHandle@4@SA?AV12@011@Z@ClassHandle@ivm@@CAXAEBV?$FunctionCallbackInfo@VValue@v8@@@v8@@@Z 0000000180032c00 f i reference_handle.obj
 0001:00031d70       ??$Invoke@$1??$Apply@$00@ReferenceHandle@ivm@@QEAA?AV?$Local@VValue@v8@@@v8@@V?$MaybeLocal@VValue@v8@@@4@V?$MaybeLocal@VArray@v8@@@4@V?$MaybeLocal@VObject@v8@@@4@@Z@?$MethodCast@P8ReferenceHandle@ivm@@EAA?AV?$Local@VValue@v8@@@v8@@V?$MaybeLocal@VValue@v8@@@4@V?$MaybeLocal@VArray@v8@@@4@V?$MaybeLocal@VObject@v8@@@4@@Z@ClassHandle@ivm@@SA?AV?$Local@VValue@v8@@@v8@@PEAVReferenceHandle@2@V?$MaybeLocal@VValue@v8@@@4@V?$MaybeLocal@VArray@v8@@@4@V?$MaybeLocal@VObject@v8@@@4@@Z 0000000180032d70 f i reference_handle.obj
 0001:00031db0       ??$ParameterizeEntry@$0?0P6A?AV?$Local@VValue@v8@@@v8@@PEAVReferenceHandle@ivm@@V?$MaybeLocal@VValue@v8@@@2@V?$MaybeLocal@VArray@v8@@@2@V?$MaybeLocal@VObject@v8@@@2@@Z$1??$Invoke@$1??$Apply@$00@ReferenceHandle@ivm@@QEAA?AV?$Local@VValue@v8@@@v8@@V?$MaybeLocal@VValue@v8@@@4@V?$MaybeLocal@VArray@v8@@@4@V?$MaybeLocal@VObject@v8@@@4@@Z@?$MethodCast@P8ReferenceHandle@ivm@@EAA?AV?$Local@VValue@v8@@@v8@@V?$MaybeLocal@VValue@v8@@@4@V?$MaybeLocal@VArray@v8@@@4@V?$MaybeLocal@VObject@v8@@@4@@Z@ClassHandle@4@SA?AV12@0123@Z@ClassHandle@ivm@@CAXAEBV?$FunctionCallbackInfo@VValue@v8@@@v8@@@Z 0000000180032db0 f i reference_handle.obj
 0001:00031dc0       ??$Invoke@$1??$Apply@$01@ReferenceHandle@ivm@@QEAA?AV?$Local@VValue@v8@@@v8@@V?$MaybeLocal@VValue@v8@@@4@V?$MaybeLocal@VArray@v8@@@4@V?$MaybeLocal@VObject@v8@@@4@@Z@?$MethodCast@P8ReferenceHandle@ivm@@EAA?AV?$Local@VValue@v8@@@v8@@V?$MaybeLocal@VValue@v8@@@4@V?$MaybeLocal@VArray@v8@@@4@V?$MaybeLocal@VObject@v8@@@4@@Z@ClassHandle@ivm@@SA?AV?$Local@VValue@v8@@@v8@@PEAVReferenceHandle@2@V?$MaybeLocal@VValue@v8@@@4@V?$MaybeLocal@VArray@v8@@@4@V?$MaybeLocal@VObject@v8@@@4@@Z 0000000180032dc0 f i reference_handle.obj
 0001:00031e00       ??$ParameterizeEntry@$0?0P6A?AV?$Local@VValue@v8@@@v8@@PEAVReferenceHandle@ivm@@V?$MaybeLocal@VValue@v8@@@2@V?$MaybeLocal@VArray@v8@@@2@V?$MaybeLocal@VObject@v8@@@2@@Z$1??$Invoke@$1??$Apply@$01@ReferenceHandle@ivm@@QEAA?AV?$Local@VValue@v8@@@v8@@V?$MaybeLocal@VValue@v8@@@4@V?$MaybeLocal@VArray@v8@@@4@V?$MaybeLocal@VObject@v8@@@4@@Z@?$MethodCast@P8ReferenceHandle@ivm@@EAA?AV?$Local@VValue@v8@@@v8@@V?$MaybeLocal@VValue@v8@@@4@V?$MaybeLocal@VArray@v8@@@4@V?$MaybeLocal@VObject@v8@@@4@@Z@ClassHandle@4@SA?AV12@0123@Z@ClassHandle@ivm@@CAXAEBV?$FunctionCallbackInfo@VValue@v8@@@v8@@@Z 0000000180032e00 f i reference_handle.obj
 0001:00031e10       ??$Invoke@$1??$Apply@$0A@@ReferenceHandle@ivm@@QEAA?AV?$Local@VValue@v8@@@v8@@V?$MaybeLocal@VValue@v8@@@4@V?$MaybeLocal@VArray@v8@@@4@V?$MaybeLocal@VObject@v8@@@4@@Z@?$MethodCast@P8ReferenceHandle@ivm@@EAA?AV?$Local@VValue@v8@@@v8@@V?$MaybeLocal@VValue@v8@@@4@V?$MaybeLocal@VArray@v8@@@4@V?$MaybeLocal@VObject@v8@@@4@@Z@ClassHandle@ivm@@SA?AV?$Local@VValue@v8@@@v8@@PEAVReferenceHandle@2@V?$MaybeLocal@VValue@v8@@@4@V?$MaybeLocal@VArray@v8@@@4@V?$MaybeLocal@VObject@v8@@@4@@Z 0000000180032e10 f i reference_handle.obj
 0001:00031e50       ??$ParameterizeEntry@$0?0P6A?AV?$Local@VValue@v8@@@v8@@PEAVReferenceHandle@ivm@@V?$MaybeLocal@VValue@v8@@@2@V?$MaybeLocal@VArray@v8@@@2@V?$MaybeLocal@VObject@v8@@@2@@Z$1??$Invoke@$1??$Apply@$0A@@ReferenceHandle@ivm@@QEAA?AV?$Local@VValue@v8@@@v8@@V?$MaybeLocal@VValue@v8@@@4@V?$MaybeLocal@VArray@v8@@@4@V?$MaybeLocal@VObject@v8@@@4@@Z@?$MethodCast@P8ReferenceHandle@ivm@@EAA?AV?$Local@VValue@v8@@@v8@@V?$MaybeLocal@VValue@v8@@@4@V?$MaybeLocal@VArray@v8@@@4@V?$MaybeLocal@VObject@v8@@@4@@Z@ClassHandle@4@SA?AV12@0123@Z@ClassHandle@ivm@@CAXAEBV?$FunctionCallbackInfo@VValue@v8@@@v8@@@Z 0000000180032e50 f i reference_handle.obj
 0001:00031e60       ??$Invoke@$1??$Apply@$03@ReferenceHandle@ivm@@QEAA?AV?$Local@VValue@v8@@@v8@@V?$MaybeLocal@VValue@v8@@@4@V?$MaybeLocal@VArray@v8@@@4@V?$MaybeLocal@VObject@v8@@@4@@Z@?$MethodCast@P8ReferenceHandle@ivm@@EAA?AV?$Local@VValue@v8@@@v8@@V?$MaybeLocal@VValue@v8@@@4@V?$MaybeLocal@VArray@v8@@@4@V?$MaybeLocal@VObject@v8@@@4@@Z@ClassHandle@ivm@@SA?AV?$Local@VValue@v8@@@v8@@PEAVReferenceHandle@2@V?$MaybeLocal@VValue@v8@@@4@V?$MaybeLocal@VArray@v8@@@4@V?$MaybeLocal@VObject@v8@@@4@@Z 0000000180032e60 f i reference_handle.obj
 0001:00031ea0       ??$ParameterizeEntry@$0?0P6A?AV?$Local@VValue@v8@@@v8@@PEAVReferenceHandle@ivm@@V?$MaybeLocal@VValue@v8@@@2@V?$MaybeLocal@VArray@v8@@@2@V?$MaybeLocal@VObject@v8@@@2@@Z$1??$Invoke@$1??$Apply@$03@ReferenceHandle@ivm@@QEAA?AV?$Local@VValue@v8@@@v8@@V?$MaybeLocal@VValue@v8@@@4@V?$MaybeLocal@VArray@v8@@@4@V?$MaybeLocal@VObject@v8@@@4@@Z@?$MethodCast@P8ReferenceHandle@ivm@@EAA?AV?$Local@VValue@v8@@@v8@@V?$MaybeLocal@VValue@v8@@@4@V?$MaybeLocal@VArray@v8@@@4@V?$MaybeLocal@VObject@v8@@@4@@Z@ClassHandle@4@SA?AV12@0123@Z@ClassHandle@ivm@@CAXAEBV?$FunctionCallbackInfo@VValue@v8@@@v8@@@Z 0000000180032ea0 f i reference_handle.obj
 0001:00031eb0       ??$Invoke@$1?TypeOfGetter@ReferenceHandle@ivm@@QEAA?AV?$Local@VValue@v8@@@v8@@XZ@?$MethodCast@P8ReferenceHandle@ivm@@EAA?AV?$Local@VValue@v8@@@v8@@XZ@ClassHandle@ivm@@SA?AV?$Local@VValue@v8@@@v8@@PEAVReferenceHandle@2@@Z 0000000180032eb0 f i reference_handle.obj
 0001:00031ee0       ??$ParameterizeGetterEntry@P6A?AV?$Local@VValue@v8@@@v8@@PEAVReferenceHandle@ivm@@@Z$1??$Invoke@$1?TypeOfGetter@ReferenceHandle@ivm@@QEAA?AV?$Local@VValue@v8@@@v8@@XZ@?$MethodCast@P8ReferenceHandle@ivm@@EAA?AV?$Local@VValue@v8@@@v8@@XZ@ClassHandle@4@SA?AV12@0@Z@ClassHandle@ivm@@CAXV?$Local@VString@v8@@@v8@@AEBV?$PropertyCallbackInfo@VValue@v8@@@3@@Z 0000000180032ee0 f i reference_handle.obj
 0001:00032900       ??$make_unique@UApplyRunner@ivm@@AEAVReferenceHandle@2@AEAV?$MaybeLocal@VValue@v8@@@v8@@AEAV?$MaybeLocal@VArray@v8@@@5@AEAV?$MaybeLocal@VObject@v8@@@5@AEAV?$shared_ptr@V?$RemoteHandle@VContext@v8@@@ivm@@@std@@AEAV?$shared_ptr@V?$RemoteHandle@VValue@v8@@@ivm@@@9@$0A@@std@@YA?AV?$unique_ptr@UApplyRunner@ivm@@U?$default_delete@UApplyRunner@ivm@@@std@@@0@AEAVReferenceHandle@ivm@@AEAV?$MaybeLocal@VValue@v8@@@v8@@AEAV?$MaybeLocal@VArray@v8@@@5@AEAV?$MaybeLocal@VObject@v8@@@5@AEAV?$shared_ptr@V?$RemoteHandle@VContext@v8@@@ivm@@@0@AEAV?$shared_ptr@V?$RemoteHandle@VValue@v8@@@ivm@@@0@@Z 0000000180033900 f i reference_handle.obj
 0001:00032fc0       ??$AddMethods@PEBDU?$pair@P6AXAEBV?$FunctionCallbackInfo@VValue@v8@@@v8@@@ZH@std@@PEBDU12@PEBDU12@PEBDU12@PEBDU12@PEBDU12@PEBDU12@PEBDU12@PEBDU12@PEBDU12@PEBDU12@PEBDU12@PEBDU12@PEBDU?$pair@P6AXV?$Local@VString@v8@@@v8@@AEBV?$PropertyCallbackInfo@VValue@v8@@@2@@ZP6AX0V?$Local@VValue@v8@@@2@AEBV?$PropertyCallbackInfo@X@2@@Z@2@@ClassHandle@ivm@@CAXPEAVIsolate@v8@@AEAV?$Local@VFunctionTemplate@v8@@@3@AEAV?$Local@VObjectTemplate@v8@@@3@AEAV?$Local@VSignature@v8@@@3@AEAV?$Local@VAccessorSignature@v8@@@3@PEBDU?$pair@P6AXAEBV?$FunctionCallbackInfo@VValue@v8@@@v8@@@ZH@std@@565656565656565656565656565U?$pair@P6AXV?$Local@VString@v8@@@v8@@AEBV?$PropertyCallbackInfo@VValue@v8@@@2@@ZP6AX0V?$Local@VValue@v8@@@2@AEBV?$PropertyCallbackInfo@X@2@@Z@9@@Z 0000000180033fc0 f i reference_handle.obj
 0001:00033430       ?Invoke@?$ConvertParamInvoke@U?$ConvertParam@V?$Local@VValue@v8@@@v8@@@ivm@@$0A@$00@ivm@@SA?AV?$Local@VValue@v8@@@v8@@AEBV?$FunctionCallbackInfo@VValue@v8@@@4@@Z 0000000180034430 f i reference_handle.obj
 0001:000334f0       ?Invoke@?$ConvertParamInvoke@U?$ConvertParam@PEAVReferenceHandle@ivm@@@ivm@@$0?0$00@ivm@@SAPEAVReferenceHandle@2@AEBV?$FunctionCallbackInfo@VValue@v8@@@v8@@@Z 00000001800344f0 f i reference_handle.obj
 0001:00033540       ?Invoke@?$ConvertParamInvoke@U?$ConvertParam@PEAVReferenceHandle@ivm@@@ivm@@$0?0$0A@@ivm@@SAPEAVReferenceHandle@2@AEBV?$FunctionCallbackInfo@VValue@v8@@@v8@@@Z 0000000180034540 f i reference_handle.obj
 0001:00033590       ?Invoke@?$ConvertParamInvoke@U?$ConvertParam@PEAVReferenceHandle@ivm@@@ivm@@$0?0$01@ivm@@SAPEAVReferenceHandle@2@AEBV?$FunctionCallbackInfo@VValue@v8@@@v8@@@Z 0000000180034590 f i reference_handle.obj
 0001:000335e0       ?Invoke@?$ConvertParamInvoke@U?$ConvertParam@PEAVReferenceHandle@ivm@@@ivm@@$0?0$02@ivm@@SAPEAVReferenceHandle@2@AEBV?$FunctionCallbackInfo@VValue@v8@@@v8@@@Z 00000001800345e0 f i reference_handle.obj
 0001:00033630       ?Invoke@?$ConvertParamInvoke@U?$ConvertParam@PEAVReferenceHandle@ivm@@@ivm@@$0?0$0A@@ivm@@SAPEAVReferenceHandle@2@AEBV?$PropertyCallbackInfo@VValue@v8@@@v8@@@Z 0000000180034630 f i reference_handle.obj
 0001:00033710       ?Convert@?$ConvertParam@PEAVReferenceHandle@ivm@@@ivm@@SAPEAVReferenceHandle@2@V?$Local@VValue@v8@@@v8@@@Z 0000000180034710 f i reference_handle.obj
 0001:00033860       ?Invoke@?$ConvertParamInvoke@U?$ConvertParam@V?$MaybeLocal@VValue@v8@@@v8@@@ivm@@$0A@$02@ivm@@SA?AV?$MaybeLocal@VValue@v8@@@v8@@AEBV?$FunctionCallbackInfo@VValue@v8@@@4@@Z 0000000180034860 f i reference_handle.obj
 0001:000338e0       ?Invoke@?$ConvertParamInvoke@U?$ConvertParam@V?$Local@VValue@v8@@@v8@@@ivm@@$00$01@ivm@@SA?AV?$Local@VValue@v8@@@v8@@AEBV?$FunctionCallbackInfo@VValue@v8@@@4@@Z 00000001800348e0 f i reference_handle.obj
 0001:000339a0       ?Invoke@?$ConvertParamInvoke@U?$ConvertParam@V?$MaybeLocal@VArray@v8@@@v8@@@ivm@@$00$02@ivm@@SA?AV?$MaybeLocal@VArray@v8@@@v8@@AEBV?$FunctionCallbackInfo@VValue@v8@@@4@@Z 00000001800349a0 f i reference_handle.obj
 0001:00033a30       ??$AddMethods@PEBDU?$pair@P6AXAEBV?$FunctionCallbackInfo@VValue@v8@@@v8@@@ZH@std@@PEBDU12@PEBDU12@PEBDU12@PEBDU12@PEBDU12@PEBDU12@PEBDU12@PEBDU12@PEBDU12@PEBDU?$pair@P6AXV?$Local@VString@v8@@@v8@@AEBV?$PropertyCallbackInfo@VValue@v8@@@2@@ZP6AX0V?$Local@VValue@v8@@@2@AEBV?$PropertyCallbackInfo@X@2@@Z@2@@ClassHandle@ivm@@CAXPEAVIsolate@v8@@AEAV?$Local@VFunctionTemplate@v8@@@3@AEAV?$Local@VObjectTemplate@v8@@@3@AEAV?$Local@VSignature@v8@@@3@AEAV?$Local@VAccessorSignature@v8@@@3@PEBDU?$pair@P6AXAEBV?$FunctionCallbackInfo@VValue@v8@@@v8@@@ZH@std@@565656565656565656565U?$pair@P6AXV?$Local@VString@v8@@@v8@@AEBV?$PropertyCallbackInfo@VValue@v8@@@2@@ZP6AX0V?$Local@VValue@v8@@@2@AEBV?$PropertyCallbackInfo@X@2@@Z@9@@Z 0000000180034a30 f i reference_handle.obj
 0001:00033e30       ?Invoke@?$ConvertParamInvoke@U?$ConvertParam@V?$MaybeLocal@VObject@v8@@@v8@@@ivm@@$01$02@ivm@@SA?AV?$MaybeLocal@VObject@v8@@@v8@@AEBV?$FunctionCallbackInfo@VValue@v8@@@4@@Z 0000000180034e30 f i reference_handle.obj
 0001:00033ec0       ??$AddMethods@PEBDU?$pair@P6AXAEBV?$FunctionCallbackInfo@VValue@v8@@@v8@@@ZH@std@@PEBDU12@PEBDU12@PEBDU12@PEBDU12@PEBDU12@PEBDU12@PEBDU?$pair@P6AXV?$Local@VString@v8@@@v8@@AEBV?$PropertyCallbackInfo@VValue@v8@@@2@@ZP6AX0V?$Local@VValue@v8@@@2@AEBV?$PropertyCallbackInfo@X@2@@Z@2@@ClassHandle@ivm@@CAXPEAVIsolate@v8@@AEAV?$Local@VFunctionTemplate@v8@@@3@AEAV?$Local@VObjectTemplate@v8@@@3@AEAV?$Local@VSignature@v8@@@3@AEAV?$Local@VAccessorSignature@v8@@@3@PEBDU?$pair@P6AXAEBV?$FunctionCallbackInfo@VValue@v8@@@v8@@@ZH@std@@565656565656565U?$pair@P6AXV?$Local@VString@v8@@@v8@@AEBV?$PropertyCallbackInfo@VValue@v8@@@2@@ZP6AX0V?$Local@VValue@v8@@@2@AEBV?$PropertyCallbackInfo@X@2@@Z@9@@Z 0000000180034ec0 f i reference_handle.obj
 0001:000342d0       ??$AddMethods@PEBDU?$pair@P6AXAEBV?$FunctionCallbackInfo@VValue@v8@@@v8@@@ZH@std@@PEBDU12@PEBDU12@PEBDU?$pair@P6AXV?$Local@VString@v8@@@v8@@AEBV?$PropertyCallbackInfo@VValue@v8@@@2@@ZP6AX0V?$Local@VValue@v8@@@2@AEBV?$PropertyCallbackInfo@X@2@@Z@2@@ClassHandle@ivm@@CAXPEAVIsolate@v8@@AEAV?$Local@VFunctionTemplate@v8@@@3@AEAV?$Local@VObjectTemplate@v8@@@3@AEAV?$Local@VSignature@v8@@@3@AEAV?$Local@VAccessorSignature@v8@@@3@PEBDU?$pair@P6AXAEBV?$FunctionCallbackInfo@VValue@v8@@@v8@@@ZH@std@@5656565U?$pair@P6AXV?$Local@VString@v8@@@v8@@AEBV?$PropertyCallbackInfo@VValue@v8@@@2@@ZP6AX0V?$Local@VValue@v8@@@2@AEBV?$PropertyCallbackInfo@X@2@@Z@9@@Z 00000001800352d0 f i reference_handle.obj
 0001:00034630       ?TransferIn@ScriptHandleTransferable@ScriptHandle@ivm@@UEAA?AV?$Local@VValue@v8@@@v8@@XZ 0000000180035630 f   script_handle.obj
 0001:00034740       ?TransferOut@ScriptHandle@ivm@@UEAA?AV?$unique_ptr@VTransferable@ivm@@U?$default_delete@VTransferable@ivm@@@std@@@std@@XZ 0000000180035740 f   script_handle.obj
 0001:000347b0       ??0RunRunner@ivm@@QEAA@V?$shared_ptr@V?$RemoteHandle@VUnboundScript@v8@@@ivm@@@std@@IPEAVContextHandle@1@@Z 00000001800357b0 f i script_handle.obj
 0001:000348e0       ?Phase2@RunRunner@ivm@@UEAAXXZ 00000001800358e0 f i script_handle.obj
 0001:000349f0       ?Phase3@RunRunner@ivm@@UEAA?AV?$Local@VValue@v8@@@v8@@XZ 00000001800359f0 f i script_handle.obj
 0001:00034a30       ??_ERunRunner@ivm@@UEAAPEAXI@Z 0000000180035a30 f i * CIL library *:* CIL module *
 0001:00034a30       ??_GRunRunner@ivm@@UEAAPEAXI@Z 0000000180035a30 f i script_handle.obj
 0001:00034a70       ??1RunRunner@ivm@@UEAA@XZ  0000000180035a70 f i script_handle.obj
 0001:00034b20       ??$Run@$00@ScriptHandle@ivm@@QEAA?AV?$Local@VValue@v8@@@v8@@PEAVContextHandle@1@V?$MaybeLocal@VObject@v8@@@3@@Z 0000000180035b20 f i script_handle.obj
 0001:00034ee0       ??$Run@$01@ScriptHandle@ivm@@QEAA?AV?$Local@VValue@v8@@@v8@@PEAVContextHandle@1@V?$MaybeLocal@VObject@v8@@@3@@Z 0000000180035ee0 f i script_handle.obj
 0001:000351b0       ??$Run@$0A@@ScriptHandle@ivm@@QEAA?AV?$Local@VValue@v8@@@v8@@PEAVContextHandle@1@V?$MaybeLocal@VObject@v8@@@3@@Z 00000001800361b0 f i script_handle.obj
 0001:000358e0       ??$Invoke@$1?Release@ScriptHandle@ivm@@QEAA?AV?$Local@VValue@v8@@@v8@@XZ@?$MethodCast@P8ScriptHandle@ivm@@EAA?AV?$Local@VValue@v8@@@v8@@XZ@ClassHandle@ivm@@SA?AV?$Local@VValue@v8@@@v8@@PEAVScriptHandle@2@@Z 00000001800368e0 f i script_handle.obj
 0001:00035960       ??$ParameterizeEntry@$0?0P6A?AV?$Local@VValue@v8@@@v8@@PEAVScriptHandle@ivm@@@Z$1??$Invoke@$1?Release@ScriptHandle@ivm@@QEAA?AV?$Local@VValue@v8@@@v8@@XZ@?$MethodCast@P8ScriptHandle@ivm@@EAA?AV?$Local@VValue@v8@@@v8@@XZ@ClassHandle@4@SA?AV12@0@Z@ClassHandle@ivm@@CAXAEBV?$FunctionCallbackInfo@VValue@v8@@@v8@@@Z 0000000180036960 f i script_handle.obj
 0001:00035970       ??$Invoke@$1??$Run@$00@ScriptHandle@ivm@@QEAA?AV?$Local@VValue@v8@@@v8@@PEAVContextHandle@2@V?$MaybeLocal@VObject@v8@@@4@@Z@?$MethodCast@P8ScriptHandle@ivm@@EAA?AV?$Local@VValue@v8@@@v8@@PEAVContextHandle@2@V?$MaybeLocal@VObject@v8@@@4@@Z@ClassHandle@ivm@@SA?AV?$Local@VValue@v8@@@v8@@PEAVScriptHandle@2@PEAVContextHandle@2@V?$MaybeLocal@VObject@v8@@@4@@Z 0000000180036970 f i script_handle.obj
 0001:000359a0       ??$ParameterizeEntry@$0?0P6A?AV?$Local@VValue@v8@@@v8@@PEAVScriptHandle@ivm@@PEAVContextHandle@4@V?$MaybeLocal@VObject@v8@@@2@@Z$1??$Invoke@$1??$Run@$00@ScriptHandle@ivm@@QEAA?AV?$Local@VValue@v8@@@v8@@PEAVContextHandle@2@V?$MaybeLocal@VObject@v8@@@4@@Z@?$MethodCast@P8ScriptHandle@ivm@@EAA?AV?$Local@VValue@v8@@@v8@@PEAVContextHandle@2@V?$MaybeLocal@VObject@v8@@@4@@Z@ClassHandle@4@SA?AV12@012@Z@ClassHandle@ivm@@CAXAEBV?$FunctionCallbackInfo@VValue@v8@@@v8@@@Z 00000001800369a0 f i script_handle.obj
 0001:000359b0       ??$Invoke@$1??$Run@$01@ScriptHandle@ivm@@QEAA?AV?$Local@VValue@v8@@@v8@@PEAVContextHandle@2@V?$MaybeLocal@VObject@v8@@@4@@Z@?$MethodCast@P8ScriptHandle@ivm@@EAA?AV?$Local@VValue@v8@@@v8@@PEAVContextHandle@2@V?$MaybeLocal@VObject@v8@@@4@@Z@ClassHandle@ivm@@SA?AV?$Local@VValue@v8@@@v8@@PEAVScriptHandle@2@PEAVContextHandle@2@V?$MaybeLocal@VObject@v8@@@4@@Z 00000001800369b0 f i script_handle.obj
 0001:000359e0       ??$ParameterizeEntry@$0?0P6A?AV?$Local@VValue@v8@@@v8@@PEAVScriptHandle@ivm@@PEAVContextHandle@4@V?$MaybeLocal@VObject@v8@@@2@@Z$1??$Invoke@$1??$Run@$01@ScriptHandle@ivm@@QEAA?AV?$Local@VValue@v8@@@v8@@PEAVContextHandle@2@V?$MaybeLocal@VObject@v8@@@4@@Z@?$MethodCast@P8ScriptHandle@ivm@@EAA?AV?$Local@VValue@v8@@@v8@@PEAVContextHandle@2@V?$MaybeLocal@VObject@v8@@@4@@Z@ClassHandle@4@SA?AV12@012@Z@ClassHandle@ivm@@CAXAEBV?$FunctionCallbackInfo@VValue@v8@@@v8@@@Z 00000001800369e0 f i script_handle.obj
 0001:000359f0       ??$Invoke@$1??$Run@$0A@@ScriptHandle@ivm@@QEAA?AV?$Local@VValue@v8@@@v8@@PEAVContextHandle@2@V?$MaybeLocal@VObject@v8@@@4@@Z@?$MethodCast@P8ScriptHandle@ivm@@EAA?AV?$Local@VValue@v8@@@v8@@PEAVContextHandle@2@V?$MaybeLocal@VObject@v8@@@4@@Z@ClassHandle@ivm@@SA?AV?$Local@VValue@v8@@@v8@@PEAVScriptHandle@2@PEAVContextHandle@2@V?$MaybeLocal@VObject@v8@@@4@@Z 00000001800369f0 f i script_handle.obj
 0001:00035a20       ??$ParameterizeEntry@$0?0P6A?AV?$Local@VValue@v8@@@v8@@PEAVScriptHandle@ivm@@PEAVContextHandle@4@V?$MaybeLocal@VObject@v8@@@2@@Z$1??$Invoke@$1??$Run@$0A@@ScriptHandle@ivm@@QEAA?AV?$Local@VValue@v8@@@v8@@PEAVContextHandle@2@V?$MaybeLocal@VObject@v8@@@4@@Z@?$MethodCast@P8ScriptHandle@ivm@@EAA?AV?$Local@VValue@v8@@@v8@@PEAVContextHandle@2@V?$MaybeLocal@VObject@v8@@@4@@Z@ClassHandle@4@SA?AV12@012@Z@ClassHandle@ivm@@CAXAEBV?$FunctionCallbackInfo@VValue@v8@@@v8@@@Z 0000000180036a20 f i script_handle.obj
 0001:00035e70       ?Invoke@?$ConvertParamInvoke@U?$ConvertParam@PEAVScriptHandle@ivm@@@ivm@@$0?0$0A@@ivm@@SAPEAVScriptHandle@2@AEBV?$FunctionCallbackInfo@VValue@v8@@@v8@@@Z 0000000180036e70 f i script_handle.obj
 0001:00035ec0       ?Invoke@?$ConvertParamInvoke@U?$ConvertParam@PEAVScriptHandle@ivm@@@ivm@@$0?0$01@ivm@@SAPEAVScriptHandle@2@AEBV?$FunctionCallbackInfo@VValue@v8@@@v8@@@Z 0000000180036ec0 f i script_handle.obj
 0001:00035f50       ?Convert@?$ConvertParam@PEAVScriptHandle@ivm@@@ivm@@SAPEAVScriptHandle@2@V?$Local@VValue@v8@@@v8@@@Z 0000000180036f50 f i script_handle.obj
 0001:000360a0       ?Invoke@?$ConvertParamInvoke@U?$ConvertParam@PEAVContextHandle@ivm@@@ivm@@$0A@$01@ivm@@SAPEAVContextHandle@2@AEBV?$FunctionCallbackInfo@VValue@v8@@@v8@@@Z 00000001800370a0 f i script_handle.obj
 0001:00036110       ??0ModuleInfo@ivm@@QEAA@V?$Local@VModule@v8@@@v8@@@Z 0000000180037110 f   module_handle.obj
 0001:000364d0       ??$emplace_back@PEBD@?$vector@V?$basic_string@DU?$char_traits@D@std@@V?$allocator@D@2@@std@@V?$allocator@V?$basic_string@DU?$char_traits@D@std@@V?$allocator@D@2@@std@@@2@@std@@QEAAX$$QEAPEBD@Z 00000001800374d0 f i module_handle.obj
 0001:00036670       ??1?$unordered_map@V?$basic_string@DU?$char_traits@D@std@@V?$allocator@D@2@@std@@V?$shared_ptr@UModuleInfo@ivm@@@2@U?$hash@V?$basic_string@DU?$char_traits@D@std@@V?$allocator@D@2@@std@@@2@U?$equal_to@V?$basic_string@DU?$char_traits@D@std@@V?$allocator@D@2@@std@@@2@V?$allocator@U?$pair@$$CBV?$basic_string@DU?$char_traits@D@std@@V?$allocator@D@2@@std@@V?$shared_ptr@UModuleInfo@ivm@@@2@@std@@@2@@std@@QEAA@XZ 0000000180037670 f i module_handle.obj
 0001:00036680       ??1?$RemoteHandle@VModule@v8@@@ivm@@QEAA@XZ 0000000180037680 f i module_handle.obj
 0001:00036690       ??1?$_Hash@V?$_Umap_traits@V?$basic_string@DU?$char_traits@D@std@@V?$allocator@D@2@@std@@V?$shared_ptr@UModuleInfo@ivm@@@2@V?$_Uhash_compare@V?$basic_string@DU?$char_traits@D@std@@V?$allocator@D@2@@std@@U?$hash@V?$basic_string@DU?$char_traits@D@std@@V?$allocator@D@2@@std@@@2@U?$equal_to@V?$basic_string@DU?$char_traits@D@std@@V?$allocator@D@2@@std@@@2@@2@V?$allocator@U?$pair@$$CBV?$basic_string@DU?$char_traits@D@std@@V?$allocator@D@2@@std@@V?$shared_ptr@UModuleInfo@ivm@@@2@@std@@@2@$0A@@std@@@std@@QEAA@XZ 0000000180037690 f i module_handle.obj
 0001:00036790       ??1ModuleInfo@ivm@@QEAA@XZ 0000000180037790 f   module_handle.obj
 0001:00036a00       ?Deref@?$RemoteHandle@VModule@v8@@@ivm@@QEBA?AV?$Local@VModule@v8@@@v8@@XZ 0000000180037a00 f i module_handle.obj
 0001:00036a50       ?TransferIn@ModuleHandleTransferable@ModuleHandle@ivm@@UEAA?AV?$Local@VValue@v8@@@v8@@XZ 0000000180037a50 f   module_handle.obj
 0001:00036b60       ?TransferOut@ModuleHandle@ivm@@UEAA?AV?$unique_ptr@VTransferable@ivm@@U?$default_delete@VTransferable@ivm@@@std@@@std@@XZ 0000000180037b60 f   module_handle.obj
 0001:00036bd0       ?GetDependencySpecifiers@ModuleHandle@ivm@@QEAA?AV?$Local@VValue@v8@@@v8@@XZ 0000000180037bd0 f   module_handle.obj
 0001:00036d40       ?GetLinker@Implementation@ModuleLinker@ivm@@QEAAAEAV23@XZ 0000000180037d40 f i module_handle.obj
 0001:00036da0       ?Begin@ModuleLinker@ivm@@QEAA?AV?$Local@VValue@v8@@@v8@@PEAVModuleHandle@2@V?$shared_ptr@V?$RemoteHandle@VContext@v8@@@ivm@@@std@@@Z 0000000180037da0 f i module_handle.obj
 0001:00036e30       ?ResolveDependency@ModuleLinker@ivm@@QEAAX_KAEAUModuleInfo@2@PEAVModuleHandle@2@@Z 0000000180037e30 f i module_handle.obj
 0001:00036f80       ?Link@ModuleLinker@ivm@@QEAAXPEAVModuleHandle@2@@Z 0000000180037f80 f i module_handle.obj
 0001:00037340       ??$emplace_back@AEAV?$shared_ptr@UModuleInfo@ivm@@@std@@@?$vector@V?$shared_ptr@UModuleInfo@ivm@@@std@@V?$allocator@V?$shared_ptr@UModuleInfo@ivm@@@std@@@2@@std@@QEAAXAEAV?$shared_ptr@UModuleInfo@ivm@@@1@@Z 0000000180038340 f i module_handle.obj
 0001:00037560       ?Reset@ModuleLinker@ivm@@QEAAXW4LinkStatus@ModuleInfo@2@@Z 0000000180038560 f i module_handle.obj
 0001:000376c0       ?ResolveCallback@InstantiateRunner@ivm@@SA?AV?$MaybeLocal@VModule@v8@@@v8@@V?$Local@VContext@v8@@@4@V?$Local@VString@v8@@@4@V?$Local@VModule@v8@@@4@@Z 00000001800386c0 f i module_handle.obj
 0001:00037a30       ??0InstantiateRunner@ivm@@QEAA@V?$shared_ptr@V?$RemoteHandle@VContext@v8@@@ivm@@@std@@V?$shared_ptr@UModuleInfo@ivm@@@3@V?$Local@VObject@v8@@@v8@@@Z 0000000180038a30 f i module_handle.obj
 0001:00037bb0       ?Phase2@InstantiateRunner@ivm@@UEAAXXZ 0000000180038bb0 f i module_handle.obj
 0001:00037cc0       ?Phase3@InstantiateRunner@ivm@@UEAA?AV?$Local@VValue@v8@@@v8@@XZ 0000000180038cc0 f i module_handle.obj
 0001:00037d20       ?HandleCallbackReturn@ModuleLinkerSync@ivm@@EEAAXPEAVModuleHandle@2@_KV?$Local@VValue@v8@@@v8@@@Z 0000000180038d20 f i module_handle.obj
 0001:00037ed0       ?Begin@ModuleLinkerSync@ivm@@UEAA?AV?$Local@VValue@v8@@@v8@@PEAVModuleHandle@2@V?$shared_ptr@V?$RemoteHandle@VContext@v8@@@ivm@@@std@@@Z 0000000180038ed0 f i module_handle.obj
 0001:00038120       ?ModuleResolved@ModuleLinkerAsync@ivm@@CA?AV?$Local@VValue@v8@@@v8@@V?$Local@VArray@v8@@@4@V34@@Z 0000000180039120 f i module_handle.obj
 0001:00038420       ?ModuleRejected@ModuleLinkerAsync@ivm@@CA?AV?$Local@VValue@v8@@@v8@@PEAVModuleLinker@2@V34@@Z 0000000180039420 f i module_handle.obj
 0001:00038470       ?HandleCallbackReturn@ModuleLinkerAsync@ivm@@EEAAXPEAVModuleHandle@2@_KV?$Local@VValue@v8@@@v8@@@Z 0000000180039470 f i module_handle.obj
 0001:000387d0       ?Instantiate@ModuleLinkerAsync@ivm@@AEAAXXZ 00000001800397d0 f i module_handle.obj
 0001:000389e0       ??0ModuleLinkerAsync@ivm@@QEAA@V?$Local@VObject@v8@@@v8@@@Z 00000001800399e0 f i module_handle.obj
 0001:00038c10       ?Begin@ModuleLinkerAsync@ivm@@UEAA?AV?$Local@VValue@v8@@@v8@@PEAVModuleHandle@2@V?$shared_ptr@V?$RemoteHandle@VContext@v8@@@ivm@@@std@@@Z 0000000180039c10 f i module_handle.obj
 0001:00038e30       ?Instantiate@ModuleHandle@ivm@@QEAA?AV?$Local@VValue@v8@@@v8@@PEAVContextHandle@2@V?$Local@VFunction@v8@@@4@@Z 0000000180039e30 f   module_handle.obj
 0001:00038f20       ?InstantiateSync@ModuleHandle@ivm@@QEAA?AV?$Local@VValue@v8@@@v8@@PEAVContextHandle@2@V?$Local@VFunction@v8@@@4@@Z 0000000180039f20 f   module_handle.obj
 0001:00039030       ??0EvaluateRunner@ivm@@QEAA@V?$shared_ptr@UModuleInfo@ivm@@@std@@I@Z 000000018003a030 f i module_handle.obj
 0001:000390d0       ?Phase2@EvaluateRunner@ivm@@UEAAXXZ 000000018003a0d0 f i module_handle.obj
 0001:00039340       ?Phase3@EvaluateRunner@ivm@@UEAA?AV?$Local@VValue@v8@@@v8@@XZ 000000018003a340 f i module_handle.obj
 0001:00039380       ?GetNamespace@ModuleHandle@ivm@@QEAA?AV?$Local@VValue@v8@@@v8@@XZ 000000018003a380 f   module_handle.obj
 0001:000394f0       ??_EModuleLinkerSync@ivm@@UEAAPEAXI@Z 000000018003a4f0 f i * CIL library *:* CIL module *
 0001:000394f0       ??_EImplementation@ModuleLinker@ivm@@UEAAPEAXI@Z 000000018003a4f0 f i * CIL library *:* CIL module *
 0001:000394f0       ??_GModuleLinkerSync@ivm@@UEAAPEAXI@Z 000000018003a4f0 f i module_handle.obj
 0001:000394f0       ??_GImplementation@ModuleLinker@ivm@@UEAAPEAXI@Z 000000018003a4f0 f i module_handle.obj
 0001:00039530       ??1Implementation@ModuleLinker@ivm@@UEAA@XZ 000000018003a530 f i module_handle.obj
 0001:00039540       ??_EModuleLinker@ivm@@UEAAPEAXI@Z 000000018003a540 f i * CIL library *:* CIL module *
 0001:00039540       ??_GModuleLinker@ivm@@UEAAPEAXI@Z 000000018003a540 f i module_handle.obj
 0001:00039680       ??_GInstantiateRunner@ivm@@UEAAPEAXI@Z 000000018003a680 f i module_handle.obj
 0001:00039680       ??_EInstantiateRunner@ivm@@UEAAPEAXI@Z 000000018003a680 f i * CIL library *:* CIL module *
 0001:000396c0       ??1InstantiateRunner@ivm@@UEAA@XZ 000000018003a6c0 f i module_handle.obj
 0001:00039760       ??_GModuleLinkerAsync@ivm@@UEAAPEAXI@Z 000000018003a760 f i module_handle.obj
 0001:00039760       ??_EModuleLinkerAsync@ivm@@UEAAPEAXI@Z 000000018003a760 f i * CIL library *:* CIL module *
 0001:00039830       ??_GEvaluateRunner@ivm@@UEAAPEAXI@Z 000000018003a830 f i module_handle.obj
 0001:00039830       ??_EEvaluateRunner@ivm@@UEAAPEAXI@Z 000000018003a830 f i * CIL library *:* CIL module *
 0001:00039870       ??1EvaluateRunner@ivm@@UEAA@XZ 000000018003a870 f i module_handle.obj
 0001:000398e0       ??1?$RemoteTuple@VResolver@Promise@v8@@VFunction@3@@ivm@@QEAA@XZ 000000018003a8e0 f i module_handle.obj
 0001:000399b0       ??1?$RemoteTuple@VFunction@v8@@@ivm@@QEAA@XZ 000000018003a9b0 f i module_handle.obj
 0001:00039a60       ??1?$RemoteTuple@VModule@v8@@@ivm@@QEAA@XZ 000000018003aa60 f i module_handle.obj
 0001:00039b10       ??C?$_List_iterator@V?$_List_val@U?$_List_simple_types@U?$pair@$$CBV?$basic_string@DU?$char_traits@D@std@@V?$allocator@D@2@@std@@V?$shared_ptr@UModuleInfo@ivm@@@2@@std@@@std@@@std@@@std@@QEBAPEAU?$pair@$$CBV?$basic_string@DU?$char_traits@D@std@@V?$allocator@D@2@@std@@V?$shared_ptr@UModuleInfo@ivm@@@2@@1@XZ 000000018003ab10 f i module_handle.obj
 0001:00039b20       ??1?$list@U?$pair@$$CBV?$basic_string@DU?$char_traits@D@std@@V?$allocator@D@2@@std@@V?$shared_ptr@UModuleInfo@ivm@@@2@@std@@V?$allocator@U?$pair@$$CBV?$basic_string@DU?$char_traits@D@std@@V?$allocator@D@2@@std@@V?$shared_ptr@UModuleInfo@ivm@@@2@@std@@@2@@std@@QEAA@XZ 000000018003ab20 f i module_handle.obj
 0001:00039b90       ?_Change_array@?$vector@V?$basic_string@DU?$char_traits@D@std@@V?$allocator@D@2@@std@@V?$allocator@V?$basic_string@DU?$char_traits@D@std@@V?$allocator@D@2@@std@@@2@@std@@AEAAXQEAV?$basic_string@DU?$char_traits@D@std@@V?$allocator@D@2@@2@_K1@Z 000000018003ab90 f i module_handle.obj
 0001:00039c80       ?_Umove_if_noexcept@?$vector@V?$basic_string@DU?$char_traits@D@std@@V?$allocator@D@2@@std@@V?$allocator@V?$basic_string@DU?$char_traits@D@std@@V?$allocator@D@2@@std@@@2@@std@@AEAAXPEAV?$basic_string@DU?$char_traits@D@std@@V?$allocator@D@2@@2@00@Z 000000018003ac80 f i module_handle.obj
 0001:00039cd0       ??1?$vector@V?$basic_string@DU?$char_traits@D@std@@V?$allocator@D@2@@std@@V?$allocator@V?$basic_string@DU?$char_traits@D@std@@V?$allocator@D@2@@std@@@2@@std@@QEAA@XZ 000000018003acd0 f i module_handle.obj
 0001:00039d90       ?equal_range@?$_Hash@V?$_Umap_traits@HPEAUModuleInfo@ivm@@V?$_Uhash_compare@HU?$hash@H@std@@U?$equal_to@H@2@@std@@V?$allocator@U?$pair@$$CBHPEAUModuleInfo@ivm@@@std@@@4@$00@std@@@std@@QEAA?AU?$pair@V?$_List_iterator@V?$_List_val@U?$_List_simple_types@U?$pair@$$CBHPEAUModuleInfo@ivm@@@std@@@std@@@std@@@std@@V12@@2@AEBH@Z 000000018003ad90 f i module_handle.obj
 0001:00039ea0       ?Run@DisposalTask@?$RemoteTuple@VResolver@Promise@v8@@VFunction@3@@ivm@@UEAAXXZ 000000018003aea0 f i module_handle.obj
 0001:00039f20       ?_Destroy@?$vector@V?$shared_ptr@UModuleInfo@ivm@@@std@@V?$allocator@V?$shared_ptr@UModuleInfo@ivm@@@std@@@2@@std@@AEAAXPEAV?$shared_ptr@UModuleInfo@ivm@@@2@0@Z 000000018003af20 f i module_handle.obj
 0001:00039fa0       ??$erase@V?$_List_iterator@V?$_List_val@U?$_List_simple_types@U?$pair@$$CBHPEAUModuleInfo@ivm@@@std@@@std@@@std@@@std@@X@?$_Hash@V?$_Umap_traits@HPEAUModuleInfo@ivm@@V?$_Uhash_compare@HU?$hash@H@std@@U?$equal_to@H@2@@std@@V?$allocator@U?$pair@$$CBHPEAUModuleInfo@ivm@@@std@@@4@$00@std@@@std@@QEAA?AV?$_List_iterator@V?$_List_val@U?$_List_simple_types@U?$pair@$$CBHPEAUModuleInfo@ivm@@@std@@@std@@@std@@@1@V21@@Z 000000018003afa0 f i module_handle.obj
 0001:0003a080       ??$Evaluate@$00@ModuleHandle@ivm@@QEAA?AV?$Local@VValue@v8@@@v8@@V?$MaybeLocal@VObject@v8@@@3@@Z 000000018003b080 f i module_handle.obj
 0001:0003a3f0       ??$Evaluate@$0A@@ModuleHandle@ivm@@QEAA?AV?$Local@VValue@v8@@@v8@@V?$MaybeLocal@VObject@v8@@@3@@Z 000000018003b3f0 f i module_handle.obj
 0001:0003a6d0       ??$MakeClass@PEBDU?$pair@P6AXV?$Local@VString@v8@@@v8@@AEBV?$PropertyCallbackInfo@VValue@v8@@@2@@ZP6AX0V?$Local@VValue@v8@@@2@AEBV?$PropertyCallbackInfo@X@2@@Z@std@@PEBDU?$pair@P6AXAEBV?$FunctionCallbackInfo@VValue@v8@@@v8@@@ZH@2@PEBDU32@PEBDU32@PEBDU32@PEBDU12@@ClassHandle@ivm@@KA?AV?$Local@VFunctionTemplate@v8@@@v8@@PEBDUCtorFunction@01@0U?$pair@P6AXV?$Local@VString@v8@@@v8@@AEBV?$PropertyCallbackInfo@VValue@v8@@@2@@ZP6AX0V?$Local@VValue@v8@@@2@AEBV?$PropertyCallbackInfo@X@2@@Z@std@@0U?$pair@P6AXAEBV?$FunctionCallbackInfo@VValue@v8@@@v8@@@ZH@6@03030302@Z 000000018003b6d0 f i module_handle.obj
 0001:0003a9c0       ??$Unwrap@VModuleLinker@ivm@@@ClassHandle@ivm@@SAPEAVModuleLinker@1@V?$Local@VObject@v8@@@v8@@@Z 000000018003b9c0 f i module_handle.obj
 0001:0003aab0       ??$Unwrap@VModuleHandle@ivm@@@ClassHandle@ivm@@SAPEAVModuleHandle@1@V?$Local@VObject@v8@@@v8@@@Z 000000018003bab0 f i module_handle.obj
 0001:0003ac90       ??$NewInstance@VModuleLinker@ivm@@AEAV?$Local@VFunction@v8@@@v8@@@ClassHandle@ivm@@SA?AV?$Local@VObject@v8@@@v8@@AEAV?$Local@VFunction@v8@@@3@@Z 000000018003bc90 f i module_handle.obj
 0001:0003b240       ??1?$pair@$$CBV?$basic_string@DU?$char_traits@D@std@@V?$allocator@D@2@@std@@V?$shared_ptr@UModuleInfo@ivm@@@2@@std@@QEAA@XZ 000000018003c240 f i module_handle.obj
 0001:0003b2b0       ??_GDisposalTask@?$RemoteTuple@VResolver@Promise@v8@@VFunction@3@@ivm@@UEAAPEAXI@Z 000000018003c2b0 f i module_handle.obj
 0001:0003b2b0       ??_EDisposalTask@?$RemoteTuple@VResolver@Promise@v8@@VFunction@3@@ivm@@UEAAPEAXI@Z 000000018003c2b0 f i * CIL library *:* CIL module *
 0001:0003b320       ??$Invoke@$1?GetDependencySpecifiers@ModuleHandle@ivm@@QEAA?AV?$Local@VValue@v8@@@v8@@XZ@?$MethodCast@P8ModuleHandle@ivm@@EAA?AV?$Local@VValue@v8@@@v8@@XZ@ClassHandle@ivm@@SA?AV?$Local@VValue@v8@@@v8@@PEAVModuleHandle@2@@Z 000000018003c320 f i module_handle.obj
 0001:0003b350       ??$ParameterizeGetterEntry@P6A?AV?$Local@VValue@v8@@@v8@@PEAVModuleHandle@ivm@@@Z$1??$Invoke@$1?GetDependencySpecifiers@ModuleHandle@ivm@@QEAA?AV?$Local@VValue@v8@@@v8@@XZ@?$MethodCast@P8ModuleHandle@ivm@@EAA?AV?$Local@VValue@v8@@@v8@@XZ@ClassHandle@4@SA?AV12@0@Z@ClassHandle@ivm@@CAXV?$Local@VString@v8@@@v8@@AEBV?$PropertyCallbackInfo@VValue@v8@@@3@@Z 000000018003c350 f i module_handle.obj
 0001:0003b360       ??$Invoke@$1?Instantiate@ModuleHandle@ivm@@QEAA?AV?$Local@VValue@v8@@@v8@@PEAVContextHandle@3@V?$Local@VFunction@v8@@@5@@Z@?$MethodCast@P8ModuleHandle@ivm@@EAA?AV?$Local@VValue@v8@@@v8@@PEAVContextHandle@2@V?$Local@VFunction@v8@@@4@@Z@ClassHandle@ivm@@SA?AV?$Local@VValue@v8@@@v8@@PEAVModuleHandle@2@PEAVContextHandle@2@V?$Local@VFunction@v8@@@4@@Z 000000018003c360 f i module_handle.obj
 0001:0003b390       ??$ParameterizeEntry@$0?0P6A?AV?$Local@VValue@v8@@@v8@@PEAVModuleHandle@ivm@@PEAVContextHandle@4@V?$Local@VFunction@v8@@@2@@Z$1??$Invoke@$1?Instantiate@ModuleHandle@ivm@@QEAA?AV?$Local@VValue@v8@@@v8@@PEAVContextHandle@3@V?$Local@VFunction@v8@@@5@@Z@?$MethodCast@P8ModuleHandle@ivm@@EAA?AV?$Local@VValue@v8@@@v8@@PEAVContextHandle@2@V?$Local@VFunction@v8@@@4@@Z@ClassHandle@4@SA?AV12@012@Z@ClassHandle@ivm@@CAXAEBV?$FunctionCallbackInfo@VValue@v8@@@v8@@@Z 000000018003c390 f i module_handle.obj
 0001:0003b3a0       ??$Invoke@$1?InstantiateSync@ModuleHandle@ivm@@QEAA?AV?$Local@VValue@v8@@@v8@@PEAVContextHandle@3@V?$Local@VFunction@v8@@@5@@Z@?$MethodCast@P8ModuleHandle@ivm@@EAA?AV?$Local@VValue@v8@@@v8@@PEAVContextHandle@2@V?$Local@VFunction@v8@@@4@@Z@ClassHandle@ivm@@SA?AV?$Local@VValue@v8@@@v8@@PEAVModuleHandle@2@PEAVContextHandle@2@V?$Local@VFunction@v8@@@4@@Z 000000018003c3a0 f i module_handle.obj
 0001:0003b3d0       ??$ParameterizeEntry@$0?0P6A?AV?$Local@VValue@v8@@@v8@@PEAVModuleHandle@ivm@@PEAVContextHandle@4@V?$Local@VFunction@v8@@@2@@Z$1??$Invoke@$1?InstantiateSync@ModuleHandle@ivm@@QEAA?AV?$Local@VValue@v8@@@v8@@PEAVContextHandle@3@V?$Local@VFunction@v8@@@5@@Z@?$MethodCast@P8ModuleHandle@ivm@@EAA?AV?$Local@VValue@v8@@@v8@@PEAVContextHandle@2@V?$Local@VFunction@v8@@@4@@Z@ClassHandle@4@SA?AV12@012@Z@ClassHandle@ivm@@CAXAEBV?$FunctionCallbackInfo@VValue@v8@@@v8@@@Z 000000018003c3d0 f i module_handle.obj
 0001:0003b3e0       ??$Invoke@$1??$Evaluate@$00@ModuleHandle@ivm@@QEAA?AV?$Local@VValue@v8@@@v8@@V?$MaybeLocal@VObject@v8@@@4@@Z@?$MethodCast@P8ModuleHandle@ivm@@EAA?AV?$Local@VValue@v8@@@v8@@V?$MaybeLocal@VObject@v8@@@4@@Z@ClassHandle@ivm@@SA?AV?$Local@VValue@v8@@@v8@@PEAVModuleHandle@2@V?$MaybeLocal@VObject@v8@@@4@@Z 000000018003c3e0 f i module_handle.obj
 0001:0003b410       ??$ParameterizeEntry@$0?0P6A?AV?$Local@VValue@v8@@@v8@@PEAVModuleHandle@ivm@@V?$MaybeLocal@VObject@v8@@@2@@Z$1??$Invoke@$1??$Evaluate@$00@ModuleHandle@ivm@@QEAA?AV?$Local@VValue@v8@@@v8@@V?$MaybeLocal@VObject@v8@@@4@@Z@?$MethodCast@P8ModuleHandle@ivm@@EAA?AV?$Local@VValue@v8@@@v8@@V?$MaybeLocal@VObject@v8@@@4@@Z@ClassHandle@4@SA?AV12@01@Z@ClassHandle@ivm@@CAXAEBV?$FunctionCallbackInfo@VValue@v8@@@v8@@@Z 000000018003c410 f i module_handle.obj
 0001:0003b420       ??$Invoke@$1??$Evaluate@$0A@@ModuleHandle@ivm@@QEAA?AV?$Local@VValue@v8@@@v8@@V?$MaybeLocal@VObject@v8@@@4@@Z@?$MethodCast@P8ModuleHandle@ivm@@EAA?AV?$Local@VValue@v8@@@v8@@V?$MaybeLocal@VObject@v8@@@4@@Z@ClassHandle@ivm@@SA?AV?$Local@VValue@v8@@@v8@@PEAVModuleHandle@2@V?$MaybeLocal@VObject@v8@@@4@@Z 000000018003c420 f i module_handle.obj
 0001:0003b450       ??$ParameterizeEntry@$0?0P6A?AV?$Local@VValue@v8@@@v8@@PEAVModuleHandle@ivm@@V?$MaybeLocal@VObject@v8@@@2@@Z$1??$Invoke@$1??$Evaluate@$0A@@ModuleHandle@ivm@@QEAA?AV?$Local@VValue@v8@@@v8@@V?$MaybeLocal@VObject@v8@@@4@@Z@?$MethodCast@P8ModuleHandle@ivm@@EAA?AV?$Local@VValue@v8@@@v8@@V?$MaybeLocal@VObject@v8@@@4@@Z@ClassHandle@4@SA?AV12@01@Z@ClassHandle@ivm@@CAXAEBV?$FunctionCallbackInfo@VValue@v8@@@v8@@@Z 000000018003c450 f i module_handle.obj
 0001:0003b460       ??$Invoke@$1?GetNamespace@ModuleHandle@ivm@@QEAA?AV?$Local@VValue@v8@@@v8@@XZ@?$MethodCast@P8ModuleHandle@ivm@@EAA?AV?$Local@VValue@v8@@@v8@@XZ@ClassHandle@ivm@@SA?AV?$Local@VValue@v8@@@v8@@PEAVModuleHandle@2@@Z 000000018003c460 f i module_handle.obj
 0001:0003b490       ??$ParameterizeGetterEntry@P6A?AV?$Local@VValue@v8@@@v8@@PEAVModuleHandle@ivm@@@Z$1??$Invoke@$1?GetNamespace@ModuleHandle@ivm@@QEAA?AV?$Local@VValue@v8@@@v8@@XZ@?$MethodCast@P8ModuleHandle@ivm@@EAA?AV?$Local@VValue@v8@@@v8@@XZ@ClassHandle@4@SA?AV12@0@Z@ClassHandle@ivm@@CAXV?$Local@VString@v8@@@v8@@AEBV?$PropertyCallbackInfo@VValue@v8@@@3@@Z 000000018003c490 f i module_handle.obj
 0001:0003b4a0       ??$GetFunctionTemplate@VModuleLinker@ivm@@@ClassHandle@ivm@@SA?AV?$Local@VFunctionTemplate@v8@@@v8@@XZ 000000018003c4a0 f i module_handle.obj
 0001:0003b5a0       ??$ParameterizeEntry@$0?1P6A?AV?$Local@VValue@v8@@@v8@@V?$Local@VArray@v8@@@2@V12@@Z$1?ModuleResolved@ModuleLinkerAsync@ivm@@CA?AV12@01@Z@ClassHandle@ivm@@CAXAEBV?$FunctionCallbackInfo@VValue@v8@@@v8@@@Z 000000018003c5a0 f i module_handle.obj
 0001:0003b740       ??$ParameterizeEntry@$0?1P6A?AV?$Local@VValue@v8@@@v8@@PEAVModuleLinker@ivm@@V12@@Z$1?ModuleRejected@ModuleLinkerAsync@4@CA?AV12@01@Z@ClassHandle@ivm@@CAXAEBV?$FunctionCallbackInfo@VValue@v8@@@v8@@@Z 000000018003c740 f i module_handle.obj
 0001:0003b750       ??$_Try_emplace@AEBV?$basic_string@DU?$char_traits@D@std@@V?$allocator@D@2@@std@@$$V@?$unordered_map@V?$basic_string@DU?$char_traits@D@std@@V?$allocator@D@2@@std@@V?$shared_ptr@UModuleInfo@ivm@@@2@U?$hash@V?$basic_string@DU?$char_traits@D@std@@V?$allocator@D@2@@std@@@2@U?$equal_to@V?$basic_string@DU?$char_traits@D@std@@V?$allocator@D@2@@std@@@2@V?$allocator@U?$pair@$$CBV?$basic_string@DU?$char_traits@D@std@@V?$allocator@D@2@@std@@V?$shared_ptr@UModuleInfo@ivm@@@2@@std@@@2@@std@@QEAA?AU?$pair@V?$_List_iterator@V?$_List_val@U?$_List_simple_types@U?$pair@$$CBV?$basic_string@DU?$char_traits@D@std@@V?$allocator@D@2@@std@@V?$shared_ptr@UModuleInfo@ivm@@@2@@std@@@std@@@std@@@std@@_N@1@AEBV?$basic_string@DU?$char_traits@D@std@@V?$allocator@D@2@@1@@Z 000000018003c750 f i module_handle.obj
 0001:0003b960       ??$_Insert@AEAU?$pair@$$CBHPEAUModuleInfo@ivm@@@std@@V?$_List_unchecked_iterator@V?$_List_val@U?$_List_simple_types@U?$pair@$$CBHPEAUModuleInfo@ivm@@@std@@@std@@@std@@@2@@?$_Hash@V?$_Umap_traits@HPEAUModuleInfo@ivm@@V?$_Uhash_compare@HU?$hash@H@std@@U?$equal_to@H@2@@std@@V?$allocator@U?$pair@$$CBHPEAUModuleInfo@ivm@@@std@@@4@$00@std@@@std@@IEAA?AU?$pair@V?$_List_iterator@V?$_List_val@U?$_List_simple_types@U?$pair@$$CBHPEAUModuleInfo@ivm@@@std@@@std@@@std@@@std@@_N@1@AEAU?$pair@$$CBHPEAUModuleInfo@ivm@@@1@V?$_List_unchecked_iterator@V?$_List_val@U?$_List_simple_types@U?$pair@$$CBHPEAUModuleInfo@ivm@@@std@@@std@@@std@@@1@@Z 000000018003c960 f i module_handle.obj
 0001:0003c1a0       ?Invoke@?$ConvertParamInvoke@U?$ConvertParam@PEAVModuleHandle@ivm@@@ivm@@$0?0$0A@@ivm@@SAPEAVModuleHandle@2@AEBV?$PropertyCallbackInfo@VValue@v8@@@v8@@@Z 000000018003d1a0 f i module_handle.obj
 0001:0003c1f0       ?Invoke@?$ConvertParamInvoke@U?$ConvertParam@PEAVModuleHandle@ivm@@@ivm@@$0?0$01@ivm@@SAPEAVModuleHandle@2@AEBV?$FunctionCallbackInfo@VValue@v8@@@v8@@@Z 000000018003d1f0 f i module_handle.obj
 0001:0003c240       ?Invoke@?$ConvertParamInvoke@U?$ConvertParam@PEAVModuleHandle@ivm@@@ivm@@$0?0$00@ivm@@SAPEAVModuleHandle@2@AEBV?$FunctionCallbackInfo@VValue@v8@@@v8@@@Z 000000018003d240 f i module_handle.obj
 0001:0003c290       ?Invoke@?$ConvertParamInvoke@U?$ConvertParam@V?$Local@VArray@v8@@@v8@@@ivm@@$0?1$00@ivm@@SA?AV?$Local@VArray@v8@@@v8@@AEBV?$FunctionCallbackInfo@VValue@v8@@@4@@Z 000000018003d290 f i module_handle.obj
 0001:0003c350       ?Invoke@?$ConvertParamInvoke@U?$ConvertParam@PEAVModuleLinker@ivm@@@ivm@@$0?1$00@ivm@@SAPEAVModuleLinker@2@AEBV?$FunctionCallbackInfo@VValue@v8@@@v8@@@Z 000000018003d350 f i module_handle.obj
 0001:0003c3a0       ??$_Insert@AEAU?$pair@$$CBV?$basic_string@DU?$char_traits@D@std@@V?$allocator@D@2@@std@@V?$shared_ptr@UModuleInfo@ivm@@@2@@std@@V?$_List_unchecked_iterator@V?$_List_val@U?$_List_simple_types@U?$pair@$$CBV?$basic_string@DU?$char_traits@D@std@@V?$allocator@D@2@@std@@V?$shared_ptr@UModuleInfo@ivm@@@2@@std@@@std@@@std@@@2@@?$_Hash@V?$_Umap_traits@V?$basic_string@DU?$char_traits@D@std@@V?$allocator@D@2@@std@@V?$shared_ptr@UModuleInfo@ivm@@@2@V?$_Uhash_compare@V?$basic_string@DU?$char_traits@D@std@@V?$allocator@D@2@@std@@U?$hash@V?$basic_string@DU?$char_traits@D@std@@V?$allocator@D@2@@std@@@2@U?$equal_to@V?$basic_string@DU?$char_traits@D@std@@V?$allocator@D@2@@std@@@2@@2@V?$allocator@U?$pair@$$CBV?$basic_string@DU?$char_traits@D@std@@V?$allocator@D@2@@std@@V?$shared_ptr@UModuleInfo@ivm@@@2@@std@@@2@$0A@@std@@@std@@IEAA?AU?$pair@V?$_List_iterator@V?$_List_val@U?$_List_simple_types@U?$pair@$$CBV?$basic_string@DU?$char_traits@D@std@@V?$allocator@D@2@@std@@V?$shared_ptr@UModuleInfo@ivm@@@2@@std@@@std@@@std@@@std@@_N@1@AEAU?$pair@$$CBV?$basic_string@DU?$char_traits@D@std@@V?$allocator@D@2@@std@@V?$shared_ptr@UModuleInfo@ivm@@@2@@1@V?$_List_unchecked_iterator@V?$_List_val@U?$_List_simple_types@U?$pair@$$CBV?$basic_string@DU?$char_traits@D@std@@V?$allocator@D@2@@std@@V?$shared_ptr@UModuleInfo@ivm@@@2@@std@@@std@@@std@@@1@@Z 000000018003d3a0 f i module_handle.obj
 0001:0003c640       ?Convert@?$ConvertParam@PEAVModuleLinker@ivm@@@ivm@@SAPEAVModuleLinker@2@V?$Local@VValue@v8@@@v8@@@Z 000000018003d640 f i module_handle.obj
 0001:0003c790       ?Convert@?$ConvertParam@PEAVModuleHandle@ivm@@@ivm@@SAPEAVModuleHandle@2@V?$Local@VValue@v8@@@v8@@@Z 000000018003d790 f i module_handle.obj
 0001:0003c8e0       ?Invoke@?$ConvertParamInvoke@U?$ConvertParam@V?$Local@VFunction@v8@@@v8@@@ivm@@$00$01@ivm@@SA?AV?$Local@VFunction@v8@@@v8@@AEBV?$FunctionCallbackInfo@VValue@v8@@@4@@Z 000000018003d8e0 f i module_handle.obj
 0001:0003c9f0       ??0SessionImpl@ivm@@QEAA@AEAVIsolateEnvironment@1@@Z 000000018003d9f0 f i session_handle.obj
 0001:0003cb80       ?sendResponse@SessionImpl@ivm@@EEAAXHV?$unique_ptr@VStringBuffer@v8_inspector@@U?$default_delete@VStringBuffer@v8_inspector@@@std@@@std@@@Z 000000018003db80 f i session_handle.obj
 0001:0003ce00       ?sendNotification@SessionImpl@ivm@@EEAAXV?$unique_ptr@VStringBuffer@v8_inspector@@U?$default_delete@VStringBuffer@v8_inspector@@@std@@@std@@@Z 000000018003de00 f i session_handle.obj
 0001:0003d050       ?CheckDisposed@SessionHandle@ivm@@QEAAXXZ 000000018003e050 f   session_handle.obj
 0001:0003d0c0       ?OnNotificationSetter@SessionHandle@ivm@@QEAAXV?$Local@VFunction@v8@@@v8@@@Z 000000018003e0c0 f   session_handle.obj
 0001:0003d190       ?OnResponseSetter@SessionHandle@ivm@@QEAAXV?$Local@VFunction@v8@@@v8@@@Z 000000018003e190 f   session_handle.obj
 0001:0003d260       ??_ESessionImpl@ivm@@UEAAPEAXI@Z 000000018003e260 f i * CIL library *:* CIL module *
 0001:0003d260       ??_GSessionImpl@ivm@@UEAAPEAXI@Z 000000018003e260 f i session_handle.obj
 0001:0003d360       ??_GSendResponseTask@?1??sendResponse@SessionImpl@ivm@@EEAAXHV?$unique_ptr@VStringBuffer@v8_inspector@@U?$default_delete@VStringBuffer@v8_inspector@@@std@@@std@@@Z@UEAAPEAXI@Z 000000018003e360 f i session_handle.obj
 0001:0003d360       ??_ESendResponseTask@?1??sendResponse@SessionImpl@ivm@@EEAAXHV?$unique_ptr@VStringBuffer@v8_inspector@@U?$default_delete@VStringBuffer@v8_inspector@@@std@@@std@@@Z@UEAAPEAXI@Z 000000018003e360 f i * CIL library *:* CIL module *
 0001:0003d400       ??_ESendNotificationTask@?1??sendNotification@SessionImpl@ivm@@EEAAXV?$unique_ptr@VStringBuffer@v8_inspector@@U?$default_delete@VStringBuffer@v8_inspector@@@std@@@std@@@Z@UEAAPEAXI@Z 000000018003e400 f i * CIL library *:* CIL module *
 0001:0003d400       ??_GSendNotificationTask@?1??sendNotification@SessionImpl@ivm@@EEAAXV?$unique_ptr@VStringBuffer@v8_inspector@@U?$default_delete@VStringBuffer@v8_inspector@@@std@@@std@@@Z@UEAAPEAXI@Z 000000018003e400 f i session_handle.obj
 0001:0003d4a0       ??$MakeClass@PEBDU?$pair@P6AXAEBV?$FunctionCallbackInfo@VValue@v8@@@v8@@@ZH@std@@PEBDU12@PEBDU?$pair@P6AXV?$Local@VString@v8@@@v8@@AEBV?$PropertyCallbackInfo@VValue@v8@@@2@@ZP6AX0V?$Local@VValue@v8@@@2@AEBV?$PropertyCallbackInfo@X@2@@Z@2@PEBDU32@@ClassHandle@ivm@@KA?AV?$Local@VFunctionTemplate@v8@@@v8@@PEBDUCtorFunction@01@0U?$pair@P6AXAEBV?$FunctionCallbackInfo@VValue@v8@@@v8@@@ZH@std@@020U?$pair@P6AXV?$Local@VString@v8@@@v8@@AEBV?$PropertyCallbackInfo@VValue@v8@@@2@@ZP6AX0V?$Local@VValue@v8@@@2@AEBV?$PropertyCallbackInfo@X@2@@Z@6@03@Z 000000018003e4a0 f i session_handle.obj
 0001:0003d830       ??$?0PEBDX@?$vector@GV?$allocator@G@std@@@std@@QEAA@PEBD0AEBV?$allocator@G@1@@Z 000000018003e830 f i session_handle.obj
 0001:0003d9b0       ?_Destroy@?$_Ref_count_obj@V?$RemoteHandle@VFunction@v8@@@ivm@@@std@@EEAAXXZ 000000018003e9b0 f i session_handle.obj
 0001:0003d9c0       ??$Invoke@$1?DispatchProtocolMessage@SessionHandle@ivm@@QEAA?AV?$Local@VValue@v8@@@v8@@V?$Local@VString@v8@@@5@@Z@?$MethodCast@P8SessionHandle@ivm@@EAA?AV?$Local@VValue@v8@@@v8@@V?$Local@VString@v8@@@4@@Z@ClassHandle@ivm@@SA?AV?$Local@VValue@v8@@@v8@@PEAVSessionHandle@2@V?$Local@VString@v8@@@4@@Z 000000018003e9c0 f i session_handle.obj
 0001:0003da60       ??$ParameterizeEntry@$0?0P6A?AV?$Local@VValue@v8@@@v8@@PEAVSessionHandle@ivm@@V?$Local@VString@v8@@@2@@Z$1??$Invoke@$1?DispatchProtocolMessage@SessionHandle@ivm@@QEAA?AV?$Local@VValue@v8@@@v8@@V?$Local@VString@v8@@@5@@Z@?$MethodCast@P8SessionHandle@ivm@@EAA?AV?$Local@VValue@v8@@@v8@@V?$Local@VString@v8@@@4@@Z@ClassHandle@4@SA?AV12@01@Z@ClassHandle@ivm@@CAXAEBV?$FunctionCallbackInfo@VValue@v8@@@v8@@@Z 000000018003ea60 f i session_handle.obj
 0001:0003da70       ??$Invoke@$1?Dispose@SessionHandle@ivm@@QEAA?AV?$Local@VValue@v8@@@v8@@XZ@?$MethodCast@P8SessionHandle@ivm@@EAA?AV?$Local@VValue@v8@@@v8@@XZ@ClassHandle@ivm@@SA?AV?$Local@VValue@v8@@@v8@@PEAVSessionHandle@2@@Z 000000018003ea70 f i session_handle.obj
 0001:0003db00       ??$ParameterizeEntry@$0?0P6A?AV?$Local@VValue@v8@@@v8@@PEAVSessionHandle@ivm@@@Z$1??$Invoke@$1?Dispose@SessionHandle@ivm@@QEAA?AV?$Local@VValue@v8@@@v8@@XZ@?$MethodCast@P8SessionHandle@ivm@@EAA?AV?$Local@VValue@v8@@@v8@@XZ@ClassHandle@4@SA?AV12@0@Z@ClassHandle@ivm@@CAXAEBV?$FunctionCallbackInfo@VValue@v8@@@v8@@@Z 000000018003eb00 f i session_handle.obj
 0001:0003db10       ??$Invoke@$1?OnNotificationGetter@SessionHandle@ivm@@QEAA?AV?$Local@VValue@v8@@@v8@@XZ@?$MethodCast@P8SessionHandle@ivm@@EAA?AV?$Local@VValue@v8@@@v8@@XZ@ClassHandle@ivm@@SA?AV?$Local@VValue@v8@@@v8@@PEAVSessionHandle@2@@Z 000000018003eb10 f i session_handle.obj
 0001:0003dba0       ??$ParameterizeGetterEntry@P6A?AV?$Local@VValue@v8@@@v8@@PEAVSessionHandle@ivm@@@Z$1??$Invoke@$1?OnNotificationGetter@SessionHandle@ivm@@QEAA?AV?$Local@VValue@v8@@@v8@@XZ@?$MethodCast@P8SessionHandle@ivm@@EAA?AV?$Local@VValue@v8@@@v8@@XZ@ClassHandle@4@SA?AV12@0@Z@ClassHandle@ivm@@CAXV?$Local@VString@v8@@@v8@@AEBV?$PropertyCallbackInfo@VValue@v8@@@3@@Z 000000018003eba0 f i session_handle.obj
 0001:0003dbb0       ??$Invoke@$1?OnNotificationSetter@SessionHandle@ivm@@QEAAXV?$Local@VFunction@v8@@@v8@@@Z@?$MethodCast@P8SessionHandle@ivm@@EAAXV?$Local@VFunction@v8@@@v8@@@Z@ClassHandle@ivm@@SAXPEAVSessionHandle@2@V?$Local@VFunction@v8@@@v8@@@Z 000000018003ebb0 f i session_handle.obj
 0001:0003dbc0       ??$ParameterizeSetterEntry@P6AXPEAVSessionHandle@ivm@@V?$Local@VFunction@v8@@@v8@@@Z$1??$Invoke@$1?OnNotificationSetter@SessionHandle@ivm@@QEAAXV?$Local@VFunction@v8@@@v8@@@Z@?$MethodCast@P8SessionHandle@ivm@@EAAXV?$Local@VFunction@v8@@@v8@@@Z@ClassHandle@2@SAX01@Z@ClassHandle@ivm@@CAXV?$Local@VString@v8@@@v8@@V?$Local@VValue@v8@@@3@AEBV?$PropertyCallbackInfo@X@3@@Z 000000018003ebc0 f i session_handle.obj
 0001:0003dc00       ??$Invoke@$1?OnResponseGetter@SessionHandle@ivm@@QEAA?AV?$Local@VValue@v8@@@v8@@XZ@?$MethodCast@P8SessionHandle@ivm@@EAA?AV?$Local@VValue@v8@@@v8@@XZ@ClassHandle@ivm@@SA?AV?$Local@VValue@v8@@@v8@@PEAVSessionHandle@2@@Z 000000018003ec00 f i session_handle.obj
 0001:0003dc90       ??$ParameterizeGetterEntry@P6A?AV?$Local@VValue@v8@@@v8@@PEAVSessionHandle@ivm@@@Z$1??$Invoke@$1?OnResponseGetter@SessionHandle@ivm@@QEAA?AV?$Local@VValue@v8@@@v8@@XZ@?$MethodCast@P8SessionHandle@ivm@@EAA?AV?$Local@VValue@v8@@@v8@@XZ@ClassHandle@4@SA?AV12@0@Z@ClassHandle@ivm@@CAXV?$Local@VString@v8@@@v8@@AEBV?$PropertyCallbackInfo@VValue@v8@@@3@@Z 000000018003ec90 f i session_handle.obj
 0001:0003dca0       ??$Invoke@$1?OnResponseSetter@SessionHandle@ivm@@QEAAXV?$Local@VFunction@v8@@@v8@@@Z@?$MethodCast@P8SessionHandle@ivm@@EAAXV?$Local@VFunction@v8@@@v8@@@Z@ClassHandle@ivm@@SAXPEAVSessionHandle@2@V?$Local@VFunction@v8@@@v8@@@Z 000000018003eca0 f i session_handle.obj
 0001:0003dcb0       ??$ParameterizeSetterEntry@P6AXPEAVSessionHandle@ivm@@V?$Local@VFunction@v8@@@v8@@@Z$1??$Invoke@$1?OnResponseSetter@SessionHandle@ivm@@QEAAXV?$Local@VFunction@v8@@@v8@@@Z@?$MethodCast@P8SessionHandle@ivm@@EAAXV?$Local@VFunction@v8@@@v8@@@Z@ClassHandle@2@SAX01@Z@ClassHandle@ivm@@CAXV?$Local@VString@v8@@@v8@@V?$Local@VValue@v8@@@3@AEBV?$PropertyCallbackInfo@X@3@@Z 000000018003ecb0 f i session_handle.obj
 0001:0003dcf0       ??_E?$_Ref_count_obj@VSessionImpl@ivm@@@std@@UEAAPEAXI@Z 000000018003ecf0 f i * CIL library *:* CIL module *
 0001:0003dcf0       ??_G?$_Ref_count_obj_alloc@V__ExceptionPtr@@U?$_StaticAllocator@H@@@std@@UEAAPEAXI@Z 000000018003ecf0 f i libcpmt:excptptr.obj
 0001:0003dcf0       ??_G?$_Ref_count_obj@VSessionImpl@ivm@@@std@@UEAAPEAXI@Z 000000018003ecf0 f i session_handle.obj
 0001:0003dcf0       ??_E?$_Ref_count_obj@V__ExceptionPtr@@@std@@UEAAPEAXI@Z 000000018003ecf0 f i libcpmt:excptptr.obj
 0001:0003dcf0       ??_G?$_Ref_count_obj@V__ExceptionPtr@@@std@@UEAAPEAXI@Z 000000018003ecf0 f i libcpmt:excptptr.obj
 0001:0003dcf0       ??_E?$_Ref_count_obj_alloc@V__ExceptionPtr@@U?$_StaticAllocator@H@@@std@@UEAAPEAXI@Z 000000018003ecf0 f i libcpmt:excptptr.obj
 0001:0003e0b0       ?Invoke@?$ConvertParamInvoke@U?$ConvertParam@PEAVSessionHandle@ivm@@@ivm@@$0?0$00@ivm@@SAPEAVSessionHandle@2@AEBV?$FunctionCallbackInfo@VValue@v8@@@v8@@@Z 000000018003f0b0 f i session_handle.obj
 0001:0003e100       ?Invoke@?$ConvertParamInvoke@U?$ConvertParam@PEAVSessionHandle@ivm@@@ivm@@$0?0$0A@@ivm@@SAPEAVSessionHandle@2@AEBV?$FunctionCallbackInfo@VValue@v8@@@v8@@@Z 000000018003f100 f i session_handle.obj
 0001:0003e150       ?Invoke@?$ConvertParamInvoke@U?$ConvertParam@PEAVSessionHandle@ivm@@@ivm@@$0?0$0A@@ivm@@SAPEAVSessionHandle@2@AEBV?$PropertyCallbackInfo@VValue@v8@@@v8@@@Z 000000018003f150 f i session_handle.obj
 0001:0003e1a0       ?Invoke@?$ConvertParamInvoke@U?$ConvertParam@PEAVSessionHandle@ivm@@@ivm@@$0?0$00@ivm@@SAPEAVSessionHandle@2@U?$pair@PEAV?$Local@VValue@v8@@@v8@@PEBV?$PropertyCallbackInfo@X@2@@std@@@Z 000000018003f1a0 f i session_handle.obj
 0001:0003e200       ?Convert@?$ConvertParam@PEAVSessionHandle@ivm@@@ivm@@SAPEAVSessionHandle@2@V?$Local@VValue@v8@@@v8@@@Z 000000018003f200 f i session_handle.obj
 0001:0003e350       ?Invoke@?$ConvertParamInvoke@U?$ConvertParam@V?$Local@VFunction@v8@@@v8@@@ivm@@$0A@$00@ivm@@SA?AV?$Local@VFunction@v8@@@v8@@U?$pair@PEAV?$Local@VValue@v8@@@v8@@PEBV?$PropertyCallbackInfo@X@2@@std@@@Z 000000018003f350 f i session_handle.obj
 0001:0003e410       ?OptionalTransferOut@Transferable@ivm@@SA?AV?$unique_ptr@VTransferable@ivm@@U?$default_delete@VTransferable@ivm@@@std@@@std@@AEBV?$Local@VValue@v8@@@v8@@@Z 000000018003f410 f   transferable.obj
 0001:0003e5c0       ??_EExternalCopySerializerDelegate@ivm@@UEAAPEAXI@Z 000000018003f5c0 f i * CIL library *:* CIL module *
 0001:0003e5c0       ??_GExternalCopySerializerDelegate@ivm@@UEAAPEAXI@Z 000000018003f5c0 f i nortti:external_copy_nortti.obj
 0001:0003e600       ?ThrowDataCloneError@ExternalCopySerializerDelegate@ivm@@UEAAXV?$Local@VString@v8@@@v8@@@Z 000000018003f600 f   nortti:external_copy_nortti.obj
 0001:0003e640       ?WriteHostObject@ExternalCopySerializerDelegate@ivm@@UEAA?AV?$Maybe@_N@v8@@PEAVIsolate@4@V?$Local@VObject@v8@@@4@@Z 000000018003f640 f   nortti:external_copy_nortti.obj
 0001:0003e690       ?GetSharedArrayBufferId@ExternalCopySerializerDelegate@ivm@@UEAA?AV?$Maybe@I@v8@@PEAVIsolate@4@V?$Local@VSharedArrayBuffer@v8@@@4@@Z 000000018003f690 f   nortti:external_copy_nortti.obj
 0001:0003e6e0       ??$emplace_back@V?$unique_ptr@VExternalCopySharedArrayBuffer@ivm@@U?$default_delete@VExternalCopySharedArrayBuffer@ivm@@@std@@@std@@@?$vector@V?$unique_ptr@VExternalCopySharedArrayBuffer@ivm@@U?$default_delete@VExternalCopySharedArrayBuffer@ivm@@@std@@@std@@V?$allocator@V?$unique_ptr@VExternalCopySharedArrayBuffer@ivm@@U?$default_delete@VExternalCopySharedArrayBuffer@ivm@@@std@@@std@@@2@@std@@QEAAX$$QEAV?$unique_ptr@VExternalCopySharedArrayBuffer@ivm@@U?$default_delete@VExternalCopySharedArrayBuffer@ivm@@@std@@@1@@Z 000000018003f6e0 f i nortti:external_copy_nortti.obj
 0001:0003e8f0       ??_GExternalCopyDeserializerDelegate@ivm@@UEAAPEAXI@Z 000000018003f8f0 f i nortti:external_copy_nortti.obj
 0001:0003e8f0       ??_EExternalCopyDeserializerDelegate@ivm@@UEAAPEAXI@Z 000000018003f8f0 f i * CIL library *:* CIL module *
 0001:0003e930       ?ReadHostObject@ExternalCopyDeserializerDelegate@ivm@@UEAA?AV?$MaybeLocal@VObject@v8@@@v8@@PEAVIsolate@4@@Z 000000018003f930 f   nortti:external_copy_nortti.obj
 0001:0003eb82       __imp_load_?LowMemoryNotification@Isolate@v8@@QEAAXXZ 000000018003fb82 f   node:node.exe
 0001:0003eb8e       __tailMerge_node_exe       000000018003fb8e     node:node.exe
 0001:0003ec07       __imp_load_?GetHeapStatistics@Isolate@v8@@QEAAXPEAVHeapStatistics@2@@Z 000000018003fc07 f   node:node.exe
 0001:0003ec13       __imp_load_?GetCurrent@Isolate@v8@@SAPEAV12@XZ 000000018003fc13 f   node:node.exe
 0001:0003ec1f       __imp_load_??0HeapStatistics@v8@@QEAA@XZ 000000018003fc1f f   node:node.exe
 0001:0003ec2b       __imp_load_??0Allocator@ArrayBuffer@v8@@QEAA@XZ 000000018003fc2b f   node:node.exe
 0001:0003ec37       __imp_load_?total_heap_size@HeapStatistics@v8@@QEAA_KXZ 000000018003fc37 f   node:node.exe
 0001:0003ec43       __imp_load_??1Allocator@ArrayBuffer@v8@@UEAA@XZ 000000018003fc43 f   node:node.exe
 0001:0003ec4f       __imp_load_?SlowGetAlignedPointerFromInternalField@Object@v8@@AEAAPEAXH@Z 000000018003fc4f f   node:node.exe
 0001:0003ec5b       __imp_load_?InternalFieldCount@Object@v8@@QEAAHXZ 000000018003fc5b f   node:node.exe
 0001:0003ec67       __imp_load_uv_unref        000000018003fc67 f   node:node.exe
 0001:0003ec73       __imp_load_?Exit@Context@v8@@QEAAXXZ 000000018003fc73 f   node:node.exe
 0001:0003ec7f       __imp_load_?Enter@Context@v8@@QEAAXXZ 000000018003fc7f f   node:node.exe
 0001:0003ec8b       __imp_load_?New@Context@v8@@SA?AV?$Local@VContext@v8@@@2@PEAVIsolate@2@PEAVExtensionConfiguration@2@V?$MaybeLocal@VObjectTemplate@v8@@@2@V?$MaybeLocal@VValue@v8@@@2@UDeserializeInternalFieldsCallback@2@@Z 000000018003fc8b f   node:node.exe
 0001:0003ec97       __imp_load_?GetCurrentPlatform@V8@internal@v8@@SAPEAVPlatform@3@XZ 000000018003fc97 f   node:node.exe
 0001:0003eca3       __imp_load_?AddNearHeapLimitCallback@Isolate@v8@@QEAAXP6A_KPEAX_K1@Z0@Z 000000018003fca3 f   node:node.exe
 0001:0003ecaf       __imp_load_?SetOOMErrorHandler@Isolate@v8@@QEAAXP6AXPEBD_N@Z@Z 000000018003fcaf f   node:node.exe
 0001:0003ecbb       __imp_load_?SetStackLimit@Isolate@v8@@QEAAX_K@Z 000000018003fcbb f   node:node.exe
 0001:0003ecc7       __imp_load_?RunMicrotasks@Isolate@v8@@QEAAXXZ 000000018003fcc7 f   node:node.exe
 0001:0003ecd3       __imp_load_?SetPromiseRejectCallback@Isolate@v8@@QEAAXP6AXVPromiseRejectMessage@2@@Z@Z 000000018003fcd3 f   node:node.exe
 0001:0003ecdf       __imp_load_?RequestInterrupt@Isolate@v8@@QEAAXP6AXPEAV12@PEAX@Z1@Z 000000018003fcdf f   node:node.exe
 0001:0003eceb       __imp_load_?TerminateExecution@Isolate@v8@@QEAAXXZ 000000018003fceb f   node:node.exe
 0001:0003ecf7       __imp_load_?AddGCEpilogueCallback@Isolate@v8@@QEAAXP6AXPEAV12@W4GCType@2@W4GCCallbackFlags@2@@Z1@Z 000000018003fcf7 f   node:node.exe
 0001:0003ed03       __imp_load_?ThrowException@Isolate@v8@@QEAA?AV?$Local@VValue@v8@@@2@V32@@Z 000000018003fd03 f   node:node.exe
 0001:0003ed0f       __imp_load_?GetCurrentContext@Isolate@v8@@QEAA?AV?$Local@VContext@v8@@@2@XZ 000000018003fd0f f   node:node.exe
 0001:0003ed1b       __imp_load_?InContext@Isolate@v8@@QEAA_NXZ 000000018003fd1b f   node:node.exe
 0001:0003ed27       __imp_load_?DiscardThreadSpecificMetadata@Isolate@v8@@QEAAXXZ 000000018003fd27 f   node:node.exe
 0001:0003ed33       __imp_load_?Dispose@Isolate@v8@@QEAAXXZ 000000018003fd33 f   node:node.exe
 0001:0003ed3f       __imp_load_?New@Isolate@v8@@SAPEAV12@AEBUCreateParams@12@@Z 000000018003fd3f f   node:node.exe
 0001:0003ed4b       __imp_load_?CreateHandle@HandleScope@v8@@KAPEAPEAVObject@internal@2@PEAVIsolate@42@PEAV342@@Z 000000018003fd4b f   node:node.exe
 0001:0003ed57       __imp_load_??1HandleScope@v8@@QEAA@XZ 000000018003fd57 f   node:node.exe
 0001:0003ed63       __imp_load_??0HandleScope@v8@@QEAA@PEAVIsolate@1@@Z 000000018003fd63 f   node:node.exe
 0001:0003ed6f       __imp_load_?Error@Exception@v8@@SA?AV?$Local@VValue@v8@@@2@V?$Local@VString@v8@@@2@@Z 000000018003fd6f f   node:node.exe
 0001:0003ed7b       __imp_load_?Initialize@Locker@v8@@AEAAXPEAVIsolate@2@@Z 000000018003fd7b f   node:node.exe
 0001:0003ed87       __imp_load_??1Locker@v8@@QEAA@XZ 000000018003fd87 f   node:node.exe
 0001:0003ed93       __imp_load_?Initialize@Unlocker@v8@@AEAAXPEAVIsolate@2@@Z 000000018003fd93 f   node:node.exe
 0001:0003ed9f       __imp_load_??1Unlocker@v8@@QEAA@XZ 000000018003fd9f f   node:node.exe
 0001:0003edab       __imp_load_?DisposeGlobal@V8@v8@@CAXPEAPEAVObject@internal@2@@Z 000000018003fdab f   node:node.exe
 0001:0003edb7       __imp_load_?GlobalizeReference@V8@v8@@CAPEAPEAVObject@internal@2@PEAVIsolate@42@PEAPEAV342@@Z 000000018003fdb7 f   node:node.exe
 0001:0003edc3       __imp_load_?NewFromOneByte@String@v8@@SA?AV?$MaybeLocal@VString@v8@@@2@PEAVIsolate@2@PEBEW4NewStringType@2@H@Z 000000018003fdc3 f   node:node.exe
 0001:0003edcf       __imp_load_??0ResourceConstraints@v8@@QEAA@XZ 000000018003fdcf f   node:node.exe
 0001:0003eddb       __imp_load_?Set@Object@v8@@QEAA?AV?$Maybe@_N@2@V?$Local@VContext@v8@@@2@V?$Local@VValue@v8@@@2@1@Z 000000018003fddb f   node:node.exe
 0001:0003ede7       __imp_load_uv_ref          000000018003fde7 f   node:node.exe
 0001:0003edf3       __imp_load_uv_async_send   000000018003fdf3 f   node:node.exe
 0001:0003edff       __imp_load_uv_async_init   000000018003fdff f   node:node.exe
 0001:0003ee0b       __imp_load_uv_default_loop 000000018003fe0b f   node:node.exe
 0001:0003ee17       __imp_load_??1Scope@Isolate@v8@@QEAA@XZ 000000018003fe17 f   node:node.exe
 0001:0003ee23       __imp_load_??0Scope@Isolate@v8@@QEAA@PEAV12@@Z 000000018003fe23 f   node:node.exe
 0001:0003ee2f       __imp_load_?does_zap_garbage@HeapStatistics@v8@@QEAA_KXZ 000000018003fe2f f   node:node.exe
 0001:0003ee3b       __imp_load_?peak_malloced_memory@HeapStatistics@v8@@QEAA_KXZ 000000018003fe3b f   node:node.exe
 0001:0003ee47       __imp_load_?malloced_memory@HeapStatistics@v8@@QEAA_KXZ 000000018003fe47 f   node:node.exe
 0001:0003ee53       __imp_load_?heap_size_limit@HeapStatistics@v8@@QEAA_KXZ 000000018003fe53 f   node:node.exe
 0001:0003ee5f       __imp_load_?used_heap_size@HeapStatistics@v8@@QEAA_KXZ 000000018003fe5f f   node:node.exe
 0001:0003ee6b       __imp_load_?total_available_size@HeapStatistics@v8@@QEAA_KXZ 000000018003fe6b f   node:node.exe
 0001:0003ee77       __imp_load_?total_physical_size@HeapStatistics@v8@@QEAA_KXZ 000000018003fe77 f   node:node.exe
 0001:0003ee83       __imp_load_?total_heap_size_executable@HeapStatistics@v8@@QEAA_KXZ 000000018003fe83 f   node:node.exe
 0001:0003ee8f       __imp_load_?create@V8Inspector@v8_inspector@@SA?AV?$unique_ptr@VV8Inspector@v8_inspector@@U?$default_delete@VV8Inspector@v8_inspector@@@std@@@std@@PEAVIsolate@v8@@PEAVV8InspectorClient@2@@Z 000000018003fe8f f   node:node.exe
 0001:0003ee9b       __imp_load_??0Channel@V8Inspector@v8_inspector@@QEAA@XZ 000000018003fe9b f   node:node.exe
 0001:0003eea7       __imp_load_??0V8InspectorClient@v8_inspector@@QEAA@XZ 000000018003fea7 f   node:node.exe
 0001:0003eeb3       __imp_load_??1Channel@V8Inspector@v8_inspector@@UEAA@XZ 000000018003feb3 f   node:node.exe
 0001:0003eebf       __imp_load_?resourceNameToUrl@V8InspectorClient@v8_inspector@@UEAA?AV?$unique_ptr@VStringBuffer@v8_inspector@@U?$default_delete@VStringBuffer@v8_inspector@@@std@@@std@@AEBVStringView@2@@Z 000000018003febf f   node:node.exe
 0001:0003eecb       ?resourceNameToUrl@V8InspectorClient@v8_inspector@@UEAA?AV?$unique_ptr@VStringBuffer@v8_inspector@@U?$default_delete@VStringBuffer@v8_inspector@@@std@@@std@@AEBVStringView@2@@Z 000000018003fecb f   node:node.exe
 0001:0003eed1       __imp_load_?maxAsyncCallStackDepthChanged@V8InspectorClient@v8_inspector@@UEAAXH@Z 000000018003fed1 f   node:node.exe
 0001:0003eedd       ?maxAsyncCallStackDepthChanged@V8InspectorClient@v8_inspector@@UEAAXH@Z 000000018003fedd f   node:node.exe
 0001:0003eee3       __imp_load_?canExecuteScripts@V8InspectorClient@v8_inspector@@UEAA_NH@Z 000000018003fee3 f   node:node.exe
 0001:0003eeef       ?canExecuteScripts@V8InspectorClient@v8_inspector@@UEAA_NH@Z 000000018003feef f   node:node.exe
 0001:0003eef5       __imp_load_?cancelTimer@V8InspectorClient@v8_inspector@@UEAAXPEAX@Z 000000018003fef5 f   node:node.exe
 0001:0003ef01       ?cancelTimer@V8InspectorClient@v8_inspector@@UEAAXPEAX@Z 000000018003ff01 f   node:node.exe
 0001:0003ef07       __imp_load_?startRepeatingTimer@V8InspectorClient@v8_inspector@@UEAAXNP6AXPEAX@Z0@Z 000000018003ff07 f   node:node.exe
 0001:0003ef13       ?startRepeatingTimer@V8InspectorClient@v8_inspector@@UEAAXNP6AXPEAX@Z0@Z 000000018003ff13 f   node:node.exe
 0001:0003ef19       __imp_load_?currentTimeMS@V8InspectorClient@v8_inspector@@UEAANXZ 000000018003ff19 f   node:node.exe
 0001:0003ef25       ?currentTimeMS@V8InspectorClient@v8_inspector@@UEAANXZ 000000018003ff25 f   node:node.exe
 0001:0003ef2b       __imp_load_?consoleClear@V8InspectorClient@v8_inspector@@UEAAXH@Z 000000018003ff2b f   node:node.exe
 0001:0003ef37       ?consoleClear@V8InspectorClient@v8_inspector@@UEAAXH@Z 000000018003ff37 f   node:node.exe
 0001:0003ef3d       __imp_load_?consoleTimeStamp@V8InspectorClient@v8_inspector@@UEAAXAEBVStringView@2@@Z 000000018003ff3d f   node:node.exe
 0001:0003ef49       ?consoleTimeStamp@V8InspectorClient@v8_inspector@@UEAAXAEBVStringView@2@@Z 000000018003ff49 f   node:node.exe
 0001:0003ef4f       __imp_load_?consoleTimeEnd@V8InspectorClient@v8_inspector@@UEAAXAEBVStringView@2@@Z 000000018003ff4f f   node:node.exe
 0001:0003ef5b       ?consoleTimeEnd@V8InspectorClient@v8_inspector@@UEAAXAEBVStringView@2@@Z 000000018003ff5b f   node:node.exe
 0001:0003ef61       __imp_load_?consoleTime@V8InspectorClient@v8_inspector@@UEAAXAEBVStringView@2@@Z 000000018003ff61 f   node:node.exe
 0001:0003ef6d       ?consoleTime@V8InspectorClient@v8_inspector@@UEAAXAEBVStringView@2@@Z 000000018003ff6d f   node:node.exe
 0001:0003ef73       __imp_load_?memoryInfo@V8InspectorClient@v8_inspector@@UEAA?AV?$MaybeLocal@VValue@v8@@@v8@@PEAVIsolate@4@V?$Local@VContext@v8@@@4@@Z 000000018003ff73 f   node:node.exe
 0001:0003ef7f       ?memoryInfo@V8InspectorClient@v8_inspector@@UEAA?AV?$MaybeLocal@VValue@v8@@@v8@@PEAVIsolate@4@V?$Local@VContext@v8@@@4@@Z 000000018003ff7f f   node:node.exe
 0001:0003ef85       __imp_load_?consoleAPIMessage@V8InspectorClient@v8_inspector@@UEAAXHW4MessageErrorLevel@Isolate@v8@@AEBVStringView@2@1IIPEAVV8StackTrace@2@@Z 000000018003ff85 f   node:node.exe
 0001:0003ef91       ?consoleAPIMessage@V8InspectorClient@v8_inspector@@UEAAXHW4MessageErrorLevel@Isolate@v8@@AEBVStringView@2@1IIPEAVV8StackTrace@2@@Z 000000018003ff91 f   node:node.exe
 0001:0003ef97       __imp_load_?installAdditionalCommandLineAPI@V8InspectorClient@v8_inspector@@UEAAXV?$Local@VContext@v8@@@v8@@V?$Local@VObject@v8@@@4@@Z 000000018003ff97 f   node:node.exe
 0001:0003efa3       ?installAdditionalCommandLineAPI@V8InspectorClient@v8_inspector@@UEAAXV?$Local@VContext@v8@@@v8@@V?$Local@VObject@v8@@@4@@Z 000000018003ffa3 f   node:node.exe
 0001:0003efa9       __imp_load_?endEnsureAllContextsInGroup@V8InspectorClient@v8_inspector@@UEAAXH@Z 000000018003ffa9 f   node:node.exe
 0001:0003efb5       ?endEnsureAllContextsInGroup@V8InspectorClient@v8_inspector@@UEAAXH@Z 000000018003ffb5 f   node:node.exe
 0001:0003efbb       __imp_load_?beginEnsureAllContextsInGroup@V8InspectorClient@v8_inspector@@UEAAXH@Z 000000018003ffbb f   node:node.exe
 0001:0003efc7       ?beginEnsureAllContextsInGroup@V8InspectorClient@v8_inspector@@UEAAXH@Z 000000018003ffc7 f   node:node.exe
 0001:0003efcd       __imp_load_?ensureDefaultContextInGroup@V8InspectorClient@v8_inspector@@UEAA?AV?$Local@VContext@v8@@@v8@@H@Z 000000018003ffcd f   node:node.exe
 0001:0003efd9       ?ensureDefaultContextInGroup@V8InspectorClient@v8_inspector@@UEAA?AV?$Local@VContext@v8@@@v8@@H@Z 000000018003ffd9 f   node:node.exe
 0001:0003efdf       __imp_load_?isInspectableHeapObject@V8InspectorClient@v8_inspector@@UEAA_NV?$Local@VObject@v8@@@v8@@@Z 000000018003ffdf f   node:node.exe
 0001:0003efeb       ?isInspectableHeapObject@V8InspectorClient@v8_inspector@@UEAA_NV?$Local@VObject@v8@@@v8@@@Z 000000018003ffeb f   node:node.exe
 0001:0003eff1       __imp_load_?formatAccessorsAsProperties@V8InspectorClient@v8_inspector@@UEAA_NV?$Local@VValue@v8@@@v8@@@Z 000000018003fff1 f   node:node.exe
 0001:0003effd       ?formatAccessorsAsProperties@V8InspectorClient@v8_inspector@@UEAA_NV?$Local@VValue@v8@@@v8@@@Z 000000018003fffd f   node:node.exe
 0001:0003f003       __imp_load_?valueSubtype@V8InspectorClient@v8_inspector@@UEAA?AV?$unique_ptr@VStringBuffer@v8_inspector@@U?$default_delete@VStringBuffer@v8_inspector@@@std@@@std@@V?$Local@VValue@v8@@@v8@@@Z 0000000180040003 f   node:node.exe
 0001:0003f00f       ?valueSubtype@V8InspectorClient@v8_inspector@@UEAA?AV?$unique_ptr@VStringBuffer@v8_inspector@@U?$default_delete@VStringBuffer@v8_inspector@@@std@@@std@@V?$Local@VValue@v8@@@v8@@@Z 000000018004000f f   node:node.exe
 0001:0003f015       __imp_load_?endUserGesture@V8InspectorClient@v8_inspector@@UEAAXXZ 0000000180040015 f   node:node.exe
 0001:0003f021       ?endUserGesture@V8InspectorClient@v8_inspector@@UEAAXXZ 0000000180040021 f   node:node.exe
 0001:0003f027       __imp_load_?beginUserGesture@V8InspectorClient@v8_inspector@@UEAAXXZ 0000000180040027 f   node:node.exe
 0001:0003f033       ?beginUserGesture@V8InspectorClient@v8_inspector@@UEAAXXZ 0000000180040033 f   node:node.exe
 0001:0003f039       __imp_load_?unmuteMetrics@V8InspectorClient@v8_inspector@@UEAAXH@Z 0000000180040039 f   node:node.exe
 0001:0003f045       ?unmuteMetrics@V8InspectorClient@v8_inspector@@UEAAXH@Z 0000000180040045 f   node:node.exe
 0001:0003f04b       __imp_load_?muteMetrics@V8InspectorClient@v8_inspector@@UEAAXH@Z 000000018004004b f   node:node.exe
 0001:0003f057       ?muteMetrics@V8InspectorClient@v8_inspector@@UEAAXH@Z 0000000180040057 f   node:node.exe
 0001:0003f05d       __imp_load_?runIfWaitingForDebugger@V8InspectorClient@v8_inspector@@UEAAXH@Z 000000018004005d f   node:node.exe
 0001:0003f069       ?runIfWaitingForDebugger@V8InspectorClient@v8_inspector@@UEAAXH@Z 0000000180040069 f   node:node.exe
 0001:0003f06f       __imp_load_??1V8InspectorClient@v8_inspector@@UEAA@XZ 000000018004006f f   node:node.exe
 0001:0003f07b       __imp_load_?New@Private@v8@@SA?AV?$Local@VPrivate@v8@@@2@PEAVIsolate@2@V?$Local@VString@v8@@@2@@Z 000000018004007b f   node:node.exe
 0001:0003f087       __imp_load_?New@Signature@v8@@SA?AV?$Local@VSignature@v8@@@2@PEAVIsolate@2@V?$Local@VFunctionTemplate@v8@@@2@@Z 0000000180040087 f   node:node.exe
 0001:0003f093       __imp_load_?IsWasm@StackFrame@v8@@QEBA_NXZ 0000000180040093 f   node:node.exe
 0001:0003f09f       __imp_load_?IsConstructor@StackFrame@v8@@QEBA_NXZ 000000018004009f f   node:node.exe
 0001:0003f0ab       __imp_load_?IsEval@StackFrame@v8@@QEBA_NXZ 00000001800400ab f   node:node.exe
 0001:0003f0b7       __imp_load_?GetFunctionName@StackFrame@v8@@QEBA?AV?$Local@VString@v8@@@2@XZ 00000001800400b7 f   node:node.exe
 0001:0003f0c3       __imp_load_?GetScriptNameOrSourceURL@StackFrame@v8@@QEBA?AV?$Local@VString@v8@@@2@XZ 00000001800400c3 f   node:node.exe
 0001:0003f0cf       __imp_load_?GetScriptName@StackFrame@v8@@QEBA?AV?$Local@VString@v8@@@2@XZ 00000001800400cf f   node:node.exe
 0001:0003f0db       __imp_load_?GetColumn@StackFrame@v8@@QEBAHXZ 00000001800400db f   node:node.exe
 0001:0003f0e7       __imp_load_?GetLineNumber@StackFrame@v8@@QEBAHXZ 00000001800400e7 f   node:node.exe
 0001:0003f0f3       __imp_load_?GetStackTrace@Exception@v8@@SA?AV?$Local@VStackTrace@v8@@@2@V?$Local@VValue@v8@@@2@@Z 00000001800400f3 f   node:node.exe
 0001:0003f0ff       __imp_load_?TypeError@Exception@v8@@SA?AV?$Local@VValue@v8@@@2@V?$Local@VString@v8@@@2@@Z 00000001800400ff f   node:node.exe
 0001:0003f10b       __imp_load_?New@AccessorSignature@v8@@SA?AV?$Local@VAccessorSignature@v8@@@2@PEAVIsolate@2@V?$Local@VFunctionTemplate@v8@@@2@@Z 000000018004010b f   node:node.exe
 0001:0003f117       __imp_load_?New@Array@v8@@SA?AV?$Local@VArray@v8@@@2@PEAVIsolate@2@H@Z 0000000180040117 f   node:node.exe
 0001:0003f123       __imp_load_?HasInstance@FunctionTemplate@v8@@QEAA_NV?$Local@VValue@v8@@@2@@Z 0000000180040123 f   node:node.exe
 0001:0003f12f       __imp_load_?SetClassName@FunctionTemplate@v8@@QEAAXV?$Local@VString@v8@@@2@@Z 000000018004012f f   node:node.exe
 0001:0003f13b       __imp_load_?PrototypeTemplate@FunctionTemplate@v8@@QEAA?AV?$Local@VObjectTemplate@v8@@@2@XZ 000000018004013b f   node:node.exe
 0001:0003f147       __imp_load_?InstanceTemplate@FunctionTemplate@v8@@QEAA?AV?$Local@VObjectTemplate@v8@@@2@XZ 0000000180040147 f   node:node.exe
 0001:0003f153       __imp_load_?New@FunctionTemplate@v8@@SA?AV?$Local@VFunctionTemplate@v8@@@2@PEAVIsolate@2@P6AXAEBV?$FunctionCallbackInfo@VValue@v8@@@2@@ZV?$Local@VValue@v8@@@2@V?$Local@VSignature@v8@@@2@HW4ConstructorBehavior@2@W4SideEffectType@2@@Z 0000000180040153 f   node:node.exe
 0001:0003f15f       __imp_load_?Eternalize@V8@v8@@CAPEAVValue@2@PEAVIsolate@2@PEAV32@@Z 000000018004015f f   node:node.exe
 0001:0003f16b       __imp_load_?ClearWeak@V8@v8@@CAPEAXPEAPEAVObject@internal@2@@Z 000000018004016b f   node:node.exe
 0001:0003f177       __imp_load_?MakeWeak@V8@v8@@CAXPEAPEAVObject@internal@2@PEAXP6AXAEBV?$WeakCallbackInfo@X@2@@ZW4WeakCallbackType@2@@Z 0000000180040177 f   node:node.exe
 0001:0003f183       __imp_load_?ToString@Value@v8@@QEBA?AV?$MaybeLocal@VString@v8@@@2@V?$Local@VContext@v8@@@2@@Z 0000000180040183 f   node:node.exe
 0001:0003f18f       __imp_load_?IsArray@Value@v8@@QEBA_NXZ 000000018004018f f   node:node.exe
 0001:0003f19b       __imp_load_??1Utf8Value@String@v8@@QEAA@XZ 000000018004019b f   node:node.exe
 0001:0003f1a7       __imp_load_??0Utf8Value@String@v8@@QEAA@PEAVIsolate@2@V?$Local@VValue@v8@@@2@@Z 00000001800401a7 f   node:node.exe
 0001:0003f1b3       __imp_load_?Concat@String@v8@@SA?AV?$Local@VString@v8@@@2@V32@0@Z 00000001800401b3 f   node:node.exe
 0001:0003f1bf       __imp_load_?NewFromUtf8@String@v8@@SA?AV?$MaybeLocal@VString@v8@@@2@PEAVIsolate@2@PEBDW4NewStringType@2@H@Z 00000001800401bf f   node:node.exe
 0001:0003f1cb       __imp_load_?GetFrameCount@StackTrace@v8@@QEBAHXZ 00000001800401cb f   node:node.exe
 0001:0003f1d7       __imp_load_?GetFrame@StackTrace@v8@@QEBA?AV?$Local@VStackFrame@v8@@@2@I@Z 00000001800401d7 f   node:node.exe
 0001:0003f1e3       __imp_load_?SetAlignedPointerInInternalField@Object@v8@@QEAAXHPEAX@Z 00000001800401e3 f   node:node.exe
 0001:0003f1ef       __imp_load_?GetConstructorName@Object@v8@@QEAA?AV?$Local@VString@v8@@@2@XZ 00000001800401ef f   node:node.exe
 0001:0003f1fb       __imp_load_?GetPrivate@Object@v8@@QEAA?AV?$MaybeLocal@VValue@v8@@@2@V?$Local@VContext@v8@@@2@V?$Local@VPrivate@v8@@@2@@Z 00000001800401fb f   node:node.exe
 0001:0003f207       __imp_load_?SetPrivate@Object@v8@@QEAA?AV?$Maybe@_N@2@V?$Local@VContext@v8@@@2@V?$Local@VPrivate@v8@@@2@V?$Local@VValue@v8@@@2@@Z 0000000180040207 f   node:node.exe
 0001:0003f213       __imp_load_?SetAccessor@Object@v8@@QEAA?AV?$Maybe@_N@2@V?$Local@VContext@v8@@@2@V?$Local@VName@v8@@@2@P6AX1AEBV?$PropertyCallbackInfo@VValue@v8@@@2@@ZP6AX1V?$Local@VValue@v8@@@2@AEBV?$PropertyCallbackInfo@X@2@@ZV?$MaybeLocal@VValue@v8@@@2@W4AccessControl@2@W4PropertyAttribute@2@W4SideEffectType@2@@Z 0000000180040213 f   node:node.exe
 0001:0003f21f       __imp_load_?Get@Object@v8@@QEAA?AV?$MaybeLocal@VValue@v8@@@2@V?$Local@VContext@v8@@@2@V?$Local@VValue@v8@@@2@@Z 000000018004021f f   node:node.exe
 0001:0003f22b       __imp_load_?Get@Object@v8@@QEAA?AV?$MaybeLocal@VValue@v8@@@2@V?$Local@VContext@v8@@@2@I@Z 000000018004022b f   node:node.exe
 0001:0003f237       __imp_load_?Set@Object@v8@@QEAA?AV?$Maybe@_N@2@V?$Local@VContext@v8@@@2@IV?$Local@VValue@v8@@@2@@Z 0000000180040237 f   node:node.exe
 0001:0003f243       __imp_load_?SetInternalFieldCount@ObjectTemplate@v8@@QEAAXH@Z 0000000180040243 f   node:node.exe
 0001:0003f24f       __imp_load_?NewInstance@ObjectTemplate@v8@@QEAA?AV?$MaybeLocal@VObject@v8@@@2@V?$Local@VContext@v8@@@2@@Z 000000018004024f f   node:node.exe
 0001:0003f25b       __imp_load_?Reject@Resolver@Promise@v8@@QEAA?AV?$Maybe@_N@3@V?$Local@VContext@v8@@@3@V?$Local@VValue@v8@@@3@@Z 000000018004025b f   node:node.exe
 0001:0003f267       __imp_load_?Resolve@Resolver@Promise@v8@@QEAA?AV?$Maybe@_N@3@V?$Local@VContext@v8@@@3@V?$Local@VValue@v8@@@3@@Z 0000000180040267 f   node:node.exe
 0001:0003f273       __imp_load_?GetPromise@Resolver@Promise@v8@@QEAA?AV?$Local@VPromise@v8@@@3@XZ 0000000180040273 f   node:node.exe
 0001:0003f27f       __imp_load_?IsLocked@Locker@v8@@SA_NPEAVIsolate@2@@Z 000000018004027f f   node:node.exe
 0001:0003f28b       __imp_load_?IsObject@Value@v8@@QEBA_NXZ 000000018004028b f   node:node.exe
 0001:0003f297       __imp_load_?Reset@TryCatch@v8@@QEAAXXZ 0000000180040297 f   node:node.exe
 0001:0003f2a3       __imp_load_?Exception@TryCatch@v8@@QEBA?AV?$Local@VValue@v8@@@2@XZ 00000001800402a3 f   node:node.exe
 0001:0003f2af       __imp_load_?ReThrow@TryCatch@v8@@QEAA?AV?$Local@VValue@v8@@@2@XZ 00000001800402af f   node:node.exe
 0001:0003f2bb       __imp_load_?HasCaught@TryCatch@v8@@QEBA_NXZ 00000001800402bb f   node:node.exe
 0001:0003f2c7       __imp_load_??1TryCatch@v8@@QEAA@XZ 00000001800402c7 f   node:node.exe
 0001:0003f2d3       __imp_load_??0TryCatch@v8@@QEAA@PEAVIsolate@1@@Z 00000001800402d3 f   node:node.exe
 0001:0003f2df       __imp_load_?CurrentStackTrace@StackTrace@v8@@SA?AV?$Local@VStackTrace@v8@@@2@PEAVIsolate@2@HW4StackTraceOptions@12@@Z 00000001800402df f   node:node.exe
 0001:0003f2eb       __imp_load_??1CallbackScope@node@@QEAA@XZ 00000001800402eb f   node:node.exe
 0001:0003f2f7       __imp_load_??0CallbackScope@node@@QEAA@PEAVIsolate@v8@@V?$Local@VObject@v8@@@3@Uasync_context@1@@Z 00000001800402f7 f   node:node.exe
 0001:0003f303       __imp_load_?EmitAsyncDestroy@node@@YAXPEAVIsolate@v8@@Uasync_context@1@@Z 0000000180040303 f   node:node.exe
 0001:0003f30f       __imp_load_?EmitAsyncInit@node@@YA?AUasync_context@1@PEAVIsolate@v8@@V?$Local@VObject@v8@@@4@V?$Local@VString@v8@@@4@N@Z 000000018004030f f   node:node.exe
 0001:0003f31b       __imp_load_?Set@Template@v8@@QEAAXV?$Local@VName@v8@@@2@V?$Local@VData@v8@@@2@W4PropertyAttribute@2@@Z 000000018004031b f   node:node.exe
 0001:0003f327       __imp_load_?Inherit@FunctionTemplate@v8@@QEAAXV?$Local@VFunctionTemplate@v8@@@2@@Z 0000000180040327 f   node:node.exe
 0001:0003f333       __imp_load_?CreateDataProperty@Object@v8@@QEAA?AV?$Maybe@_N@2@V?$Local@VContext@v8@@@2@V?$Local@VName@v8@@@2@V?$Local@VValue@v8@@@2@@Z 0000000180040333 f   node:node.exe
 0001:0003f33f       __imp_load_?SetAccessor@ObjectTemplate@v8@@QEAAXV?$Local@VString@v8@@@2@P6AX0AEBV?$PropertyCallbackInfo@VValue@v8@@@2@@ZP6AX0V?$Local@VValue@v8@@@2@AEBV?$PropertyCallbackInfo@X@2@@Z3W4AccessControl@2@W4PropertyAttribute@2@V?$Local@VAccessorSignature@v8@@@2@@Z 000000018004033f f   node:node.exe
 0001:0003f34b       __imp_load_?New@Uint8Array@v8@@SA?AV?$Local@VUint8Array@v8@@@2@V?$Local@VArrayBuffer@v8@@@2@_K1@Z 000000018004034b f   node:node.exe
 0001:0003f357       __imp_load_?New@Uint8Array@v8@@SA?AV?$Local@VUint8Array@v8@@@2@V?$Local@VSharedArrayBuffer@v8@@@2@_K1@Z 0000000180040357 f   node:node.exe
 0001:0003f363       __imp_load_?New@Uint8ClampedArray@v8@@SA?AV?$Local@VUint8ClampedArray@v8@@@2@V?$Local@VArrayBuffer@v8@@@2@_K1@Z 0000000180040363 f   node:node.exe
 0001:0003f36f       __imp_load_?New@Uint8ClampedArray@v8@@SA?AV?$Local@VUint8ClampedArray@v8@@@2@V?$Local@VSharedArrayBuffer@v8@@@2@_K1@Z 000000018004036f f   node:node.exe
 0001:0003f37b       __imp_load_?New@DataView@v8@@SA?AV?$Local@VDataView@v8@@@2@V?$Local@VArrayBuffer@v8@@@2@_K1@Z 000000018004037b f   node:node.exe
 0001:0003f387       __imp_load_?New@DataView@v8@@SA?AV?$Local@VDataView@v8@@@2@V?$Local@VSharedArrayBuffer@v8@@@2@_K1@Z 0000000180040387 f   node:node.exe
 0001:0003f393       __imp_load_?NewFromUnsigned@Integer@v8@@SA?AV?$Local@VInteger@v8@@@2@PEAVIsolate@2@I@Z 0000000180040393 f   node:node.exe
 0001:0003f39f       __imp_load_?New@Integer@v8@@SA?AV?$Local@VInteger@v8@@@2@PEAVIsolate@2@H@Z 000000018004039f f   node:node.exe
 0001:0003f3ab       __imp_load_?New@Int8Array@v8@@SA?AV?$Local@VInt8Array@v8@@@2@V?$Local@VArrayBuffer@v8@@@2@_K1@Z 00000001800403ab f   node:node.exe
 0001:0003f3b7       __imp_load_?New@Int8Array@v8@@SA?AV?$Local@VInt8Array@v8@@@2@V?$Local@VSharedArrayBuffer@v8@@@2@_K1@Z 00000001800403b7 f   node:node.exe
 0001:0003f3c3       __imp_load_?HasBuffer@ArrayBufferView@v8@@QEBA_NXZ 00000001800403c3 f   node:node.exe
 0001:0003f3cf       __imp_load_?ByteLength@ArrayBufferView@v8@@QEAA_KXZ 00000001800403cf f   node:node.exe
 0001:0003f3db       __imp_load_?ByteOffset@ArrayBufferView@v8@@QEAA_KXZ 00000001800403db f   node:node.exe
 0001:0003f3e7       __imp_load_?Buffer@ArrayBufferView@v8@@QEAA?AV?$Local@VArrayBuffer@v8@@@2@XZ 00000001800403e7 f   node:node.exe
 0001:0003f3f3       __imp_load_?SyntaxError@Exception@v8@@SA?AV?$Local@VValue@v8@@@2@V?$Local@VString@v8@@@2@@Z 00000001800403f3 f   node:node.exe
 0001:0003f3ff       __imp_load_?ReferenceError@Exception@v8@@SA?AV?$Local@VValue@v8@@@2@V?$Local@VString@v8@@@2@@Z 00000001800403ff f   node:node.exe
 0001:0003f40b       __imp_load_?RangeError@Exception@v8@@SA?AV?$Local@VValue@v8@@@2@V?$Local@VString@v8@@@2@@Z 000000018004040b f   node:node.exe
 0001:0003f417       __imp_load_?New@Float32Array@v8@@SA?AV?$Local@VFloat32Array@v8@@@2@V?$Local@VArrayBuffer@v8@@@2@_K1@Z 0000000180040417 f   node:node.exe
 0001:0003f423       __imp_load_?New@Float32Array@v8@@SA?AV?$Local@VFloat32Array@v8@@@2@V?$Local@VSharedArrayBuffer@v8@@@2@_K1@Z 0000000180040423 f   node:node.exe
 0001:0003f42f       __imp_load_?ValueOf@Date@v8@@QEBANXZ 000000018004042f f   node:node.exe
 0001:0003f43b       __imp_load_?New@Date@v8@@SA?AV?$MaybeLocal@VValue@v8@@@2@V?$Local@VContext@v8@@@2@N@Z 000000018004043b f   node:node.exe
 0001:0003f447       __imp_load_?Value@Boolean@v8@@QEBA_NXZ 0000000180040447 f   node:node.exe
 0001:0003f453       __imp_load_?GetContents@ArrayBuffer@v8@@QEAA?AVContents@12@XZ 0000000180040453 f   node:node.exe
 0001:0003f45f       __imp_load_?Externalize@ArrayBuffer@v8@@QEAA?AVContents@12@XZ 000000018004045f f   node:node.exe
 0001:0003f46b       __imp_load_?Neuter@ArrayBuffer@v8@@QEAAXXZ 000000018004046b f   node:node.exe
 0001:0003f477       __imp_load_?IsNeuterable@ArrayBuffer@v8@@QEBA_NXZ 0000000180040477 f   node:node.exe
 0001:0003f483       __imp_load_?IsExternal@ArrayBuffer@v8@@QEBA_NXZ 0000000180040483 f   node:node.exe
 0001:0003f48f       __imp_load_?New@ArrayBuffer@v8@@SA?AV?$Local@VArrayBuffer@v8@@@2@PEAVIsolate@2@_K@Z 000000018004048f f   node:node.exe
 0001:0003f49b       __imp_load_?New@ArrayBuffer@v8@@SA?AV?$Local@VArrayBuffer@v8@@@2@PEAVIsolate@2@PEAX_KW4ArrayBufferCreationMode@2@@Z 000000018004049b f   node:node.exe
 0001:0003f4a7       __imp_load_?ByteLength@ArrayBuffer@v8@@QEBA_KXZ 00000001800404a7 f   node:node.exe
 0001:0003f4b3       __imp_load_?IsSharedArrayBuffer@Value@v8@@QEBA_NXZ 00000001800404b3 f   node:node.exe
 0001:0003f4bf       __imp_load_?IsDataView@Value@v8@@QEBA_NXZ 00000001800404bf f   node:node.exe
 0001:0003f4cb       __imp_load_?IsFloat64Array@Value@v8@@QEBA_NXZ 00000001800404cb f   node:node.exe
 0001:0003f4d7       __imp_load_?IsFloat32Array@Value@v8@@QEBA_NXZ 00000001800404d7 f   node:node.exe
 0001:0003f4e3       __imp_load_?IsInt32Array@Value@v8@@QEBA_NXZ 00000001800404e3 f   node:node.exe
 0001:0003f4ef       __imp_load_?IsUint32Array@Value@v8@@QEBA_NXZ 00000001800404ef f   node:node.exe
 0001:0003f4fb       __imp_load_?IsInt16Array@Value@v8@@QEBA_NXZ 00000001800404fb f   node:node.exe
 0001:0003f507       __imp_load_?IsUint16Array@Value@v8@@QEBA_NXZ 0000000180040507 f   node:node.exe
 0001:0003f513       __imp_load_?IsInt8Array@Value@v8@@QEBA_NXZ 0000000180040513 f   node:node.exe
 0001:0003f51f       __imp_load_?IsUint8ClampedArray@Value@v8@@QEBA_NXZ 000000018004051f f   node:node.exe
 0001:0003f52b       __imp_load_?IsUint8Array@Value@v8@@QEBA_NXZ 000000018004052b f   node:node.exe
 0001:0003f537       __imp_load_?IsArrayBufferView@Value@v8@@QEBA_NXZ 0000000180040537 f   node:node.exe
 0001:0003f543       __imp_load_?IsArrayBuffer@Value@v8@@QEBA_NXZ 0000000180040543 f   node:node.exe
 0001:0003f54f       __imp_load_?IsDate@Value@v8@@QEBA_NXZ 000000018004054f f   node:node.exe
 0001:0003f55b       __imp_load_?IsUint32@Value@v8@@QEBA_NXZ 000000018004055b f   node:node.exe
 0001:0003f567       __imp_load_?IsInt32@Value@v8@@QEBA_NXZ 0000000180040567 f   node:node.exe
 0001:0003f573       __imp_load_?IsNumber@Value@v8@@QEBA_NXZ 0000000180040573 f   node:node.exe
 0001:0003f57f       __imp_load_?IsBoolean@Value@v8@@QEBA_NXZ 000000018004057f f   node:node.exe
 0001:0003f58b       __imp_load_?IsSymbol@Value@v8@@QEBA_NXZ 000000018004058b f   node:node.exe
 0001:0003f597       __imp_load_?TransferSharedArrayBuffer@ValueDeserializer@v8@@QEAAXIV?$Local@VSharedArrayBuffer@v8@@@2@@Z 0000000180040597 f   node:node.exe
 0001:0003f5a3       __imp_load_?TransferArrayBuffer@ValueDeserializer@v8@@QEAAXIV?$Local@VArrayBuffer@v8@@@2@@Z 00000001800405a3 f   node:node.exe
 0001:0003f5af       __imp_load_?ReadValue@ValueDeserializer@v8@@QEAA?AV?$MaybeLocal@VValue@v8@@@2@V?$Local@VContext@v8@@@2@@Z 00000001800405af f   node:node.exe
 0001:0003f5bb       __imp_load_?ReadHeader@ValueDeserializer@v8@@QEAA?AV?$Maybe@_N@2@V?$Local@VContext@v8@@@2@@Z 00000001800405bb f   node:node.exe
 0001:0003f5c7       __imp_load_??1ValueDeserializer@v8@@QEAA@XZ 00000001800405c7 f   node:node.exe
 0001:0003f5d3       __imp_load_??0ValueDeserializer@v8@@QEAA@PEAVIsolate@1@PEBE_KPEAVDelegate@01@@Z 00000001800405d3 f   node:node.exe
 0001:0003f5df       __imp_load_?New@Float64Array@v8@@SA?AV?$Local@VFloat64Array@v8@@@2@V?$Local@VArrayBuffer@v8@@@2@_K1@Z 00000001800405df f   node:node.exe
 0001:0003f5eb       __imp_load_?New@Float64Array@v8@@SA?AV?$Local@VFloat64Array@v8@@@2@V?$Local@VSharedArrayBuffer@v8@@@2@_K1@Z 00000001800405eb f   node:node.exe
 0001:0003f5f7       __imp_load_?Value@Uint32@v8@@QEBAIXZ 00000001800405f7 f   node:node.exe
 0001:0003f603       __imp_load_?New@Uint16Array@v8@@SA?AV?$Local@VUint16Array@v8@@@2@V?$Local@VArrayBuffer@v8@@@2@_K1@Z 0000000180040603 f   node:node.exe
 0001:0003f60f       __imp_load_?New@Uint16Array@v8@@SA?AV?$Local@VUint16Array@v8@@@2@V?$Local@VSharedArrayBuffer@v8@@@2@_K1@Z 000000018004060f f   node:node.exe
 0001:0003f61b       __imp_load_?NewExternalOneByte@String@v8@@SA?AV?$MaybeLocal@VString@v8@@@2@PEAVIsolate@2@PEAVExternalOneByteStringResource@12@@Z 000000018004061b f   node:node.exe
 0001:0003f627       __imp_load_?NewExternalTwoByte@String@v8@@SA?AV?$MaybeLocal@VString@v8@@@2@PEAVIsolate@2@PEAVExternalStringResource@12@@Z 0000000180040627 f   node:node.exe
 0001:0003f633       __imp_load_?NewFromTwoByte@String@v8@@SA?AV?$MaybeLocal@VString@v8@@@2@PEAVIsolate@2@PEBGW4NewStringType@2@H@Z 0000000180040633 f   node:node.exe
 0001:0003f63f       __imp_load_?WriteOneByte@String@v8@@QEBAHPEAEHHH@Z 000000018004063f f   node:node.exe
 0001:0003f64b       __imp_load_?Write@String@v8@@QEBAHPEAGHHH@Z 000000018004064b f   node:node.exe
 0001:0003f657       __imp_load_?IsOneByte@String@v8@@QEBA_NXZ 0000000180040657 f   node:node.exe
 0001:0003f663       __imp_load_?Length@String@v8@@QEBAHXZ 0000000180040663 f   node:node.exe
 0001:0003f66f       __imp_load_?Externalize@SharedArrayBuffer@v8@@QEAA?AVContents@12@XZ 000000018004066f f   node:node.exe
 0001:0003f67b       __imp_load_?IsExternal@SharedArrayBuffer@v8@@QEBA_NXZ 000000018004067b f   node:node.exe
 0001:0003f687       __imp_load_?New@SharedArrayBuffer@v8@@SA?AV?$Local@VSharedArrayBuffer@v8@@@2@PEAVIsolate@2@PEAX_KW4ArrayBufferCreationMode@2@@Z 0000000180040687 f   node:node.exe
 0001:0003f693       __imp_load_?ByteLength@SharedArrayBuffer@v8@@QEBA_KXZ 0000000180040693 f   node:node.exe
 0001:0003f69f       __imp_load_?Value@Int32@v8@@QEBAHXZ 000000018004069f f   node:node.exe
 0001:0003f6ab       __imp_load_?New@Int32Array@v8@@SA?AV?$Local@VInt32Array@v8@@@2@V?$Local@VArrayBuffer@v8@@@2@_K1@Z 00000001800406ab f   node:node.exe
 0001:0003f6b7       __imp_load_?New@Int32Array@v8@@SA?AV?$Local@VInt32Array@v8@@@2@V?$Local@VSharedArrayBuffer@v8@@@2@_K1@Z 00000001800406b7 f   node:node.exe
 0001:0003f6c3       __imp_load_?New@Number@v8@@SA?AV?$Local@VNumber@v8@@@2@PEAVIsolate@2@N@Z 00000001800406c3 f   node:node.exe
 0001:0003f6cf       __imp_load_?Value@Number@v8@@QEBANXZ 00000001800406cf f   node:node.exe
 0001:0003f6db       __imp_load_?TransferArrayBuffer@ValueSerializer@v8@@QEAAXIV?$Local@VArrayBuffer@v8@@@2@@Z 00000001800406db f   node:node.exe
 0001:0003f6e7       __imp_load_?Release@ValueSerializer@v8@@QEAA?AU?$pair@PEAE_K@std@@XZ 00000001800406e7 f   node:node.exe
 0001:0003f6f3       __imp_load_?WriteValue@ValueSerializer@v8@@QEAA?AV?$Maybe@_N@2@V?$Local@VContext@v8@@@2@V?$Local@VValue@v8@@@2@@Z 00000001800406f3 f   node:node.exe
 0001:0003f6ff       __imp_load_?WriteHeader@ValueSerializer@v8@@QEAAXXZ 00000001800406ff f   node:node.exe
 0001:0003f70b       __imp_load_??1ValueSerializer@v8@@QEAA@XZ 000000018004070b f   node:node.exe
 0001:0003f717       __imp_load_??0ValueSerializer@v8@@QEAA@PEAVIsolate@1@PEAVDelegate@01@@Z 0000000180040717 f   node:node.exe
 0001:0003f723       __imp_load_?New@Int16Array@v8@@SA?AV?$Local@VInt16Array@v8@@@2@V?$Local@VArrayBuffer@v8@@@2@_K1@Z 0000000180040723 f   node:node.exe
 0001:0003f72f       __imp_load_?New@Int16Array@v8@@SA?AV?$Local@VInt16Array@v8@@@2@V?$Local@VSharedArrayBuffer@v8@@@2@_K1@Z 000000018004072f f   node:node.exe
 0001:0003f73b       __imp_load_?New@Uint32Array@v8@@SA?AV?$Local@VUint32Array@v8@@@2@V?$Local@VArrayBuffer@v8@@@2@_K1@Z 000000018004073b f   node:node.exe
 0001:0003f747       __imp_load_?New@Uint32Array@v8@@SA?AV?$Local@VUint32Array@v8@@@2@V?$Local@VSharedArrayBuffer@v8@@@2@_K1@Z 0000000180040747 f   node:node.exe
 0001:0003f753       __imp_load_??0ExternalOneByteStringResource@String@v8@@IEAA@XZ 0000000180040753 f   node:node.exe
 0001:0003f75f       __imp_load_??1ExternalOneByteStringResource@String@v8@@UEAA@XZ 000000018004075f f   node:node.exe
 0001:0003f76b       __imp_load_??0ExternalStringResource@String@v8@@IEAA@XZ 000000018004076b f   node:node.exe
 0001:0003f777       __imp_load_??1ExternalStringResource@String@v8@@UEAA@XZ 0000000180040777 f   node:node.exe
 0001:0003f783       __imp_load_?Dispose@ExternalStringResourceBase@String@v8@@MEAAXXZ 0000000180040783 f   node:node.exe
 0001:0003f78f       ?Dispose@ExternalStringResourceBase@String@v8@@MEAAXXZ 000000018004078f f   node:node.exe
 0001:0003f795       __imp_load_?IsCompressible@ExternalStringResourceBase@String@v8@@UEBA_NXZ 0000000180040795 f   node:node.exe
 0001:0003f7a1       ?IsCompressible@ExternalStringResourceBase@String@v8@@UEBA_NXZ 00000001800407a1 f   node:node.exe
 0001:0003f7a7       __imp_load_??1Delegate@ValueDeserializer@v8@@UEAA@XZ 00000001800407a7 f   node:node.exe
 0001:0003f7b3       __imp_load_??1Delegate@ValueSerializer@v8@@UEAA@XZ 00000001800407b3 f   node:node.exe
 0001:0003f7bf       __imp_load_?CheckMemoryPressure@Isolate@v8@@AEAAXXZ 00000001800407bf f   node:node.exe
 0001:0003f7cb       __imp_load_?ReportExternalAllocationLimitReached@Isolate@v8@@AEAAXXZ 00000001800407cb f   node:node.exe
 0001:0003f7d7       __imp_load_?SetAccessorProperty@Template@v8@@QEAAXV?$Local@VName@v8@@@2@V?$Local@VFunctionTemplate@v8@@@2@1W4PropertyAttribute@2@W4AccessControl@2@@Z 00000001800407d7 f   node:node.exe
 0001:0003f7e3       __imp_load_?Length@Array@v8@@QEBAIXZ 00000001800407e3 f   node:node.exe
 0001:0003f7ef       __imp_load_?ToBoolean@Value@v8@@QEBA?AV?$MaybeLocal@VBoolean@v8@@@2@V?$Local@VContext@v8@@@2@@Z 00000001800407ef f   node:node.exe
 0001:0003f7fb       __imp_load_?IsTrue@Value@v8@@QEBA_NXZ 00000001800407fb f   node:node.exe
 0001:0003f807       __imp_load_?ShutdownPlatform@V8@v8@@SAXXZ 0000000180040807 f   node:node.exe
 0001:0003f813       __imp_load_?InitializePlatform@V8@v8@@SAXPEAVPlatform@2@@Z 0000000180040813 f   node:node.exe
 0001:0003f81f       __imp_load_?SetFlagsFromCommandLine@V8@v8@@SAXPEAHPEAPEAD_N@Z 000000018004081f f   node:node.exe
 0001:0003f82b       __imp_load_node_module_register 000000018004082b f   node:node.exe
 0001:0003f837       __imp_load_?DetachGlobal@Context@v8@@QEAAXXZ 0000000180040837 f   node:node.exe
 0001:0003f843       __imp_load_?Global@Context@v8@@QEAA?AV?$Local@VObject@v8@@@2@XZ 0000000180040843 f   node:node.exe
 0001:0003f84f       __imp_load_?New@Resolver@Promise@v8@@SA?AV?$MaybeLocal@VResolver@Promise@v8@@@3@V?$Local@VContext@v8@@@3@@Z 000000018004084f f   node:node.exe
 0001:0003f85b       __imp_load_?ContextDisposedNotification@Isolate@v8@@QEAAH_N@Z 000000018004085b f   node:node.exe
 0001:0003f867       __imp_load_??1CachedData@ScriptCompiler@v8@@QEAA@XZ 0000000180040867 f   node:node.exe
 0001:0003f873       __imp_load_??0CachedData@ScriptCompiler@v8@@QEAA@PEBEHW4BufferPolicy@012@@Z 0000000180040873 f   node:node.exe
 0001:0003f87f       __imp_load_?CreateCodeCache@ScriptCompiler@v8@@SAPEAUCachedData@12@V?$Local@VUnboundScript@v8@@@2@@Z 000000018004087f f   node:node.exe
 0001:0003f88b       __imp_load_?CompileModule@ScriptCompiler@v8@@SA?AV?$MaybeLocal@VModule@v8@@@2@PEAVIsolate@2@PEAVSource@12@@Z 000000018004088b f   node:node.exe
 0001:0003f897       __imp_load_?Compile@ScriptCompiler@v8@@SA?AV?$MaybeLocal@VScript@v8@@@2@V?$Local@VContext@v8@@@2@PEAVSource@12@W4CompileOptions@12@W4NoCacheReason@12@@Z 0000000180040897 f   node:node.exe
 0001:0003f8a3       __imp_load_?CompileUnboundScript@ScriptCompiler@v8@@SA?AV?$MaybeLocal@VUnboundScript@v8@@@2@PEAVIsolate@2@PEAVSource@12@W4CompileOptions@12@W4NoCacheReason@12@@Z 00000001800408a3 f   node:node.exe
 0001:0003f8af       __imp_load_?CreateBlob@SnapshotCreator@v8@@QEAA?AVStartupData@2@W4FunctionCodeHandling@12@@Z 00000001800408af f   node:node.exe
 0001:0003f8bb       __imp_load_?SetDefaultContext@SnapshotCreator@v8@@QEAAXV?$Local@VContext@v8@@@2@USerializeInternalFieldsCallback@2@@Z 00000001800408bb f   node:node.exe
 0001:0003f8c7       __imp_load_?GetIsolate@SnapshotCreator@v8@@QEAAPEAVIsolate@2@XZ 00000001800408c7 f   node:node.exe
 0001:0003f8d3       __imp_load_??1SnapshotCreator@v8@@QEAA@XZ 00000001800408d3 f   node:node.exe
 0001:0003f8df       __imp_load_??0SnapshotCreator@v8@@QEAA@PEB_JPEAVStartupData@1@@Z 00000001800408df f   node:node.exe
 0001:0003f8eb       __imp_load_?BindToCurrentContext@UnboundScript@v8@@QEAA?AV?$Local@VScript@v8@@@2@XZ 00000001800408eb f   node:node.exe
 0001:0003f8f7       __imp_load_?ToLocalEmpty@V8@v8@@CAXXZ 00000001800408f7 f   node:node.exe
 0001:0003f903       __imp_load_?ToArrayIndex@Value@v8@@QEBA?AV?$MaybeLocal@VUint32@v8@@@2@V?$Local@VContext@v8@@@2@@Z 0000000180040903 f   node:node.exe
 0001:0003f90f       __imp_load_?GetStartColumn@Message@v8@@QEBA?AV?$Maybe@H@2@V?$Local@VContext@v8@@@2@@Z 000000018004090f f   node:node.exe
 0001:0003f91b       __imp_load_?GetLineNumber@Message@v8@@QEBA?AV?$Maybe@H@2@V?$Local@VContext@v8@@@2@@Z 000000018004091b f   node:node.exe
 0001:0003f927       __imp_load_?GetScriptResourceName@Message@v8@@QEBA?AV?$Local@VValue@v8@@@2@XZ 0000000180040927 f   node:node.exe
 0001:0003f933       __imp_load_?Message@TryCatch@v8@@QEBA?AV?$Local@VMessage@v8@@@2@XZ 0000000180040933 f   node:node.exe
 0001:0003f93f       __imp_load_?GetUnboundScript@Script@v8@@QEAA?AV?$Local@VUnboundScript@v8@@@2@XZ 000000018004093f f   node:node.exe
 0001:0003f94b       __imp_load_?Run@Script@v8@@QEAA?AV?$MaybeLocal@VValue@v8@@@2@V?$Local@VContext@v8@@@2@@Z 000000018004094b f   node:node.exe
 0001:0003f957       __imp_load_?New@Object@v8@@SA?AV?$Local@VObject@v8@@@2@PEAVIsolate@2@@Z 0000000180040957 f   node:node.exe
 0001:0003f963       __imp_load_?GetOwnPropertyNames@Object@v8@@QEAA?AV?$MaybeLocal@VArray@v8@@@2@V?$Local@VContext@v8@@@2@@Z 0000000180040963 f   node:node.exe
 0001:0003f96f       __imp_load_uv_hrtime       000000018004096f f   node:node.exe
 0001:0003f97b       __imp_load_uv_dlsym        000000018004097b f   node:node.exe
 0001:0003f987       __imp_load_uv_dlopen       0000000180040987 f   node:node.exe
 0001:0003f993       __imp_load_uv_dlclose      0000000180040993 f   node:node.exe
 0001:0003f99f       __imp_load_?Value@External@v8@@QEBAPEAXXZ 000000018004099f f   node:node.exe
 0001:0003f9ab       __imp_load_?New@External@v8@@SA?AV?$Local@VExternal@v8@@@2@PEAVIsolate@2@PEAX@Z 00000001800409ab f   node:node.exe
 0001:0003f9b7       __imp_load_?CancelTerminateExecution@Isolate@v8@@QEAAXXZ 00000001800409b7 f   node:node.exe
 0001:0003f9c3       __imp_load_?GetFunction@FunctionTemplate@v8@@QEAA?AV?$MaybeLocal@VFunction@v8@@@2@V?$Local@VContext@v8@@@2@@Z 00000001800409c3 f   node:node.exe
 0001:0003f9cf       __imp_load_?IsPromise@Value@v8@@QEBA_NXZ 00000001800409cf f   node:node.exe
 0001:0003f9db       __imp_load_?IsFunction@Value@v8@@QEBA_NXZ 00000001800409db f   node:node.exe
 0001:0003f9e7       __imp_load_?Compile@Script@v8@@SA?AV?$MaybeLocal@VScript@v8@@@2@V?$Local@VContext@v8@@@2@V?$Local@VString@v8@@@2@PEAVScriptOrigin@2@@Z 00000001800409e7 f   node:node.exe
 0001:0003f9f3       __imp_load_?Delete@Object@v8@@QEAA?AV?$Maybe@_N@2@V?$Local@VContext@v8@@@2@V?$Local@VValue@v8@@@2@@Z 00000001800409f3 f   node:node.exe
 0001:0003f9ff       __imp_load_?Call@Function@v8@@QEAA?AV?$MaybeLocal@VValue@v8@@@2@V?$Local@VContext@v8@@@2@V?$Local@VValue@v8@@@2@HQEAV52@@Z 00000001800409ff f   node:node.exe
 0001:0003fa0b       __imp_load_?GetModuleNamespace@Module@v8@@QEAA?AV?$Local@VValue@v8@@@2@XZ 0000000180040a0b f   node:node.exe
 0001:0003fa17       __imp_load_?Evaluate@Module@v8@@QEAA?AV?$MaybeLocal@VValue@v8@@@2@V?$Local@VContext@v8@@@2@@Z 0000000180040a17 f   node:node.exe
 0001:0003fa23       __imp_load_?InstantiateModule@Module@v8@@QEAA?AV?$Maybe@_N@2@V?$Local@VContext@v8@@@2@P6A?AV?$MaybeLocal@VModule@v8@@@2@0V?$Local@VString@v8@@@2@V?$Local@VModule@v8@@@2@@Z@Z 0000000180040a23 f   node:node.exe
 0001:0003fa2f       __imp_load_?GetIdentityHash@Module@v8@@QEBAHXZ 0000000180040a2f f   node:node.exe
 0001:0003fa3b       __imp_load_?GetModuleRequest@Module@v8@@QEBA?AV?$Local@VString@v8@@@2@H@Z 0000000180040a3b f   node:node.exe
 0001:0003fa47       __imp_load_?GetModuleRequestsLength@Module@v8@@QEBAHXZ 0000000180040a47 f   node:node.exe
 0001:0003fa53       __imp_load_?GetStatus@Module@v8@@QEBA?AW4Status@12@XZ 0000000180040a53 f   node:node.exe
 0001:0003fa5f       __imp_load_?Then@Promise@v8@@QEAA?AV?$MaybeLocal@VPromise@v8@@@2@V?$Local@VContext@v8@@@2@V?$Local@VFunction@v8@@@2@@Z 0000000180040a5f f   node:node.exe
 0001:0003fa6b       __imp_load_?Catch@Promise@v8@@QEAA?AV?$MaybeLocal@VPromise@v8@@@2@V?$Local@VContext@v8@@@2@V?$Local@VFunction@v8@@@2@@Z 0000000180040a6b f   node:node.exe
 0001:0003fa77       __imp_load_?New@Function@v8@@SA?AV?$MaybeLocal@VFunction@v8@@@2@V?$Local@VContext@v8@@@2@P6AXAEBV?$FunctionCallbackInfo@VValue@v8@@@2@@ZV?$Local@VValue@v8@@@2@HW4ConstructorBehavior@2@W4SideEffectType@2@@Z 0000000180040a77 f   node:node.exe
 0001:0003fa84       ??1GlobalCore@details@Concurrency@@QEAA@XZ 0000000180040a84 f i libcpmt:cond.obj
 0001:0003fa94       ?create_stl_condition_variable@details@Concurrency@@YAXPEAVstl_condition_variable_interface@12@@Z 0000000180040a94 f i libcpmt:cond.obj
 0001:0003fb18       ?destroy@stl_condition_variable_concrt@details@Concurrency@@UEAAXXZ 0000000180040b18 f i libcpmt:cond.obj
 0001:0003fc0c       ?notify_all@stl_condition_variable_concrt@details@Concurrency@@UEAAXXZ 0000000180040c0c f i libcpmt:cond.obj
 0001:0003fc18       ?notify_all@stl_condition_variable_vista@details@Concurrency@@UEAAXXZ 0000000180040c18 f i libcpmt:cond.obj
 0001:0003fc18       ?notify_all@stl_condition_variable_win7@details@Concurrency@@UEAAXXZ 0000000180040c18 f i libcpmt:cond.obj
 0001:0003fc24       ?notify_one@stl_condition_variable_concrt@details@Concurrency@@UEAAXXZ 0000000180040c24 f i libcpmt:cond.obj
 0001:0003fc30       ?notify_one@stl_condition_variable_vista@details@Concurrency@@UEAAXXZ 0000000180040c30 f i libcpmt:cond.obj
 0001:0003fc30       ?notify_one@stl_condition_variable_win7@details@Concurrency@@UEAAXXZ 0000000180040c30 f i libcpmt:cond.obj
 0001:0003fc3c       ?wait@stl_condition_variable_concrt@details@Concurrency@@UEAAXPEAVstl_critical_section_interface@23@@Z 0000000180040c3c f i libcpmt:cond.obj
 0001:0003fc4c       ?wait@stl_condition_variable_vista@details@Concurrency@@UEAAXPEAVstl_critical_section_interface@23@@Z 0000000180040c4c f i libcpmt:cond.obj
 0001:0003fc70       ?wait@stl_condition_variable_win7@details@Concurrency@@UEAAXPEAVstl_critical_section_interface@23@@Z 0000000180040c70 f i libcpmt:cond.obj
 0001:0003fc98       ?wait_for@stl_condition_variable_concrt@details@Concurrency@@UEAA_NPEAVstl_critical_section_interface@23@I@Z 0000000180040c98 f i libcpmt:cond.obj
 0001:0003fca8       ?wait_for@stl_condition_variable_vista@details@Concurrency@@UEAA_NPEAVstl_critical_section_interface@23@I@Z 0000000180040ca8 f i libcpmt:cond.obj
 0001:0003fcc4       ?wait_for@stl_condition_variable_win7@details@Concurrency@@UEAA_NPEAVstl_critical_section_interface@23@I@Z 0000000180040cc4 f i libcpmt:cond.obj
 0001:0003fce4       _Cnd_broadcast             0000000180040ce4 f   libcpmt:cond.obj
 0001:0003fd14       _Cnd_destroy               0000000180040d14 f   libcpmt:cond.obj
 0001:0003fd50       _Cnd_destroy_in_situ       0000000180040d50 f   libcpmt:cond.obj
 0001:0003fd80       _Cnd_init                  0000000180040d80 f   libcpmt:cond.obj
 0001:0003fdc4       _Cnd_init_in_situ          0000000180040dc4 f   libcpmt:cond.obj
 0001:0003fdcc       _Cnd_signal                0000000180040dcc f   libcpmt:cond.obj
 0001:0003fdfc       _Cnd_wait                  0000000180040dfc f   libcpmt:cond.obj
 0001:0003fe04       _Thrd_current              0000000180040e04 f   libcpmt:cthread.obj
 0001:0003fe84       _Thrd_detach               0000000180040e84 f   libcpmt:cthread.obj
 0001:0003fea0       _Thrd_equal                0000000180040ea0 f   libcpmt:cthread.obj
 0001:0003feac       _Thrd_hardware_concurrency 0000000180040eac f   libcpmt:cthread.obj
 0001:0003fec4       _Thrd_join                 0000000180040ec4 f   libcpmt:cthread.obj
 0001:0003ff2c       _Thrd_sleep                0000000180040f2c f   libcpmt:cthread.obj
 0001:0003ffa0       _Thrd_start                0000000180040fa0 f   libcpmt:cthread.obj
 0001:0003ffdc       _Query_perf_counter        0000000180040fdc f   libcpmt:xtime.obj
 0001:0003fff8       _Query_perf_frequency      0000000180040ff8 f   libcpmt:xtime.obj
 0001:00040014       _Xtime_diff_to_millis2     0000000180041014 f   libcpmt:xtime.obj
 0001:000400b8       _Xtime_get_ticks           00000001800410b8 f   libcpmt:xtime.obj
 0001:000400e8       xtime_get                  00000001800410e8 f   libcpmt:xtime.obj
 0001:0004015c       ??0_System_error@std@@QEAA@AEBV01@@Z 000000018004115c f i libcpmt:xonce.obj
 0001:000401b0       ??0exception@std@@QEAA@AEBV01@@Z 00000001800411b0 f i libcpmt:xonce.obj
 0001:000401e8       ??0system_error@std@@QEAA@AEBV01@@Z 00000001800411e8 f i libcpmt:xonce.obj
 0001:00040244       ?_Execute_once@std@@YAHAEAUonce_flag@1@P6AHPEAX1PEAPEAX@Z1@Z 0000000180041244 f   libcpmt:xonce.obj
 0001:0004024c       ?what@exception@std@@UEBAPEBDXZ 000000018004124c f i libcpmt:xonce.obj
 0001:00040260       ??0system_error@std@@QEAA@HAEBVerror_category@1@PEBD@Z 0000000180041260 f i libcpmt:thread0.obj
 0001:000402fc       ?_Throw_C_error@std@@YAXH@Z 00000001800412fc f   libcpmt:thread0.obj
 0001:00040338       ?_Throw_Cpp_error@std@@YAXH@Z 0000000180041338 f   libcpmt:thread0.obj
 0001:00040380       ??0bad_alloc@std@@QEAA@AEBV01@@Z 0000000180041380 f i libcpmt:xthrow.obj
 0001:000403c0       ??0bad_alloc@std@@QEAA@XZ  00000001800413c0 f i libcpmt:xthrow.obj
 0001:000403e0       ??0bad_function_call@std@@QEAA@AEBV01@@Z 00000001800413e0 f i libcpmt:xthrow.obj
 0001:00040420       ??0bad_function_call@std@@QEAA@XZ 0000000180041420 f i libcpmt:xthrow.obj
 0001:00040438       ??0invalid_argument@std@@QEAA@AEBV01@@Z 0000000180041438 f i libcpmt:xthrow.obj
 0001:00040478       ??0invalid_argument@std@@QEAA@PEBD@Z 0000000180041478 f i libcpmt:xthrow.obj
 0001:000404c4       ??0length_error@std@@QEAA@AEBV01@@Z 00000001800414c4 f i libcpmt:xthrow.obj
 0001:00040504       ??0length_error@std@@QEAA@PEBD@Z 0000000180041504 f i libcpmt:xthrow.obj
 0001:00040550       ??0out_of_range@std@@QEAA@AEBV01@@Z 0000000180041550 f i libcpmt:xthrow.obj
 0001:00040590       ??0out_of_range@std@@QEAA@PEBD@Z 0000000180041590 f i libcpmt:xthrow.obj
 0001:000405dc       ?__scrt_throw_std_bad_alloc@@YAXXZ 00000001800415dc f   LIBCMT:throw_bad_alloc.obj
 0001:000405dc       ?_Xbad_alloc@std@@YAXXZ    00000001800415dc f   libcpmt:xthrow.obj
 0001:000405fc       ?_Xbad_function_call@std@@YAXXZ 00000001800415fc f   libcpmt:xthrow.obj
 0001:0004061c       ?_Xlength_error@std@@YAXPEBD@Z 000000018004161c f   libcpmt:xthrow.obj
 0001:00040640       ?_Xout_of_range@std@@YAXPEBD@Z 0000000180041640 f   libcpmt:xthrow.obj
 0001:00040664       ?what@bad_function_call@std@@UEBAPEBDXZ 0000000180041664 f i libcpmt:xthrow.obj
 0001:0004066c       ?_Syserror_map@std@@YAPEBDH@Z 000000018004166c f   libcpmt:syserror.obj
 0001:00040694       ?create_stl_critical_section@details@Concurrency@@YAXPEAVstl_critical_section_interface@12@@Z 0000000180041694 f i libcpmt:mutex.obj
 0001:00040730       ?destroy@stl_critical_section_concrt@details@Concurrency@@UEAAXXZ 0000000180041730 f i libcpmt:mutex.obj
 0001:0004073c       ?destroy@stl_critical_section_vista@details@Concurrency@@UEAAXXZ 000000018004173c f i libcpmt:mutex.obj
 0001:00040748       ?lock@stl_critical_section_concrt@details@Concurrency@@UEAAXXZ 0000000180041748 f i libcpmt:mutex.obj
 0001:00040754       ?lock@stl_critical_section_vista@details@Concurrency@@UEAAXXZ 0000000180041754 f i libcpmt:mutex.obj
 0001:00040760       ?lock@stl_critical_section_win7@details@Concurrency@@UEAAXXZ 0000000180041760 f i libcpmt:mutex.obj
 0001:00040900       ?try_lock@stl_critical_section_concrt@details@Concurrency@@UEAA_NXZ 0000000180041900 f i libcpmt:mutex.obj
 0001:0004090c       ?try_lock_for@stl_critical_section_vista@details@Concurrency@@UEAA_NI@Z 000000018004190c f i libcpmt:mutex.obj
 0001:0004090c       ?try_lock@stl_critical_section_vista@details@Concurrency@@UEAA_NXZ 000000018004190c f i libcpmt:mutex.obj
 0001:00040924       ?try_lock_for@stl_critical_section_concrt@details@Concurrency@@UEAA_NI@Z 0000000180041924 f i libcpmt:mutex.obj
 0001:00040930       ?try_lock@stl_critical_section_win7@details@Concurrency@@UEAA_NXZ 0000000180041930 f i libcpmt:mutex.obj
 0001:00040930       ?try_lock_for@stl_critical_section_win7@details@Concurrency@@UEAA_NI@Z 0000000180041930 f i libcpmt:mutex.obj
 0001:00040948       ?unlock@stl_critical_section_concrt@details@Concurrency@@UEAAXXZ 0000000180041948 f i libcpmt:mutex.obj
 0001:00040954       ?unlock@stl_critical_section_vista@details@Concurrency@@UEAAXXZ 0000000180041954 f i libcpmt:mutex.obj
 0001:00040960       ?unlock@stl_critical_section_win7@details@Concurrency@@UEAAXXZ 0000000180041960 f i libcpmt:mutex.obj
 0001:0004096c       _Mtx_clear_owner           000000018004196c f   libcpmt:mutex.obj
 0001:00040974       _Mtx_destroy               0000000180041974 f   libcpmt:mutex.obj
 0001:000409bc       _Mtx_destroy_in_situ       00000001800419bc f   libcpmt:mutex.obj
 0001:000409ec       _Mtx_init                  00000001800419ec f   libcpmt:mutex.obj
 0001:00040a40       _Mtx_init_in_situ          0000000180041a40 f   libcpmt:mutex.obj
 0001:00040a70       _Mtx_lock                  0000000180041a70 f   libcpmt:mutex.obj
 0001:00040a78       _Mtx_reset_owner           0000000180041a78 f   libcpmt:mutex.obj
 0001:00040a94       _Mtx_unlock                0000000180041a94 f   libcpmt:mutex.obj
 0001:00040ad0       _Cnd_do_broadcast_at_thread_exit 0000000180041ad0 f   libcpmt:xnotify.obj
 0001:00040ba0       _Lock_shared_ptr_spin_lock 0000000180041ba0 f   libcpmt:atomic.obj
 0001:00040bb0       _Unlock_shared_ptr_spin_lock 0000000180041bb0 f   libcpmt:atomic.obj
 0001:00040bbc       ??0_Init_locks@std@@QEAA@XZ 0000000180041bbc f   libcpmt:xlock.obj
 0001:00040c08       ??0_Lockit@std@@QEAA@H@Z   0000000180041c08 f   libcpmt:xlock.obj
 0001:00040c44       ??1_Init_locks@std@@QEAA@XZ 0000000180041c44 f   libcpmt:xlock.obj
 0001:00040c88       ??1_Lockit@std@@QEAA@XZ    0000000180041c88 f   libcpmt:xlock.obj
 0001:00040cbc       _Lock_at_thread_exit_mutex 0000000180041cbc f   libcpmt:xlock.obj
 0001:00040cc8       _Unlock_at_thread_exit_mutex 0000000180041cc8 f   libcpmt:xlock.obj
 0001:00040cd4       ??4?$_Yarn@D@std@@QEAAAEAV01@PEBD@Z 0000000180041cd4 f i libcpmt:locale0.obj
 0001:00040d4c       ??_G_Fac_node@std@@QEAAPEAXI@Z 0000000180041d4c f i libcpmt:locale0.obj
 0001:00040dd8       ??_G_Locimp@locale@std@@MEAAPEAXI@Z 0000000180041dd8 f i libcpmt:locale0.obj
 0001:00040dd8       ??_E_Locimp@locale@std@@MEAAPEAXI@Z 0000000180041dd8 f i libcpmt:locale0.obj
 0001:00040e44       ?_Facet_Register@std@@YAXPEAV_Facet_base@1@@Z 0000000180041e44 f   libcpmt:locale0.obj
 0001:00040e7c       ?_Getgloballocale@locale@std@@CAPEAV_Locimp@12@XZ 0000000180041e7c f   libcpmt:locale0.obj
 0001:00040e84       ?_Init@locale@std@@CAPEAV_Locimp@12@_N@Z 0000000180041e84 f   libcpmt:locale0.obj
 0001:00040f5c       ?_Locimp_dtor@_Locimp@locale@std@@CAXPEAV123@@Z 0000000180041f5c f   libcpmt:locale0.obj
 0001:00041004       ?_Locinfo_ctor@_Locinfo@std@@SAXPEAV12@PEBD@Z 0000000180042004 f   libcpmt:locale0.obj
 0001:00041070       ?_Locinfo_dtor@_Locinfo@std@@SAXPEAV12@@Z 0000000180042070 f   libcpmt:locale0.obj
 0001:0004108c       ?_New_Locimp@_Locimp@locale@std@@CAPEAV123@_N@Z 000000018004208c f   libcpmt:locale0.obj
 0001:000410fc       _Deletegloballocale        00000001800420fc f   libcpmt:locale0.obj
 0001:00041184       ?_Ios_base_dtor@ios_base@std@@CAXPEAV12@@Z 0000000180042184 f   libcpmt:ios.obj
 0001:000411c8       ?_Tidy@ios_base@std@@AEAAXXZ 00000001800421c8 f i libcpmt:ios.obj
 0001:00041258       _Getctype                  0000000180042258 f   libcpmt:_tolower.obj
 0001:00041320       _Tolower                   0000000180042320 f   libcpmt:_tolower.obj
 0001:00041450       _Getcvt                    0000000180042450 f   libcpmt:xwctomb.obj
 0001:000414dc       _Toupper                   00000001800424dc f   libcpmt:_toupper.obj
 0001:00041aec       __crtAcquireSRWLockExclusive 0000000180042aec f   libcpmt:winapisupp.obj
 0001:00041b24       __crtCloseThreadpoolTimer  0000000180042b24 f   libcpmt:winapisupp.obj
 0001:00041b5c       __crtCloseThreadpoolWait   0000000180042b5c f   libcpmt:winapisupp.obj
 0001:00041b94       __crtCreateEventExW        0000000180042b94 f   libcpmt:winapisupp.obj
 0001:00041c10       __crtCreateSemaphoreExW    0000000180042c10 f   libcpmt:winapisupp.obj
 0001:00041cb0       __crtCreateThreadpoolTimer 0000000180042cb0 f   libcpmt:winapisupp.obj
 0001:00041d0c       __crtCreateThreadpoolWait  0000000180042d0c f   libcpmt:winapisupp.obj
 0001:00041d68       __crtFlushProcessWriteBuffers 0000000180042d68 f   libcpmt:winapisupp.obj
 0001:00041d90       __crtFreeLibraryWhenCallbackReturns 0000000180042d90 f   libcpmt:winapisupp.obj
 0001:00041dd8       __crtGetCurrentProcessorNumber 0000000180042dd8 f   libcpmt:winapisupp.obj
 0001:00041e0c       __crtGetSystemTimePreciseAsFileTime 0000000180042e0c f   libcpmt:winapisupp.obj
 0001:00041e4c       __crtGetTickCount64        0000000180042e4c f   libcpmt:winapisupp.obj
 0001:00041e84       __crtInitOnceExecuteOnce   0000000180042e84 f   libcpmt:winapisupp.obj
 0001:00041f60       __crtInitializeConditionVariable 0000000180042f60 f   libcpmt:winapisupp.obj
 0001:00041f98       __crtInitializeCriticalSectionEx 0000000180042f98 f   libcpmt:winapisupp.obj
 0001:00041ff8       __crtInitializeSRWLock     0000000180042ff8 f   libcpmt:winapisupp.obj
 0001:00042030       __crtReleaseSRWLockExclusive 0000000180043030 f   libcpmt:winapisupp.obj
 0001:00042068       __crtSetThreadpoolTimer    0000000180043068 f   libcpmt:winapisupp.obj
 0001:000420d0       __crtSetThreadpoolWait     00000001800430d0 f   libcpmt:winapisupp.obj
 0001:00042128       __crtSleepConditionVariableCS 0000000180043128 f   libcpmt:winapisupp.obj
 0001:00042180       __crtSleepConditionVariableSRW 0000000180043180 f   libcpmt:winapisupp.obj
 0001:000421e8       __crtTryAcquireSRWLockExclusive 00000001800431e8 f   libcpmt:winapisupp.obj
 0001:00042220       __crtWaitForThreadpoolTimerCallbacks 0000000180043220 f   libcpmt:winapisupp.obj
 0001:00042264       __crtWakeAllConditionVariable 0000000180043264 f   libcpmt:winapisupp.obj
 0001:0004229c       __crtWakeConditionVariable 000000018004329c f   libcpmt:winapisupp.obj
 0001:000422d4       _Mtxinit                   00000001800432d4 f   libcpmt:xmtx.obj
 0001:000422e4       ?_Atexit@@YAXP6AXXZ@Z      00000001800432e4 f   libcpmt:iosptrs.obj
 0001:00042324       ??0bad_cast@std@@QEAA@AEBV01@@Z 0000000180043324 f i libcpmt:locale.obj
 0001:00042364       __crtLCMapStringA          0000000180043364 f   libcpmt:StlLCMapStringA.obj
 0001:00042618       GetTableIndexFromLocaleName 0000000180043618 f   libcpmt:winapinls.obj
 0001:000426a8       __crtDownlevelLocaleNameToLCID 00000001800436a8 f   libcpmt:winapinls.obj
 0001:000426dc       __crtLCMapStringEx         00000001800436dc f   libcpmt:winapinls.obj
 0001:00042798       __wcsnicmp_ascii           0000000180043798 f   libcpmt:winapinls.obj
 0001:00042810       __security_check_cookie    0000000180043810 f   LIBCMT:_amdsecgs_.obj
 0001:00042834       ??_Gtype_info@@UEAAPEAXI@Z 0000000180043834 f i LIBCMT:std_type_info_static.obj
 0001:00042834       ??_Etype_info@@UEAAPEAXI@Z 0000000180043834 f i LIBCMT:std_type_info_static.obj
 0001:000429d4       _Init_thread_abort         00000001800439d4 f   LIBCMT:thread_safe_statics.obj
 0001:00042a04       _Init_thread_footer        0000000180043a04 f   LIBCMT:thread_safe_statics.obj
 0001:00042a64       _Init_thread_header        0000000180043a64 f   LIBCMT:thread_safe_statics.obj
 0001:00042acc       _Init_thread_notify        0000000180043acc f   LIBCMT:thread_safe_statics.obj
 0001:00042b28       _Init_thread_wait          0000000180043b28 f   LIBCMT:thread_safe_statics.obj
 0001:00042bb4       ??2@YAPEAX_K@Z             0000000180043bb4 f   LIBCMT:new_scalar.obj
 0001:00042bf0       __scrt_acquire_startup_lock 0000000180043bf0 f   LIBCMT:utility.obj
 0001:00042c2c       __scrt_dllmain_after_initialize_c 0000000180043c2c f   LIBCMT:utility.obj
 0001:00042c60       __scrt_dllmain_before_initialize_c 0000000180043c60 f   LIBCMT:utility.obj
 0001:00042c78       __scrt_dllmain_crt_thread_attach 0000000180043c78 f   LIBCMT:utility.obj
 0001:00042ca0       __scrt_dllmain_crt_thread_detach 0000000180043ca0 f   LIBCMT:utility.obj
 0001:00042cb8       __scrt_dllmain_exception_filter 0000000180043cb8 f   LIBCMT:utility.obj
 0001:00042d1c       __scrt_dllmain_uninitialize_c 0000000180043d1c f   LIBCMT:utility.obj
 0001:00042d4c       __scrt_dllmain_uninitialize_critical 0000000180043d4c f   LIBCMT:utility.obj
 0001:00042d60       __scrt_initialize_crt      0000000180043d60 f   LIBCMT:utility.obj
 0001:00042dac       __scrt_initialize_onexit_tables 0000000180043dac f   LIBCMT:utility.obj
 0001:00042e8c       __scrt_is_nonwritable_in_current_image 0000000180043e8c f   LIBCMT:utility.obj
 0001:00042f28       __scrt_release_startup_lock 0000000180043f28 f   LIBCMT:utility.obj
 0001:00042f4c       __scrt_uninitialize_crt    0000000180043f4c f   LIBCMT:utility.obj
 0001:00042f78       _onexit                    0000000180043f78 f   LIBCMT:utility.obj
 0001:00042fc8       atexit                     0000000180043fc8 f   LIBCMT:utility.obj
 0001:00042fe0       ??3@YAXPEAX_K@Z            0000000180043fe0 f   LIBCMT:delete_scalar_size.obj
 0001:00042fe0       ??_V@YAXPEAX@Z             0000000180043fe0 f   LIBCMT:delete_array.obj
 0001:0004332c       _DllMainCRTStartup         000000018004432c f   LIBCMT:dll_dllmain.obj
 0001:0004336c       ??_M@YAXPEAX_K1P6AX0@Z@Z   000000018004436c f   LIBCMT:ehvecdtr.obj
 0001:000433d8       ?__ArrayUnwind@@YAXPEAX_K1P6AX0@Z@Z 00000001800443d8 f   LIBCMT:ehvecdtr.obj
 0001:0004343c       ??_V@YAXPEAX_K@Z           000000018004443c f   LIBCMT:delete_array_size.obj
 0001:00043444       __GSHandlerCheck           0000000180044444 f   LIBCMT:_gshandler_.obj
 0001:00043464       __GSHandlerCheckCommon     0000000180044464 f   LIBCMT:_gshandler_.obj
 0001:000434c0       _guard_check_icall         00000001800444c0 f i LIBCMT:checkcfg.obj
 0001:000434c8       __GSHandlerCheck_EH        00000001800444c8 f   LIBCMT:gshandlereh.obj
 0001:00043560       __chkstk                   0000000180044560 f   LIBCMT:_chkstk_.obj
 0001:00043560       _alloca_probe              0000000180044560 f   LIBCMT:_chkstk_.obj
 0001:000435b4       __raise_securityfailure    00000001800445b4 f   LIBCMT:gs_report.obj
 0001:000435e8       __report_gsfailure         00000001800445e8 f   LIBCMT:gs_report.obj
 0001:000436bc       __report_rangecheckfailure 00000001800446bc f   LIBCMT:gs_report.obj
 0001:000436d0       __report_securityfailure   00000001800446d0 f   LIBCMT:gs_report.obj
 0001:00043850       ??3@YAXPEAX@Z              0000000180044850 f   LIBCMT:delete_scalar.obj
 0001:00043858       __crt_debugger_hook        0000000180044858 f   LIBCMT:utility_desktop.obj
 0001:00043860       __scrt_fastfail            0000000180044860 f   LIBCMT:utility_desktop.obj
 0001:000439ac       ??0bad_array_new_length@std@@QEAA@AEBV01@@Z 00000001800449ac f i LIBCMT:throw_bad_alloc.obj
 0001:000439ec       ??0bad_array_new_length@std@@QEAA@XZ 00000001800449ec f i LIBCMT:throw_bad_alloc.obj
 0001:00043a0c       ?__scrt_throw_std_bad_array_new_length@@YAXXZ 0000000180044a0c f   LIBCMT:throw_bad_alloc.obj
 0001:00043a2c       __isa_available_init       0000000180044a2c f   LIBCMT:_cpu_disp_.obj
 0001:00043be8       __scrt_is_ucrt_dll_in_use  0000000180044be8 f   LIBCMT:ucrt_detection.obj
 0001:00043bf4       __security_init_cookie     0000000180044bf4 f   LIBCMT:gs_support.obj
 0001:00043ca4       ?__scrt_initialize_type_info@@YAXXZ 0000000180044ca4 f   LIBCMT:tncleanup.obj
 0001:00043cb4       ?__scrt_uninitialize_type_info@@YAXXZ 0000000180044cb4 f   LIBCMT:tncleanup.obj
 0001:00043cc0       __local_stdio_scanf_options 0000000180044cc0 f i LIBCMT:default_local_stdio_options.obj
 0001:00043cc8       __scrt_initialize_default_local_stdio_options 0000000180044cc8 f   LIBCMT:default_local_stdio_options.obj
 0001:00043ce4       __scrt_get_dyn_tls_init_callback 0000000180044ce4 f   LIBCMT:dyn_tls_init.obj
 0001:00043cec       _RTC_Initialize            0000000180044cec f   LIBCMT:_initsect_.obj
 0001:00043d38       _RTC_Terminate             0000000180044d38 f   LIBCMT:_initsect_.obj
 0001:00043d90       ??0MultiWaitBlock@details@Concurrency@@QEAA@_K_N1@Z 0000000180044d90 f i libconcrt:event.obj
 0001:00043e28       ??0MultiWaitBlockHolder@details@Concurrency@@QEAA@_N_K00@Z 0000000180044e28 f   libconcrt:event.obj
 0001:00043f1c       ??0_Condition_variable@details@Concurrency@@QEAA@XZ 0000000180044f1c f   libconcrt:event.obj
 0001:00043f40       ??0event@Concurrency@@QEAA@XZ 0000000180044f40 f   libconcrt:event.obj
 0001:00043f68       ??1?$_MallocaArrayHolder@PEAVContext@Concurrency@@@details@Concurrency@@UEAA@XZ 0000000180044f68 f i libconcrt:event.obj
 0001:00043f98       ??1MultiWaitBlockHolder@details@Concurrency@@QEAA@XZ 0000000180044f98 f   libconcrt:event.obj
 0001:00043fd0       ??1_Condition_variable@details@Concurrency@@QEAA@XZ 0000000180044fd0 f   libconcrt:event.obj
 0001:00044010       ??1event@Concurrency@@QEAA@XZ 0000000180045010 f   libconcrt:event.obj
 0001:000440dc       ??_G?$_MallocaArrayHolder@PEAVContext@Concurrency@@@details@Concurrency@@UEAAPEAXI@Z 00000001800450dc f i libconcrt:event.obj
 0001:000440dc       ??_E?$_MallocaArrayHolder@PEAVContext@Concurrency@@@details@Concurrency@@UEAAPEAXI@Z 00000001800450dc f i libconcrt:event.obj
 0001:00044130       ?Destroy@TimedSingleWaitBlock@details@Concurrency@@UEAAXXZ 0000000180045130 f   libconcrt:event.obj
 0001:00044154       ?Destroy@WaitAllBlock@details@Concurrency@@UEAAXXZ 0000000180045154 f   libconcrt:event.obj
 0001:0004415c       ?DispatchEventTimer@MultiWaitBlock@details@Concurrency@@SAXPEAU_TP_CALLBACK_INSTANCE@@PEAXPEAU_TP_TIMER@@@Z 000000018004515c f   libconcrt:event.obj
 0001:000441ec       ?DispatchEventTimer@TimedSingleWaitBlock@details@Concurrency@@SAXPEAU_TP_CALLBACK_INSTANCE@@PEAXPEAU_TP_TIMER@@@Z 00000001800451ec f   libconcrt:event.obj
 0001:00044248       ?DispatchEventTimerXP@MultiWaitBlock@details@Concurrency@@SAXPEAXE@Z 0000000180045248 f   libconcrt:event.obj
 0001:000442bc       ?DispatchEventTimerXP@TimedSingleWaitBlock@details@Concurrency@@SAXPEAXE@Z 00000001800452bc f   libconcrt:event.obj
 0001:000442f0       ?GetSharedTimerQueue@details@Concurrency@@YAPEAXXZ 00000001800452f0 f   libconcrt:event.obj
 0001:000443a4       ?NotifyCompletedNode@MultiWaitBlock@details@Concurrency@@QEAAXXZ 00000001800453a4 f   libconcrt:event.obj
 0001:000443cc       ?Reset@WaitAllBlock@details@Concurrency@@UEAA_NXZ 00000001800453cc f   libconcrt:event.obj
 0001:0004440c       ?Satisfy@SingleWaitBlock@details@Concurrency@@UEAA_NPEAPEAVContext@3@PEAVEventWaitNode@23@@Z 000000018004540c f   libconcrt:event.obj
 0001:00044474       ?Satisfy@TimedSingleWaitBlock@details@Concurrency@@UEAA_NPEAPEAVContext@3@PEAVEventWaitNode@23@@Z 0000000180045474 f   libconcrt:event.obj
 0001:0004452c       ?Satisfy@WaitAllBlock@details@Concurrency@@UEAA_NPEAPEAVContext@3@PEAVEventWaitNode@23@@Z 000000018004552c f   libconcrt:event.obj
 0001:000445a8       ?Satisfy@WaitAnyBlock@details@Concurrency@@UEAA_NPEAPEAVContext@3@PEAVEventWaitNode@23@@Z 00000001800455a8 f   libconcrt:event.obj
 0001:00044620       ?Set@StructuredEvent@details@Concurrency@@QEAAXXZ 0000000180045620 f   libconcrt:event.obj
 0001:0004468c       ?SingleSatisfy@MultiWaitBlock@details@Concurrency@@MEAAXPEAPEAVContext@3@PEAVEventWaitNode@23@@Z 000000018004568c f   libconcrt:event.obj
 0001:00044778       ?Sweep@details@Concurrency@@YAPEAVEventWaitNode@12@PEAV312@_N@Z 0000000180045778 f   libconcrt:event.obj
 0001:000447fc       ?SweepResetNode@WaitAllBlock@details@Concurrency@@UEAA_NXZ 00000001800457fc f   libconcrt:event.obj
 0001:0004484c       ?SweepResetNode@WaitAnyBlock@details@Concurrency@@UEAA_NXZ 000000018004584c f   libconcrt:event.obj
 0001:0004484c       ?Reset@WaitAnyBlock@details@Concurrency@@UEAA_NXZ 000000018004584c f   libconcrt:event.obj
 0001:0004484c       ?SweepResetNode@SingleWaitBlock@details@Concurrency@@UEAA_NXZ 000000018004584c f   libconcrt:event.obj
 0001:0004484c       ?Destroy@SingleWaitBlock@details@Concurrency@@UEAAXXZ 000000018004584c f   libconcrt:event.obj
 0001:0004484c       ?Reset@SingleWaitBlock@details@Concurrency@@UEAA_NXZ 000000018004584c f   libconcrt:event.obj
 0001:00044850       ?SweepWaitNode@TimedSingleWaitBlock@details@Concurrency@@UEAA_NXZ 0000000180045850 f   libconcrt:event.obj
 0001:0004488c       ?SweepWaitNode@WaitAllBlock@details@Concurrency@@UEAA_NXZ 000000018004588c f   libconcrt:event.obj
 0001:000448e4       ?SweepWaitNode@WaitAnyBlock@details@Concurrency@@UEAA_NXZ 00000001800458e4 f   libconcrt:event.obj
 0001:00044934       ?_SpinOnce@?$_SpinWait@$00@details@Concurrency@@QEAA_NXZ 0000000180045934 f i libconcrt:event.obj
 0001:000449f4       ?_SpinOnce@?$_SpinWait@$0A@@details@Concurrency@@QEAA_NXZ 00000001800459f4 f i libconcrt:event.obj
 0001:00044aa4       ?createTimer@TimedSingleWaitBlock@details@Concurrency@@QEAA_NI@Z 0000000180045aa4 f i libconcrt:event.obj
 0001:00044b30       ?notify_all@_Condition_variable@details@Concurrency@@QEAAXXZ 0000000180045b30 f   libconcrt:event.obj
 0001:00044bf4       ?notify_one@_Condition_variable@details@Concurrency@@QEAAXXZ 0000000180045bf4 f   libconcrt:event.obj
 0001:00044cf4       ?set@event@Concurrency@@QEAAXXZ 0000000180045cf4 f   libconcrt:event.obj
 0001:00044efc       ?wait@_Condition_variable@details@Concurrency@@QEAAXAEAVcritical_section@3@@Z 0000000180045efc f   libconcrt:event.obj
 0001:00044fc8       ?wait@event@Concurrency@@QEAA_KI@Z 0000000180045fc8 f   libconcrt:event.obj
 0001:000450f4       ?wait_for@_Condition_variable@details@Concurrency@@QEAA_NAEAVcritical_section@3@I@Z 00000001800460f4 f   libconcrt:event.obj
 0001:00045240       ?wait_for_multiple@event@Concurrency@@SA_KPEAPEAV12@_K_NI@Z 0000000180046240 f   libconcrt:event.obj
 0001:000455f0       ??0LockQueueNode@details@Concurrency@@QEAA@I@Z 00000001800465f0 f i libconcrt:rtlocks.obj
 0001:000456f8       ??0_ReentrantBlockingLock@details@Concurrency@@QEAA@XZ 00000001800466f8 f   libconcrt:rtlocks.obj
 0001:000456f8       ??0_NonReentrantBlockingLock@details@Concurrency@@QEAA@XZ 00000001800466f8 f   libconcrt:rtlocks.obj
 0001:00045718       ??0_ReaderWriterLock@details@Concurrency@@QEAA@XZ 0000000180046718 f   libconcrt:rtlocks.obj
 0001:0004572c       ??0critical_section@Concurrency@@QEAA@XZ 000000018004672c f   libconcrt:rtlocks.obj
 0001:00045754       ??0improper_lock@Concurrency@@QEAA@AEBV01@@Z 0000000180046754 f i libconcrt:rtlocks.obj
 0001:00045794       ??0scoped_lock@critical_section@Concurrency@@QEAA@AEAV12@@Z 0000000180046794 f   libconcrt:rtlocks.obj
 0001:000457e4       ??1_NonReentrantBlockingLock@details@Concurrency@@QEAA@XZ 00000001800467e4 f   libconcrt:rtlocks.obj
 0001:000457e4       _Mtxdst                    00000001800467e4 f   libcpmt:xmtx.obj
 0001:000457e4       ??1_ReentrantBlockingLock@details@Concurrency@@QEAA@XZ 00000001800467e4 f   libconcrt:rtlocks.obj
 0001:000457ec       ??1scoped_lock@critical_section@Concurrency@@QEAA@XZ 00000001800467ec f   libconcrt:rtlocks.obj
 0001:00045808       ?Block@LockQueueNode@details@Concurrency@@QEAAXI@Z 0000000180046808 f i libconcrt:rtlocks.obj
 0001:000458b8       ?DispatchNodeTimeoutTimer@LockQueueNode@details@Concurrency@@SAXPEAU_TP_CALLBACK_INSTANCE@@PEAXPEAU_TP_TIMER@@@Z 00000001800468b8 f i libconcrt:rtlocks.obj
 0001:00045940       ?DispatchNodeTimeoutTimerXP@LockQueueNode@details@Concurrency@@SAXPEAXE@Z 0000000180046940 f i libconcrt:rtlocks.obj
 0001:000459b8       ?UpdateQueuePosition@LockQueueNode@details@Concurrency@@QEAAXPEAV123@@Z 00000001800469b8 f i libconcrt:rtlocks.obj
 0001:00045a40       ?_Acquire@_NonReentrantBlockingLock@details@Concurrency@@QEAAXXZ 0000000180046a40 f   libconcrt:rtlocks.obj
 0001:00045a40       ?_Acquire@_ReentrantBlockingLock@details@Concurrency@@QEAAXXZ 0000000180046a40 f   libconcrt:rtlocks.obj
 0001:00045a40       _Mtxlock                   0000000180046a40 f   libcpmt:xmtx.obj
 0001:00045a48       ?_AcquireRead@_ReaderWriterLock@details@Concurrency@@QEAAXXZ 0000000180046a48 f   libconcrt:rtlocks.obj
 0001:00045a88       ?_AcquireWrite@_ReaderWriterLock@details@Concurrency@@QEAAXXZ 0000000180046a88 f   libconcrt:rtlocks.obj
 0001:00045ac4       ?_Acquire_lock@critical_section@Concurrency@@QEAA_NPEAX_N@Z 0000000180046ac4 f   libconcrt:rtlocks.obj
 0001:00045bd8       ?_FlushWriteOwners@_ReaderWriterLock@details@Concurrency@@QEAAXXZ 0000000180046bd8 f   libconcrt:rtlocks.obj
 0001:00045bf8       ?_Flush_current_owner@critical_section@Concurrency@@QEAAXXZ 0000000180046bf8 f   libconcrt:rtlocks.obj
 0001:00045c20       ?_Initialize@_SpinCount@details@Concurrency@@SAXXZ 0000000180046c20 f   libconcrt:rtlocks.obj
 0001:00045c44       ?_Release@_ReentrantBlockingLock@details@Concurrency@@QEAAXXZ 0000000180046c44 f   libconcrt:rtlocks.obj
 0001:00045c44       ?_Release@_NonReentrantBlockingLock@details@Concurrency@@QEAAXXZ 0000000180046c44 f   libconcrt:rtlocks.obj
 0001:00045c44       _Mtxunlock                 0000000180046c44 f   libcpmt:xmtx.obj
 0001:00045c4c       ?_ReleaseRead@_ReaderWriterLock@details@Concurrency@@QEAAXXZ 0000000180046c4c f   libconcrt:rtlocks.obj
 0001:00045c50       ?_ReleaseWrite@_ReaderWriterLock@details@Concurrency@@QEAAXXZ 0000000180046c50 f   libconcrt:rtlocks.obj
 0001:00045c5c       ?_Switch_to_active@critical_section@Concurrency@@AEAAXPEAX@Z 0000000180046c5c f   libconcrt:rtlocks.obj
 0001:00045ce4       ?_TryAcquireWrite@_ReaderWriterLock@details@Concurrency@@QEAA_NXZ 0000000180046ce4 f   libconcrt:rtlocks.obj
 0001:00045cfc       ?_Value@_SpinCount@details@Concurrency@@SAIXZ 0000000180046cfc f   libconcrt:rtlocks.obj
 0001:00045d04       ?_WaitEquals@_ReaderWriterLock@details@Concurrency@@CAXAEDJJJ@Z 0000000180046d04 f   libconcrt:rtlocks.obj
 0001:00045d78       ?lock@critical_section@Concurrency@@QEAAXXZ 0000000180046d78 f   libconcrt:rtlocks.obj
 0001:00045db4       ?try_lock@critical_section@Concurrency@@QEAA_NXZ 0000000180046db4 f   libconcrt:rtlocks.obj
 0001:00045e14       ?try_lock_for@critical_section@Concurrency@@QEAA_NI@Z 0000000180046e14 f   libconcrt:rtlocks.obj
 0001:00045ed4       ?unlock@critical_section@Concurrency@@QEAAXXZ 0000000180046ed4 f   libconcrt:rtlocks.obj
 0001:00046000       ??0scheduler_resource_allocation_error@Concurrency@@QEAA@AEBV01@@Z 0000000180047000 f i libconcrt:Platform.obj
 0001:00046050       ??1DefaultWaiterPool@platform@details@Concurrency@@QEAA@XZ 0000000180047050 f i libconcrt:Platform.obj
 0001:000460b8       ??_Escheduler_worker_creation_error@Concurrency@@UEAAPEAXI@Z 00000001800470b8 f i libconcrt:Exceptions.obj
 0001:000460b8       ??_Escheduler_resource_allocation_error@Concurrency@@UEAAPEAXI@Z 00000001800470b8 f i libconcrt:Platform.obj
 0001:000460b8       ??_Gscheduler_resource_allocation_error@Concurrency@@UEAAPEAXI@Z 00000001800470b8 f i libconcrt:Platform.obj
 0001:000460b8       ??_Gscheduler_worker_creation_error@Concurrency@@UEAAPEAXI@Z 00000001800470b8 f i libconcrt:Exceptions.obj
 0001:000460fc       ?InitializeSystemFunctionPointers@platform@details@Concurrency@@YAXXZ 00000001800470fc f   libconcrt:Platform.obj
 0001:00046208       ?__ChangeTimerQueueTimer@platform@details@Concurrency@@YAHPEAX0KK@Z 0000000180047208 f   libconcrt:Platform.obj
 0001:00046210       ?__CloseThreadHandle@platform@details@Concurrency@@YAXPEAX@Z 0000000180047210 f   libconcrt:Platform.obj
 0001:00046218       ?__CreateAutoResetEvent@platform@details@Concurrency@@YAPEAX_N@Z 0000000180047218 f   libconcrt:Platform.obj
 0001:0004626c       ?__CreateThread@platform@details@Concurrency@@YAPEAXPEAU_SECURITY_ATTRIBUTES@@_KP6AKPEAX@Z2KPEAK@Z 000000018004726c f   libconcrt:Platform.obj
 0001:00046274       ?__CreateTimerQueueTimer@platform@details@Concurrency@@YAHPEAPEAXPEAXP6AX1E@Z1KKK@Z 0000000180047274 f   libconcrt:Platform.obj
 0001:0004627c       ?__DeleteTimerQueueTimer@platform@details@Concurrency@@YAXPEAX00@Z 000000018004727c f   libconcrt:Platform.obj
 0001:000462dc       ?__GetCurrentProcessorNumberEx@platform@details@Concurrency@@YAXPEAU_PROCESSOR_NUMBER@@@Z 00000001800472dc f   libconcrt:Platform.obj
 0001:00046314       ?__GetLogicalProcessorInformation@platform@details@Concurrency@@YAPEAU_SYSTEM_LOGICAL_PROCESSOR_INFORMATION@@PEAK@Z 0000000180047314 f   libconcrt:Platform.obj
 0001:000463e0       ?__GetLogicalProcessorInformationEx@platform@details@Concurrency@@YAPEAU_SYSTEM_LOGICAL_PROCESSOR_INFORMATION_EX@@W4_LOGICAL_PROCESSOR_RELATIONSHIP@@PEAK@Z 00000001800473e0 f   libconcrt:Platform.obj
 0001:0004652c       ?__GetNumaHighestNodeNumber@platform@details@Concurrency@@YAKXZ 000000018004752c f   libconcrt:Platform.obj
 0001:00046578       ?__GetThreadGroupAffinity@platform@details@Concurrency@@YAHPEAXPEAU_GROUP_AFFINITY@@@Z 0000000180047578 f   libconcrt:Platform.obj
 0001:000465f4       ?__GetThreadPriority@platform@details@Concurrency@@YAHPEAX@Z 00000001800475f4 f   libconcrt:Platform.obj
 0001:000465fc       ?__GetTickCount64@platform@details@Concurrency@@YA_KXZ 00000001800475fc f   libconcrt:Platform.obj
 0001:00046604       ?__InitializeCriticalSectionEx@platform@details@Concurrency@@YAHPEAU_RTL_CRITICAL_SECTION@@K@Z 0000000180047604 f   libconcrt:Platform.obj
 0001:0004660c       ?__RegisterWaitForSingleObject@platform@details@Concurrency@@YAPEAXPEAXP6AX0E@Z0@Z 000000018004760c f   libconcrt:Platform.obj
 0001:00046670       ?__SetThreadGroupAffinity@platform@details@Concurrency@@YAHPEAXPEBU_GROUP_AFFINITY@@@Z 0000000180047670 f   libconcrt:Platform.obj
 0001:000466d4       ?__SetThreadPriority@platform@details@Concurrency@@YAXPEAXH@Z 00000001800476d4 f   libconcrt:Platform.obj
 0001:00046718       ?__SignalObjectAndWait@platform@details@Concurrency@@YAKPEAX0KH@Z 0000000180047718 f   libconcrt:Platform.obj
 0001:00046720       ?__Sleep@platform@details@Concurrency@@YAXK@Z 0000000180047720 f   libconcrt:Platform.obj
 0001:00046728       ?__SwitchToThread@platform@details@Concurrency@@YAXXZ 0000000180047728 f   libconcrt:Platform.obj
 0001:00046730       ?__TlsAlloc@platform@details@Concurrency@@YAKXZ 0000000180047730 f   libconcrt:Platform.obj
 0001:00046774       ?__TlsFree@platform@details@Concurrency@@YAXK@Z 0000000180047774 f   libconcrt:Platform.obj
 0001:0004677c       ?__TlsGetValue@platform@details@Concurrency@@YAPEAXK@Z 000000018004777c f   libconcrt:Platform.obj
 0001:00046784       ?__TlsSetValue@platform@details@Concurrency@@YAXKPEAX@Z 0000000180047784 f   libconcrt:Platform.obj
 0001:000467c8       ?__UnregisterWait@platform@details@Concurrency@@YAXPEAX@Z 00000001800477c8 f   libconcrt:Platform.obj
 0001:000467d0       ?__WaitForThread@platform@details@Concurrency@@YAKPEAXK@Z 00000001800477d0 f   libconcrt:Platform.obj
 0001:000467dc       _concrt_static_cleanup     00000001800477dc f   libconcrt:utils.obj
 0001:000467f4       ?DecodePointer@Security@details@Concurrency@@SAPEAXPEAX@Z 00000001800477f4 f   libconcrt:utils.obj
 0001:000467f4       ?EncodePointer@Security@details@Concurrency@@SAPEAXPEAX@Z 00000001800477f4 f   libconcrt:utils.obj
 0001:00046800       ?DeleteAsyncTimerAndUnloadLibrary@details@Concurrency@@YAXPEAU_TP_TIMER@@@Z 0000000180047800 f   libconcrt:utils.obj
 0001:00046848       ?FreeLibraryAndDestroyThread@details@Concurrency@@YAXK@Z 0000000180047848 f   libconcrt:utils.obj
 0001:00046880       ?InitializeCookie@Security@details@Concurrency@@SA_KXZ 0000000180047880 f   libconcrt:utils.obj
 0001:000468e4       ?LoadLibraryAndCreateThread@details@Concurrency@@YAPEAXPEAU_SECURITY_ATTRIBUTES@@_KP6AKPEAX@Z2KPEAK@Z 00000001800478e4 f   libconcrt:utils.obj
 0001:00046934       ?ReferenceLoadLibrary@details@Concurrency@@YAXXZ 0000000180047934 f   libconcrt:utils.obj
 0001:000469dc       ?RegisterAsyncTimerAndLoadLibrary@details@Concurrency@@YAPEAU_TP_TIMER@@KP6AXPEAU_TP_CALLBACK_INSTANCE@@PEAXPEAU3@@Z1_N@Z 00000001800479dc f   libconcrt:utils.obj
 0001:00046a50       ?RegisterAsyncWaitAndLoadLibrary@details@Concurrency@@YAPEAU_TP_WAIT@@PEAXP6AXPEAU_TP_CALLBACK_INSTANCE@@0PEAU3@K@Z0@Z 0000000180047a50 f   libconcrt:utils.obj
 0001:00046aa4       ?UnRegisterAsyncTimerAndUnloadLibrary@details@Concurrency@@YAXPEAU_TP_CALLBACK_INSTANCE@@PEAU_TP_TIMER@@@Z 0000000180047aa4 f   libconcrt:utils.obj
 0001:00046af0       ?UnRegisterAsyncWaitAndUnloadLibrary@details@Concurrency@@YAXPEAU_TP_CALLBACK_INSTANCE@@PEAU_TP_WAIT@@@Z 0000000180047af0 f   libconcrt:utils.obj
 0001:00046b3c       ?_Acquire@_CriticalNonReentrantLock@details@Concurrency@@QEAAXXZ 0000000180047b3c f   libconcrt:utils.obj
 0001:00046b3c       ?_Acquire@_HyperNonReentrantLock@details@Concurrency@@QEAAXXZ 0000000180047b3c f   libconcrt:utils.obj
 0001:00046b84       ?_Release@_HyperNonReentrantLock@details@Concurrency@@QEAAXXZ 0000000180047b84 f   libconcrt:utils.obj
 0001:00046b84       ?_Release@_CriticalNonReentrantLock@details@Concurrency@@QEAAXXZ 0000000180047b84 f   libconcrt:utils.obj
 0001:00046b90       ?_Sleep0@details@Concurrency@@YAXXZ 0000000180047b90 f   libconcrt:utils.obj
 0001:00046b98       ?_TryAcquire@_CriticalNonReentrantLock@details@Concurrency@@QEAA_NXZ 0000000180047b98 f   libconcrt:utils.obj
 0001:00046bd0       ?_UnderlyingYield@details@Concurrency@@YAXXZ 0000000180047bd0 f   libconcrt:utils.obj
 0001:00046c10       fwprintf                   0000000180047c10 f i libconcrt:utils.obj
 0001:00046c54       ?Block@Context@Concurrency@@SAXXZ 0000000180047c54 f   libconcrt:Context.obj
 0001:00046ca8       ?CurrentContext@Context@Concurrency@@SAPEAV12@XZ 0000000180047ca8 f   libconcrt:Context.obj
 0001:00046cd4       ??0HardwareAffinity@details@Concurrency@@QEAA@PEAX@Z 0000000180047cd4 f   libconcrt:ResourceManager.obj
 0001:00046d00       ??0ResourceManager@details@Concurrency@@AEAA@XZ 0000000180047d00 f   libconcrt:ResourceManager.obj
 0001:00046e20       ??0invalid_operation@Concurrency@@QEAA@AEBV01@@Z 0000000180047e20 f i libconcrt:ResourceManager.obj
 0001:00046e60       ??0invalid_operation@Concurrency@@QEAA@XZ 0000000180047e60 f i libconcrt:ResourceManager.obj
 0001:00046e78       ??0unsupported_os@Concurrency@@QEAA@AEBV01@@Z 0000000180047e78 f i libconcrt:ResourceManager.obj
 0001:00046eb8       ??1GlobalNode@details@Concurrency@@QEAA@XZ 0000000180047eb8 f i libconcrt:ResourceManager.obj
 0001:00046ec8       ??1ResourceManager@details@Concurrency@@AEAA@XZ 0000000180047ec8 f   libconcrt:ResourceManager.obj
 0001:00047000       ??1_Scoped_lock@_NonReentrantBlockingLock@details@Concurrency@@QEAA@XZ 0000000180048000 f i libconcrt:ResourceManager.obj
 0001:0004701c       ??1_Scoped_lock@_NonReentrantLock@details@Concurrency@@QEAA@XZ 000000018004801c f i libconcrt:ResourceManager.obj
 0001:00047028       ?AdjustDynamicAllocation@ResourceManager@details@Concurrency@@AEAAIIII@Z 0000000180048028 f   libconcrt:ResourceManager.obj
 0001:000470fc       ?ApplyAffinityRestrictions@ResourceManager@details@Concurrency@@CAXPEAU_GROUP_AFFINITY@@@Z 00000001800480fc f   libconcrt:ResourceManager.obj
 0001:000471b8       ?ApplyAffinityRestrictions@ResourceManager@details@Concurrency@@CAXPEA_K@Z 00000001800481b8 f   libconcrt:ResourceManager.obj
 0001:000471f0       ?ApplyTo@HardwareAffinity@details@Concurrency@@QEAAXPEAX@Z 00000001800481f0 f   libconcrt:ResourceManager.obj
 0001:00047200       ?CaptureProcessAffinity@ResourceManager@details@Concurrency@@CAXXZ 0000000180048200 f   libconcrt:ResourceManager.obj
 0001:00047388       ?CommitStolenCores@ResourceManager@details@Concurrency@@AEAAXPEAVSchedulerProxy@23@@Z 0000000180048388 f   libconcrt:ResourceManager.obj
 0001:000474ac       ?CreateAllocatedNodeData@ResourceManager@details@Concurrency@@QEAAPEAUSchedulerNode@23@XZ 00000001800484ac f   libconcrt:ResourceManager.obj
 0001:0004760c       ?CreateDynamicRMWorker@ResourceManager@details@Concurrency@@AEAAXXZ 000000018004860c f   libconcrt:ResourceManager.obj
 0001:00047684       ?CreateResourceManager@Concurrency@@YAPEAUIResourceManager@1@XZ 0000000180048684 f   libconcrt:ResourceManager.obj
 0001:0004768c       ?CreateSchedulerProxy@ResourceManager@details@Concurrency@@AEAAPEAVSchedulerProxy@23@PEAUIScheduler@3@@Z 000000018004868c f   libconcrt:ResourceManager.obj
 0001:00047710       ?CreateSingleton@ResourceManager@details@Concurrency@@SAPEAV123@XZ 0000000180048710 f   libconcrt:ResourceManager.obj
 0001:000477fc       ?CurrentSubscriptionLevel@ResourceManager@details@Concurrency@@QEAAIII@Z 00000001800487fc f   libconcrt:ResourceManager.obj
 0001:000478a8       ?DestroyAllocatedNodeData@ResourceManager@details@Concurrency@@QEAAXPEAUSchedulerNode@23@@Z 00000001800488a8 f   libconcrt:ResourceManager.obj
 0001:000478f4       ?DetermineTopology@ResourceManager@details@Concurrency@@AEAAXXZ 00000001800488f4 f   libconcrt:ResourceManager.obj
 0001:00047cf4       ?DiscardExistingSchedulerStatistics@ResourceManager@details@Concurrency@@AEAAXXZ 0000000180048cf4 f   libconcrt:ResourceManager.obj
 0001:00047d78       ?DistributeCoresToSurvivingScheduler@ResourceManager@details@Concurrency@@AEAA_NXZ 0000000180048d78 f   libconcrt:ResourceManager.obj
 0001:00047f84       ?DistributeExclusiveCores@ResourceManager@details@Concurrency@@AEAAXIIIII@Z 0000000180048f84 f   libconcrt:ResourceManager.obj
 0001:00048120       ?DistributeIdleCores@ResourceManager@details@Concurrency@@AEAAXII@Z 0000000180049120 f   libconcrt:ResourceManager.obj
 0001:000482f8       ?DoCoreMigration@ResourceManager@details@Concurrency@@AEAAXXZ 00000001800492f8 f   libconcrt:ResourceManager.obj
 0001:00048578       ?DynamicAssignCores@ResourceManager@details@Concurrency@@AEAAXPEAVSchedulerProxy@23@II_N@Z 0000000180049578 f   libconcrt:ResourceManager.obj
 0001:00048624       ?DynamicMigrateCores@ResourceManager@details@Concurrency@@AEAAXPEAUDynamicAllocationData@23@PEAVSchedulerProxy@23@II@Z 0000000180049624 f   libconcrt:ResourceManager.obj
 0001:000487f8       ?DynamicRMThreadProc@ResourceManager@details@Concurrency@@CAKPEAX@Z 00000001800497f8 f   libconcrt:ResourceManager.obj
 0001:00048810       ?DynamicResourceManager@ResourceManager@details@Concurrency@@AEAAXXZ 0000000180049810 f   libconcrt:ResourceManager.obj
 0001:00048928       ?FindBestFitExclusiveAllocation@ResourceManager@details@Concurrency@@AEAAIAEAI0PEAUDynamicAllocationData@23@II@Z 0000000180049928 f   libconcrt:ResourceManager.obj
 0001:00048cf0       ?FindBestFitIdleAllocation@ResourceManager@details@Concurrency@@AEAAIIPEAUDynamicAllocationData@23@I@Z 0000000180049cf0 f   libconcrt:ResourceManager.obj
 0001:00048e14       ?FindCoreForPartiallyFilledNode@ResourceManager@details@Concurrency@@AEAA_NAEAI0PEAUDynamicAllocationData@23@I@Z 0000000180049e14 f   libconcrt:ResourceManager.obj
 0001:00048f6c       ?FlushStoreBuffers@ResourceManager@details@Concurrency@@QEAAXXZ 0000000180049f6c f   libconcrt:ResourceManager.obj
 0001:00048fa8       ?GetAvailableNodeCount@ResourceManager@details@Concurrency@@UEBAIXZ 0000000180049fa8 f i libconcrt:ResourceManager.obj
 0001:00048fa8       ?GetNumberOfVirtualProcessors@SchedulerBase@details@Concurrency@@UEBAIXZ 0000000180049fa8 f i libconcrt:SchedulerBase.obj
 0001:00048fac       ?GetCoreCount@ResourceManager@details@Concurrency@@SAIXZ 0000000180049fac f   libconcrt:ResourceManager.obj
 0001:00049030       ?GetCurrentNodeAndCore@ResourceManager@details@Concurrency@@QEAAIPEAI@Z 000000018004a030 f   libconcrt:ResourceManager.obj
 0001:00049170       ?GetExecutionResourceCount@TopologyObject@GlobalNode@details@Concurrency@@UEBAIXZ 000000018004a170 f i libconcrt:ResourceManager.obj
 0001:00049178       ?GetFirstExecutionResource@TopologyObject@GlobalNode@details@Concurrency@@UEBAPEAUITopologyExecutionResource@4@XZ 000000018004a178 f i libconcrt:ResourceManager.obj
 0001:00049188       ?GetFirstNode@ResourceManager@details@Concurrency@@UEBAPEAUITopologyNode@3@XZ 000000018004a188 f i libconcrt:ResourceManager.obj
 0001:00049194       ?GetId@TopologyObject@GlobalCore@details@Concurrency@@UEBAIXZ 000000018004a194 f i libconcrt:ResourceManager.obj
 0001:0004919c       ?GetId@TopologyObject@GlobalNode@details@Concurrency@@UEBAIXZ 000000018004a19c f i libconcrt:ResourceManager.obj
 0001:000491a4       ?GetNext@TopologyObject@GlobalCore@details@Concurrency@@UEBAPEAUITopologyExecutionResource@4@XZ 000000018004a1a4 f   libconcrt:ResourceManager.obj
 0001:000491f8       ?GetNext@TopologyObject@GlobalNode@details@Concurrency@@UEBAPEAUITopologyNode@4@XZ 000000018004a1f8 f   libconcrt:ResourceManager.obj
 0001:00049230       ?GetNodeCount@ResourceManager@details@Concurrency@@SAIXZ 000000018004a230 f   libconcrt:ResourceManager.obj
 0001:000492b4       ?GetNumaNode@TopologyObject@GlobalNode@details@Concurrency@@UEBAKXZ 000000018004a2b4 f i libconcrt:ResourceManager.obj
 0001:000492bc       ?GetOSVersion@Concurrency@@YA?AW4OSVersion@IResourceManager@1@XZ 000000018004a2bc f   libconcrt:ResourceManager.obj
 0001:000492c4       ?GetProcessorCount@Concurrency@@YAIXZ 000000018004a2c4 f   libconcrt:ResourceManager.obj
 0001:000492cc       ?GetProcessorNodeCount@Concurrency@@YAIXZ 000000018004a2cc f   libconcrt:ResourceManager.obj
 0001:000492d4       ?GetSchedulerId@Concurrency@@YAIXZ 000000018004a2d4 f   libconcrt:ResourceManager.obj
 0001:000492e4       ?GetTopologyInformation@ResourceManager@details@Concurrency@@CAXW4_LOGICAL_PROCESSOR_RELATIONSHIP@@@Z 000000018004a2e4 f   libconcrt:ResourceManager.obj
 0001:00049318       ?HandleBorrowedCores@ResourceManager@details@Concurrency@@AEAAXPEAVSchedulerProxy@23@PEAUAllocationData@23@@Z 000000018004a318 f   libconcrt:ResourceManager.obj
 0001:00049464       ?HandleSharedCores@ResourceManager@details@Concurrency@@AEAAXPEAVSchedulerProxy@23@PEAUDynamicAllocationData@23@@Z 000000018004a464 f   libconcrt:ResourceManager.obj
 0001:000495b8       ?IncreaseFullyLoadedSchedulerAllocations@ResourceManager@details@Concurrency@@AEAAXXZ 000000018004a5b8 f   libconcrt:ResourceManager.obj
 0001:0004961c       ?Initialize@GlobalNode@details@Concurrency@@QEAAXPEAVResourceManager@23@GG_KII@Z 000000018004a61c f i libconcrt:ResourceManager.obj
 0001:00049804       ?InitializeRMBuffers@ResourceManager@details@Concurrency@@AEAAXXZ 000000018004a804 f   libconcrt:ResourceManager.obj
 0001:00049904       ?InitializeSystemInformation@ResourceManager@details@Concurrency@@CAX_N@Z 000000018004a904 f   libconcrt:ResourceManager.obj
 0001:00049bf4       ?PerformAllocation@ResourceManager@details@Concurrency@@QEAAPEAVExecutionResource@23@PEAVSchedulerProxy@23@_N1@Z 000000018004abf4 f   libconcrt:ResourceManager.obj
 0001:00049df0       ?PopulateCommonAllocationData@ResourceManager@details@Concurrency@@AEAAXIPEAVSchedulerProxy@23@PEAUAllocationData@23@@Z 000000018004adf0 f   libconcrt:ResourceManager.obj
 0001:00049ec4       ?PopulateDynamicAllocationData@ResourceManager@details@Concurrency@@AEAAXXZ 000000018004aec4 f   libconcrt:ResourceManager.obj
 0001:0004a038       ?PreProcessDynamicAllocationData@ResourceManager@details@Concurrency@@AEAAXXZ 000000018004b038 f   libconcrt:ResourceManager.obj
 0001:0004a144       ?PreProcessStaticAllocationData@ResourceManager@details@Concurrency@@AEAAXXZ 000000018004b144 f   libconcrt:ResourceManager.obj
 0001:0004a188       ?PrepareReceiversForCoreTransfer@ResourceManager@details@Concurrency@@AEAAII@Z 000000018004b188 f   libconcrt:ResourceManager.obj
 0001:0004a414       ?RedistributeCoresAmongAll@ResourceManager@details@Concurrency@@AEAAIPEAVSchedulerProxy@23@III@Z 000000018004b414 f   libconcrt:ResourceManager.obj
 0001:0004a7ec       ?Reference@ResourceManager@details@Concurrency@@UEAAIXZ 000000018004b7ec f   libconcrt:ResourceManager.obj
 0001:0004a7fc       ?RegisterScheduler@ResourceManager@details@Concurrency@@UEAAPEAUISchedulerProxy@3@PEAUIScheduler@3@I@Z 000000018004b7fc f   libconcrt:ResourceManager.obj
 0001:0004a860       ?Release@ResourceManager@details@Concurrency@@UEAAIXZ 000000018004b860 f   libconcrt:ResourceManager.obj
 0001:0004a954       ?ReleaseCoresOnExistingSchedulers@ResourceManager@details@Concurrency@@AEAAIPEAVSchedulerProxy@23@II@Z 000000018004b954 f   libconcrt:ResourceManager.obj
 0001:0004a9f8       ?ReleaseSchedulerResources@ResourceManager@details@Concurrency@@AEAA_NPEAVSchedulerProxy@23@0I@Z 000000018004b9f8 f   libconcrt:ResourceManager.obj
 0001:0004ab20       ?RemoveExecutionResource@ResourceManager@details@Concurrency@@QEAAXPEAVExecutionResource@23@@Z 000000018004bb20 f   libconcrt:ResourceManager.obj
 0001:0004abc8       ?RequestInitialVirtualProcessors@ResourceManager@details@Concurrency@@QEAAPEAUIExecutionResource@3@PEAVSchedulerProxy@23@_N@Z 000000018004bbc8 f   libconcrt:ResourceManager.obj
 0001:0004ad68       ?ReserveAtHigherUseCounts@ResourceManager@details@Concurrency@@AEAAIPEAVSchedulerProxy@23@I@Z 000000018004bd68 f   libconcrt:ResourceManager.obj
 0001:0004adcc       ?ReserveCores@ResourceManager@details@Concurrency@@AEAAIPEAVSchedulerProxy@23@II@Z 000000018004bdcc f   libconcrt:ResourceManager.obj
 0001:0004afc8       ?ResetGlobalAllocationData@ResourceManager@details@Concurrency@@AEAAXXZ 000000018004bfc8 f   libconcrt:ResourceManager.obj
 0001:0004b01c       ?RetrieveSystemVersionInformation@ResourceManager@details@Concurrency@@CAXXZ 000000018004c01c f   libconcrt:ResourceManager.obj
 0001:0004b134       ?RoundUpScaledAllocations@ResourceManager@details@Concurrency@@CAXPEAPEAUAllocationData@23@II@Z 000000018004c134 f   libconcrt:ResourceManager.obj
 0001:0004b2f0       ?SendResourceNotifications@ResourceManager@details@Concurrency@@QEAAXPEAVSchedulerProxy@23@@Z 000000018004c2f0 f   libconcrt:ResourceManager.obj
 0001:0004b4b0       ?SetupStaticAllocationData@ResourceManager@details@Concurrency@@AEAAXPEAVSchedulerProxy@23@_N@Z 000000018004c4b0 f   libconcrt:ResourceManager.obj
 0001:0004b5c8       ?Shutdown@ResourceManager@details@Concurrency@@QEAAXPEAVSchedulerProxy@23@@Z 000000018004c5c8 f   libconcrt:ResourceManager.obj
 0001:0004b6f0       ?SubscribeCurrentThread@ResourceManager@details@Concurrency@@QEAAPEAVExecutionResource@23@PEAVSchedulerProxy@23@@Z 000000018004c6f0 f   libconcrt:ResourceManager.obj
 0001:0004b768       ?ToggleRMIdleState@ResourceManager@details@Concurrency@@AEAAXPEAUSchedulerNode@23@PEAUSchedulerCore@23@PEAUGlobalNode@23@PEAUGlobalCore@23@PEAUAllocationData@23@@Z 000000018004c768 f   libconcrt:ResourceManager.obj
 0001:0004b7d0       ?Version@ResourceManager@details@Concurrency@@SA?AW4OSVersion@IResourceManager@3@XZ 000000018004c7d0 f   libconcrt:ResourceManager.obj
 0001:0004b850       ??0?$ListArray@VScheduleGroupSegmentBase@details@Concurrency@@@details@Concurrency@@QEAA@PEAVSchedulerBase@12@HH@Z 000000018004c850 f i libconcrt:SchedulingRing.obj
 0001:0004b850       ??0?$ListArray@VExternalStatistics@details@Concurrency@@@details@Concurrency@@QEAA@PEAVSchedulerBase@12@HH@Z 000000018004c850 f i libconcrt:SchedulerBase.obj
 0001:0004b850       ??0?$ListArray@U?$ListArrayInlineLink@VWorkQueue@details@Concurrency@@@details@Concurrency@@@details@Concurrency@@QEAA@PEAVSchedulerBase@12@HH@Z 000000018004c850 f i libconcrt:ScheduleGroupBase.obj
 0001:0004b850       ??0?$ListArray@VVirtualProcessor@details@Concurrency@@@details@Concurrency@@QEAA@PEAVSchedulerBase@12@HH@Z 000000018004c850 f i libconcrt:SchedulingNode.obj
 0001:0004b850       ??0?$ListArray@VScheduleGroupBase@details@Concurrency@@@details@Concurrency@@QEAA@PEAVSchedulerBase@12@HH@Z 000000018004c850 f i libconcrt:SchedulerBase.obj
 0001:0004b850       ??0?$ListArray@VWorkQueue@details@Concurrency@@@details@Concurrency@@QEAA@PEAVSchedulerBase@12@HH@Z 000000018004c850 f i libconcrt:ScheduleGroupBase.obj
 0001:0004b980       ??0NumaInformation@SchedulerBase@details@Concurrency@@QEAA@XZ 000000018004c980 f i libconcrt:SchedulerBase.obj
 0001:0004b994       ??0SchedulerBase@details@Concurrency@@QEAA@AEBVSchedulerPolicy@2@@Z 000000018004c994 f   libconcrt:SchedulerBase.obj
 0001:0004bd8c       ??0improper_scheduler_attach@Concurrency@@QEAA@AEBV01@@Z 000000018004cd8c f i libconcrt:SchedulerBase.obj
 0001:0004bdcc       ??0improper_scheduler_reference@Concurrency@@QEAA@AEBV01@@Z 000000018004cdcc f i libconcrt:SchedulerBase.obj
 0001:0004be0c       ??1?$Hash@II@details@Concurrency@@QEAA@XZ 000000018004ce0c f i libconcrt:SchedulerBase.obj
 0001:0004be28       ??1?$ListArray@VExternalStatistics@details@Concurrency@@@details@Concurrency@@QEAA@XZ 000000018004ce28 f i libconcrt:SchedulerBase.obj
 0001:0004bf1c       ??1?$ListArray@VScheduleGroupBase@details@Concurrency@@@details@Concurrency@@QEAA@XZ 000000018004cf1c f i libconcrt:SchedulerBase.obj
 0001:0004c060       ??1NumaInformation@SchedulerBase@details@Concurrency@@QEAA@XZ 000000018004d060 f i libconcrt:SchedulerBase.obj
 0001:0004c080       ??1QuickBitSet@details@Concurrency@@QEAA@XZ 000000018004d080 f i libconcrt:SchedulerBase.obj
 0001:0004c08c       ??1ReferenceCountedQuickBitSet@details@Concurrency@@QEAA@XZ 000000018004d08c f i libconcrt:SchedulerBase.obj
 0001:0004c0ac       ??1ScheduleGroup@Concurrency@@MEAA@XZ 000000018004d0ac f i libconcrt:SchedulerBase.obj
 0001:0004c0b8       ??1Scheduler@Concurrency@@MEAA@XZ 000000018004d0b8 f i libconcrt:SchedulerBase.obj
 0001:0004c0c4       ??1SchedulerBase@details@Concurrency@@UEAA@XZ 000000018004d0c4 f   libconcrt:SchedulerBase.obj
 0001:0004c1b4       ??1_Scoped_lock@_HyperNonReentrantLock@details@Concurrency@@QEAA@XZ 000000018004d1b4 f i libconcrt:SchedulerBase.obj
 0001:0004c1d0       ??_EFairScheduleGroupSegment@details@Concurrency@@UEAAPEAXI@Z 000000018004d1d0 f i libconcrt:SchedulerBase.obj
 0001:0004c1d0       ??_GCacheLocalScheduleGroupSegment@details@Concurrency@@UEAAPEAXI@Z 000000018004d1d0 f i libconcrt:SchedulerBase.obj
 0001:0004c1d0       ??_ECacheLocalScheduleGroupSegment@details@Concurrency@@UEAAPEAXI@Z 000000018004d1d0 f i libconcrt:SchedulerBase.obj
 0001:0004c1d0       ??_GFairScheduleGroupSegment@details@Concurrency@@UEAAPEAXI@Z 000000018004d1d0 f i libconcrt:SchedulerBase.obj
 0001:0004c204       ??_GFairScheduleGroup@details@Concurrency@@UEAAPEAXI@Z 000000018004d204 f i libconcrt:SchedulerBase.obj
 0001:0004c204       ??_EFairScheduleGroup@details@Concurrency@@UEAAPEAXI@Z 000000018004d204 f i libconcrt:SchedulerBase.obj
 0001:0004c230       ??_GRealizedChore@details@Concurrency@@UEAAPEAXI@Z 000000018004d230 f i libconcrt:SchedulerBase.obj
 0001:0004c230       ??_ERealizedChore@details@Concurrency@@UEAAPEAXI@Z 000000018004d230 f i libconcrt:SchedulerBase.obj
 0001:0004c25c       ??_GScheduleGroup@Concurrency@@MEAAPEAXI@Z 000000018004d25c f i libconcrt:SchedulerBase.obj
 0001:0004c25c       ??_EScheduleGroup@Concurrency@@MEAAPEAXI@Z 000000018004d25c f i libconcrt:SchedulerBase.obj
 0001:0004c288       ??_GScheduler@Concurrency@@MEAAPEAXI@Z 000000018004d288 f i libconcrt:SchedulerBase.obj
 0001:0004c288       ??_EScheduler@Concurrency@@MEAAPEAXI@Z 000000018004d288 f i libconcrt:SchedulerBase.obj
 0001:0004c2b4       ??_GSchedulerBase@details@Concurrency@@UEAAPEAXI@Z 000000018004d2b4 f i libconcrt:SchedulerBase.obj
 0001:0004c2b4       ??_ESchedulerBase@details@Concurrency@@UEAAPEAXI@Z 000000018004d2b4 f i libconcrt:SchedulerBase.obj
 0001:0004c2e8       ??_E_Chore@details@Concurrency@@MEAAPEAXI@Z 000000018004d2e8 f i libconcrt:SchedulerBase.obj
 0001:0004c2e8       ??_G_Chore@details@Concurrency@@MEAAPEAXI@Z 000000018004d2e8 f i libconcrt:SchedulerBase.obj
 0001:0004c314       ?Add@?$ListArray@VScheduleGroupBase@details@Concurrency@@@details@Concurrency@@QEAAHPEAVScheduleGroupBase@23@@Z 000000018004d314 f i libconcrt:SchedulerBase.obj
 0001:0004c490       ?AddContext@SchedulerBase@details@Concurrency@@QEAAXPEAVInternalContextBase@23@@Z 000000018004d490 f   libconcrt:SchedulerBase.obj
 0001:0004c4e8       ?AddTail@?$SafeRWList@VWaitNode@SchedulerBase@details@Concurrency@@VNoCount@CollectionTypes@34@V_ReaderWriterLock@34@@details@Concurrency@@QEAAXPEAVWaitNode@SchedulerBase@23@@Z 000000018004d4e8 f i libconcrt:SchedulerBase.obj
 0001:0004c55c       ?AddVirtualProcessors@SchedulerBase@details@Concurrency@@IEAAXPEAPEAUIVirtualProcessorRoot@3@I@Z 000000018004d55c f   libconcrt:SchedulerBase.obj
 0001:0004c650       ?AllocateSegment@CacheLocalScheduleGroup@details@Concurrency@@MEAAPEAVScheduleGroupSegmentBase@23@PEAVSchedulingRing@23@PEAVlocation@3@@Z 000000018004d650 f i libconcrt:SchedulerBase.obj
 0001:0004c6dc       ?AllocateSegment@FairScheduleGroup@details@Concurrency@@MEAAPEAVScheduleGroupSegmentBase@23@PEAVSchedulingRing@23@PEAVlocation@3@@Z 000000018004d6dc f i libconcrt:SchedulerBase.obj
 0001:0004c76c       ?Attach@SchedulerBase@details@Concurrency@@UEAAXXZ 000000018004d76c f   libconcrt:SchedulerBase.obj
 0001:0004c7f8       ?AttachExternalContext@SchedulerBase@details@Concurrency@@AEAAPEAVExternalContextBase@23@_N@Z 000000018004d7f8 f   libconcrt:SchedulerBase.obj
 0001:0004c890       ?AttemptSchedulerSweep@SchedulerBase@details@Concurrency@@IEAAXXZ 000000018004d890 f   libconcrt:SchedulerBase.obj
 0001:0004c8b4       ?CancelAllContexts@SchedulerBase@details@Concurrency@@MEAAXXZ 000000018004d8b4 f   libconcrt:SchedulerBase.obj
 0001:0004c914       ?ChangeThrottlingTimer@SchedulerBase@details@Concurrency@@AEAAXK@Z 000000018004d914 f   libconcrt:SchedulerBase.obj
 0001:0004c974       ?CheckForDeletion@?$ListArray@VScheduleGroupBase@details@Concurrency@@@details@Concurrency@@AEAAXXZ 000000018004d974 f i libconcrt:SchedulerBase.obj
 0001:0004c9fc       ?CheckForDeletionBridge@?$ListArray@VExternalStatistics@details@Concurrency@@@details@Concurrency@@CAXPEAV123@@Z 000000018004d9fc f i libconcrt:SchedulerBase.obj
 0001:0004ca58       ?CheckForDeletionBridge@?$ListArray@VScheduleGroupBase@details@Concurrency@@@details@Concurrency@@CAXPEAV123@@Z 000000018004da58 f i libconcrt:SchedulerBase.obj
 0001:0004ca60       ?CheckOneShotStaticDestruction@SchedulerBase@details@Concurrency@@SAXXZ 000000018004da60 f   libconcrt:SchedulerBase.obj
 0001:0004caa0       ?CheckStaticConstruction@SchedulerBase@details@Concurrency@@CAXXZ 000000018004daa0 f   libconcrt:SchedulerBase.obj
 0001:0004cb50       ?Cleanup@SchedulerBase@details@Concurrency@@AEAAXXZ 000000018004db50 f   libconcrt:SchedulerBase.obj
 0001:0004cc74       ?CommitSafePoints@SchedulerBase@details@Concurrency@@QEAAXXZ 000000018004dc74 f   libconcrt:SchedulerBase.obj
 0001:0004ccdc       ?CommitToVersion@SchedulerBase@details@Concurrency@@AEAAXK@Z 000000018004dcdc f   libconcrt:SchedulerBase.obj
 0001:0004cdb4       ?ComputeSafePointCommitVersion@SchedulerBase@details@Concurrency@@AEAAKXZ 000000018004ddb4 f   libconcrt:SchedulerBase.obj
 0001:0004cec8       ?CopyFrom@QuickBitSet@details@Concurrency@@IEAAXAEBV123@@Z 000000018004dec8 f i libconcrt:SchedulerBase.obj
 0001:0004cf50       ?CreateContextFromDefaultScheduler@SchedulerBase@details@Concurrency@@SAPEAVContextBase@23@XZ 000000018004df50 f   libconcrt:SchedulerBase.obj
 0001:0004cf9c       ?CreateScheduleGroup@SchedulerBase@details@Concurrency@@UEAAPEAVScheduleGroup@3@AEAVlocation@3@@Z 000000018004df9c f i libconcrt:SchedulerBase.obj
 0001:0004cfa4       ?CreateScheduleGroup@SchedulerBase@details@Concurrency@@UEAAPEAVScheduleGroup@3@XZ 000000018004dfa4 f i libconcrt:SchedulerBase.obj
 0001:0004cfcc       ?CreateWithoutInitializing@SchedulerBase@details@Concurrency@@SAPEAV123@AEBVSchedulerPolicy@3@@Z 000000018004dfcc f   libconcrt:SchedulerBase.obj
 0001:0004cffc       ?DecrementInternalContextCount@SchedulerBase@details@Concurrency@@QEAAXXZ 000000018004dffc f   libconcrt:SchedulerBase.obj
 0001:0004d01c       ?DeferredGetInternalContext@SchedulerBase@details@Concurrency@@QEAAXXZ 000000018004e01c f   libconcrt:SchedulerBase.obj
 0001:0004d048       ?Dequeue@?$SafeSQueue@VInternalContextBase@details@Concurrency@@V_HyperNonReentrantLock@23@@details@Concurrency@@QEAAPEAVInternalContextBase@23@XZ 000000018004e048 f i libconcrt:SchedulerBase.obj
 0001:0004d0ac       ?DestroySchedulerEventHandlers@SchedulerBase@details@Concurrency@@MEAAXXZ 000000018004e0ac f   libconcrt:SchedulerBase.obj
 0001:0004d118       ?DetachExternalContext@SchedulerBase@details@Concurrency@@AEAAXPEAVExternalContextBase@23@_N@Z 000000018004e118 f   libconcrt:SchedulerBase.obj
 0001:0004d17c       ?FastCurrentContext@SchedulerBase@details@Concurrency@@SAPEAVContextBase@23@XZ 000000018004e17c f   libconcrt:SchedulerBase.obj
 0001:0004d188       ?Fill@QuickBitSet@details@Concurrency@@QEAAXXZ 000000018004e188 f i libconcrt:SchedulerBase.obj
 0001:0004d210       ?Finalize@SchedulerBase@details@Concurrency@@AEAAXXZ 000000018004e210 f   libconcrt:SchedulerBase.obj
 0001:0004d3d4       ?Find@?$Hash@II@details@Concurrency@@QEAAPEAUListNode@123@AEBIPEAI@Z 000000018004e3d4 f i libconcrt:SchedulerBase.obj
 0001:0004d450       ?FindCurrentNode@SchedulerBase@details@Concurrency@@QEAAPEAVSchedulingNode@23@XZ 000000018004e450 f   libconcrt:SchedulerBase.obj
 0001:0004d4b4       ?FindNodeByLocation@SchedulerBase@details@Concurrency@@QEAAPEAVSchedulingNode@23@PEAVlocation@3@@Z 000000018004e4b4 f   libconcrt:SchedulerBase.obj
 0001:0004d51c       ?FindScheduleGroupSegment@SchedulingRing@details@Concurrency@@AEAAPEAVScheduleGroupSegmentBase@23@HHPEAHPEAV?$ListArray@VScheduleGroupSegmentBase@details@Concurrency@@@23@@Z 000000018004e51c f i libconcrt:SchedulerBase.obj
 0001:0004d5a0       ?FindVirtualProcessor@SchedulingNode@details@Concurrency@@QEAAPEAVVirtualProcessor@23@HHPEAH@Z 000000018004e5a0 f i libconcrt:SchedulerBase.obj
 0001:0004d62c       ?FoundAvailableVirtualProcessor@SchedulerBase@details@Concurrency@@QEAA_NAEAVClaimTicket@VirtualProcessor@23@Vlocation@3@K@Z 000000018004e62c f   libconcrt:SchedulerBase.obj
 0001:0004d7a4       ?FoundBlockedContexts@SchedulerBase@details@Concurrency@@AEAA_NXZ 000000018004e7a4 f   libconcrt:SchedulerBase.obj
 0001:0004d7d8       ?FoundUnstartedChores@SchedulerBase@details@Concurrency@@AEAA_NXZ 000000018004e7d8 f   libconcrt:SchedulerBase.obj
 0001:0004d988       ?GetAnonymousScheduleGroupSegment@SchedulerBase@details@Concurrency@@QEAAPEAVScheduleGroupSegmentBase@23@XZ 000000018004e988 f   libconcrt:SchedulerBase.obj
 0001:0004d99c       ?GetBitSet@SchedulerBase@details@Concurrency@@QEAA?AVQuickBitSet@23@PEBVlocation@3@@Z 000000018004e99c f   libconcrt:SchedulerBase.obj
 0001:0004daa4       ?GetDefaultScheduler@SchedulerBase@details@Concurrency@@CAPEAV123@XZ 000000018004eaa4 f   libconcrt:SchedulerBase.obj
 0001:0004dba0       ?GetExternalContext@SchedulerBase@details@Concurrency@@AEAAPEAVExternalContextBase@23@_N@Z 000000018004eba0 f   libconcrt:SchedulerBase.obj
 0001:0004dc20       ?GetInternalContext@SchedulerBase@details@Concurrency@@QEAAPEAVInternalContextBase@23@_N@Z 000000018004ec20 f   libconcrt:SchedulerBase.obj
 0001:0004dd70       ?GetNewContextId@SchedulerBase@details@Concurrency@@QEAAIXZ 000000018004ed70 f   libconcrt:SchedulerBase.obj
 0001:0004dd80       ?GetNewScheduleGroupId@SchedulerBase@details@Concurrency@@QEAAIXZ 000000018004ed80 f   libconcrt:SchedulerBase.obj
 0001:0004dd90       ?GetNewWorkQueueId@SchedulerBase@details@Concurrency@@SAIXZ 000000018004ed90 f   libconcrt:SchedulerBase.obj
 0001:0004dda0       ?GetNextPriorityObject@SchedulerBase@details@Concurrency@@QEAAPEAUBoostedObject@23@XZ 000000018004eda0 f   libconcrt:SchedulerBase.obj
 0001:0004de24       ?GetNextScheduleGroupSegment@SchedulingRing@details@Concurrency@@AEAAPEAVScheduleGroupSegmentBase@23@PEAHHPEAV?$ListArray@VScheduleGroupSegmentBase@details@Concurrency@@@23@@Z 000000018004ee24 f i libconcrt:SchedulerBase.obj
 0001:0004de9c       ?GetNextSchedulingRing@SchedulerBase@details@Concurrency@@QEAAPEAVSchedulingRing@23@PEBV423@PEAV423@@Z 000000018004ee9c f   libconcrt:SchedulerBase.obj
 0001:0004dedc       ?GetNextSchedulingRing@SchedulerBase@details@Concurrency@@QEAAPEAVSchedulingRing@23@XZ 000000018004eedc f   libconcrt:SchedulerBase.obj
 0001:0004df18       ?GetPolicy@SchedulerBase@details@Concurrency@@UEBA?AVSchedulerPolicy@3@XZ 000000018004ef18 f   libconcrt:SchedulerBase.obj
 0001:0004df38       ?GetRealizedChore@SchedulerBase@details@Concurrency@@QEAAPEAVRealizedChore@23@P6AXPEAX@Z0@Z 000000018004ef38 f   libconcrt:SchedulerBase.obj
 0001:0004df9c       ?GetRunnableContext@CacheLocalScheduleGroupSegment@details@Concurrency@@EEAAPEAVInternalContextBase@23@XZ 000000018004ef9c f i libconcrt:SchedulerBase.obj
 0001:0004df9c       ?GetRunnableContext@FairScheduleGroupSegment@details@Concurrency@@EEAAPEAVInternalContextBase@23@XZ 000000018004ef9c f i libconcrt:SchedulerBase.obj
 0001:0004dfb4       ?GetSubAllocator@SchedulerBase@details@Concurrency@@SAPEAVSubAllocator@23@_N@Z 000000018004efb4 f   libconcrt:SchedulerBase.obj
 0001:0004e058       ?GetValidSchedulingRingIndex@SchedulerBase@details@Concurrency@@AEAAHH@Z 000000018004f058 f   libconcrt:SchedulerBase.obj
 0001:0004e090       ?Grow@QuickBitSet@details@Concurrency@@QEAAXI@Z 000000018004f090 f i libconcrt:SchedulerBase.obj
 0001:0004e138       ?Grow@ReferenceCountedQuickBitSet@details@Concurrency@@QEAAXI@Z 000000018004f138 f i libconcrt:SchedulerBase.obj
 0001:0004e1dc       ?HasCompletedShutdown@SchedulerBase@details@Concurrency@@QEAA_NXZ 000000018004f1dc f   libconcrt:SchedulerBase.obj
 0001:0004e1f0       ?Id@SchedulerBase@details@Concurrency@@UEBAIXZ 000000018004f1f0 f i libconcrt:SchedulerBase.obj
 0001:0004e1f8       ?Initialize@SchedulerBase@details@Concurrency@@AEAAXXZ 000000018004f1f8 f   libconcrt:SchedulerBase.obj
 0001:0004e7c4       ?InitializeSchedulerEventHandlers@SchedulerBase@details@Concurrency@@MEAAXXZ 000000018004f7c4 f   libconcrt:SchedulerBase.obj
 0001:0004e7cc       ?Insert@?$Hash@II@details@Concurrency@@QEAAPEAUListNode@123@AEBI0@Z 000000018004f7cc f i libconcrt:SchedulerBase.obj
 0001:0004e8a8       ?InternalCreateScheduleGroup@SchedulerBase@details@Concurrency@@AEAAPEAVScheduleGroup@3@PEAVlocation@3@@Z 000000018004f8a8 f   libconcrt:SchedulerBase.obj
 0001:0004e9b8       ?InternalRelease@ScheduleGroupBase@details@Concurrency@@IEAAJXZ 000000018004f9b8 f i libconcrt:SchedulerBase.obj
 0001:0004ea24       ?InvokeAtNextSafePoint@SafePointInvocation@details@Concurrency@@QEAAXP6AXPEAX@Z0PEAVSchedulerBase@23@@Z 000000018004fa24 f   libconcrt:SchedulerBase.obj
 0001:0004ea70       ?InvokeOnSafePoint@SchedulerBase@details@Concurrency@@AEAAXPEAVSafePointInvocation@23@@Z 000000018004fa70 f   libconcrt:SchedulerBase.obj
 0001:0004eae8       ?IsAvailableLocation@SchedulerBase@details@Concurrency@@UEBA_NAEBVlocation@3@@Z 000000018004fae8 f   libconcrt:SchedulerBase.obj
 0001:0004eb4c       ?MailChore@FairScheduleGroup@details@Concurrency@@UEAA?AVSlot@?$Mailbox@V_UnrealizedChore@details@Concurrency@@@23@PEAV_UnrealizedChore@23@PEAVlocation@3@PEAPEAVScheduleGroupSegmentBase@23@@Z 000000018004fb4c f i libconcrt:SchedulerBase.obj
 0001:0004eb58       ?MarkSafePoint@SchedulerBase@details@Concurrency@@QEAA_NPEAVSafePointMarker@23@@Z 000000018004fb58 f   libconcrt:SchedulerBase.obj
 0001:0004eb70       ?NotifyThrottledContext@SchedulerBase@details@Concurrency@@AEAA_NPEAVInternalContextBase@23@@Z 000000018004fb70 f   libconcrt:SchedulerBase.obj
 0001:0004ec1c       ?PerformServiceScan@SchedulerBase@details@Concurrency@@AEAAX_K@Z 000000018004fc1c f   libconcrt:SchedulerBase.obj
 0001:0004eef4       ?PhaseOneShutdown@SchedulerBase@details@Concurrency@@AEAAXXZ 000000018004fef4 f   libconcrt:SchedulerBase.obj
 0001:0004efd0       ?PhaseTwoShutdown@SchedulerBase@details@Concurrency@@AEAAXXZ 000000018004ffd0 f   libconcrt:SchedulerBase.obj
 0001:0004f0b8       ?PushRunnableToInactive@SchedulerBase@details@Concurrency@@UEAA_NPEAVInternalContextBase@23@Vlocation@3@@Z 00000001800500b8 f   libconcrt:SchedulerBase.obj
 0001:0004f168       ?Reference@ScheduleGroupBase@details@Concurrency@@UEAAIXZ 0000000180050168 f i libconcrt:SchedulerBase.obj
 0001:0004f180       ?Reference@SchedulerBase@details@Concurrency@@UEAAIXZ 0000000180050180 f   libconcrt:SchedulerBase.obj
 0001:0004f20c       ?ReferenceForAttach@SchedulerBase@details@Concurrency@@IEAAXXZ 000000018005020c f   libconcrt:SchedulerBase.obj
 0001:0004f244       ?RegisterShutdownEvent@SchedulerBase@details@Concurrency@@UEAAXPEAX@Z 0000000180050244 f   libconcrt:SchedulerBase.obj
 0001:0004f330       ?Release@ScheduleGroupBase@details@Concurrency@@UEAAIXZ 0000000180050330 f i libconcrt:SchedulerBase.obj
 0001:0004f338       ?Release@SchedulerBase@details@Concurrency@@UEAAIXZ 0000000180050338 f   libconcrt:SchedulerBase.obj
 0001:0004f35c       ?ReleaseExternalContext@SchedulerBase@details@Concurrency@@AEAAXPEAVExternalContextBase@23@@Z 000000018005035c f   libconcrt:SchedulerBase.obj
 0001:0004f3d4       ?ReleaseForDetach@SchedulerBase@details@Concurrency@@IEAAXXZ 00000001800503d4 f   libconcrt:SchedulerBase.obj
 0001:0004f40c       ?ReleaseInternalContext@SchedulerBase@details@Concurrency@@QEAAXPEAVInternalContextBase@23@_N@Z 000000018005040c f   libconcrt:SchedulerBase.obj
 0001:0004f478       ?ReleaseRealizedChore@SchedulerBase@details@Concurrency@@QEAAXPEAVRealizedChore@23@@Z 0000000180050478 f   libconcrt:SchedulerBase.obj
 0001:0004f4e8       ?ReleaseReservedContexts@SchedulerBase@details@Concurrency@@QEAAXXZ 00000001800504e8 f   libconcrt:SchedulerBase.obj
 0001:0004f584       ?Remove@?$ListArray@VExternalStatistics@details@Concurrency@@@details@Concurrency@@QEAA_NPEAVExternalStatistics@23@H_N@Z 0000000180050584 f i libconcrt:SchedulerBase.obj
 0001:0004f6c8       ?Remove@?$ListArray@VScheduleGroupBase@details@Concurrency@@@details@Concurrency@@QEAA_NPEAVScheduleGroupBase@23@H_N@Z 00000001800506c8 f i libconcrt:SchedulerBase.obj
 0001:0004f80c       ?RemoveHead@?$SafeRWList@VWaitNode@SchedulerBase@details@Concurrency@@VNoCount@CollectionTypes@34@V_ReaderWriterLock@34@@details@Concurrency@@QEAAPEAVWaitNode@SchedulerBase@23@XZ 000000018005080c f i libconcrt:SchedulerBase.obj
 0001:0004f878       ?RemovePrioritizedObject@SchedulerBase@details@Concurrency@@QEAAXPEAUBoostedObject@23@@Z 0000000180050878 f   libconcrt:SchedulerBase.obj
 0001:0004f8f8       ?RemoveScheduleGroup@SchedulerBase@details@Concurrency@@QEAAXPEAVScheduleGroupBase@23@@Z 00000001800508f8 f   libconcrt:SchedulerBase.obj
 0001:0004f90c       ?RemoveSegments@FairScheduleGroup@details@Concurrency@@MEAAXXZ 000000018005090c f i libconcrt:SchedulerBase.obj
 0001:0004f928       ?RemoveVirtualProcessors@SchedulerBase@details@Concurrency@@IEAAXPEAPEAUIVirtualProcessorRoot@3@I@Z 0000000180050928 f   libconcrt:SchedulerBase.obj
 0001:0004fa50       ?Resurrect@SchedulerBase@details@Concurrency@@AEAAXXZ 0000000180050a50 f   libconcrt:SchedulerBase.obj
 0001:0004fac0       ?ReturnSubAllocator@SchedulerBase@details@Concurrency@@SAXPEAVSubAllocator@23@@Z 0000000180050ac0 f   libconcrt:SchedulerBase.obj
 0001:0004fb38       ?SafeFastCurrentContext@SchedulerBase@details@Concurrency@@SAPEAVContextBase@23@XZ 0000000180050b38 f   libconcrt:SchedulerBase.obj
 0001:0004fb54       ?ScheduleTask@SchedulerBase@details@Concurrency@@UEAAXP6AXPEAX@Z0@Z 0000000180050b54 f   libconcrt:SchedulerBase.obj
 0001:0004fbd8       ?ScheduleTask@SchedulerBase@details@Concurrency@@UEAAXP6AXPEAX@Z0AEAVlocation@3@@Z 0000000180050bd8 f   libconcrt:SchedulerBase.obj
 0001:0004fc5c       ?SetNextSchedulingRing@SchedulerBase@details@Concurrency@@QEAAXPEAVSchedulingRing@23@@Z 0000000180050c5c f   libconcrt:SchedulerBase.obj
 0001:0004fc90       ?StartupNewVirtualProcessor@SchedulerBase@details@Concurrency@@UEAAXPEAVScheduleGroupSegmentBase@23@Vlocation@3@@Z 0000000180050c90 f i libconcrt:SchedulerBase.obj
 0001:0004fccc       ?StartupVirtualProcessor@SchedulerBase@details@Concurrency@@QEAA_NPEAVScheduleGroupSegmentBase@23@Vlocation@3@K@Z 0000000180050ccc f   libconcrt:SchedulerBase.obj
 0001:0004fd64       ?StaticDestruction@SchedulerBase@details@Concurrency@@CAXXZ 0000000180050d64 f   libconcrt:SchedulerBase.obj
 0001:0004fe18       ?Statistics@SchedulerBase@details@Concurrency@@IEAAXPEAI00@Z 0000000180050e18 f   libconcrt:SchedulerBase.obj
 0001:00050070       ?SweepSchedulerForFinalize@SchedulerBase@details@Concurrency@@AEAAXXZ 0000000180051070 f   libconcrt:SchedulerBase.obj
 0001:00050154       ?ThrottlerDispatch@SchedulerBase@details@Concurrency@@AEAAXXZ 0000000180051154 f   libconcrt:SchedulerBase.obj
 0001:0005028c       ?ThrottlerDispatchBridge@SchedulerBase@details@Concurrency@@CAXPEAU_TP_CALLBACK_INSTANCE@@PEAXPEAU_TP_TIMER@@@Z 000000018005128c f i libconcrt:SchedulerBase.obj
 0001:00050294       ?ThrottlerDispatchBridgeXP@SchedulerBase@details@Concurrency@@CAXPEAXE@Z 0000000180051294 f i libconcrt:SchedulerBase.obj
 0001:0005029c       ?ThrottlerTrampoline@SchedulerBase@details@Concurrency@@CAXPEAXE@Z 000000018005129c f   libconcrt:SchedulerBase.obj
 0001:000502e4       ?ThrottlingTime@SchedulerBase@details@Concurrency@@QEAAKK@Z 00000001800512e4 f   libconcrt:SchedulerBase.obj
 0001:000503b4       ?ThrowSchedulerEvent@SchedulerBase@details@Concurrency@@CAXW4ConcRT_EventType@3@EI@Z 00000001800513b4 f   libconcrt:SchedulerBase.obj
 0001:0005043c       ?TriggerCommitSafePoints@SchedulerBase@details@Concurrency@@QEAAXPEAVSafePointMarker@23@@Z 000000018005143c f   libconcrt:SchedulerBase.obj
 0001:0005049c       ?TypeOfWorkPending@SchedulerBase@details@Concurrency@@MEAA?AW4PendingWorkType@123@XZ 000000018005149c f   libconcrt:SchedulerBase.obj
 0001:000504e4       ?UpdateCommitVersion@SchedulerBase@details@Concurrency@@AEAAKK@Z 00000001800514e4 f   libconcrt:SchedulerBase.obj
 0001:00050530       ?UpdatePendingVersion@SchedulerBase@details@Concurrency@@AEAAKXZ 0000000180051530 f   libconcrt:SchedulerBase.obj
 0001:00050574       ?VirtualProcessorActive@SchedulerBase@details@Concurrency@@QEAA_N_N@Z 0000000180051574 f   libconcrt:SchedulerBase.obj
 0001:0005067c       ?VirtualProcessorIdle@SchedulerBase@details@Concurrency@@QEAAX_N@Z 000000018005167c f   libconcrt:SchedulerBase.obj
 0001:000506f0       ?Wipe@?$Hash@II@details@Concurrency@@QEAAXXZ 00000001800516f0 f i libconcrt:SchedulerBase.obj
 0001:00050770       ??0context_self_unblock@Concurrency@@QEAA@XZ 0000000180051770 f   libconcrt:Exceptions.obj
 0001:00050788       ??0context_unblock_unbalanced@Concurrency@@QEAA@XZ 0000000180051788 f   libconcrt:Exceptions.obj
 0001:000507a0       ??0improper_lock@Concurrency@@QEAA@PEBD@Z 00000001800517a0 f   libconcrt:Exceptions.obj
 0001:000507ec       ??0improper_scheduler_attach@Concurrency@@QEAA@XZ 00000001800517ec f   libconcrt:Exceptions.obj
 0001:00050804       ??0improper_scheduler_reference@Concurrency@@QEAA@XZ 0000000180051804 f   libconcrt:Exceptions.obj
 0001:0005081c       ??0invalid_oversubscribe_operation@Concurrency@@QEAA@XZ 000000018005181c f   libconcrt:Exceptions.obj
 0001:00050834       ??0invalid_scheduler_policy_key@Concurrency@@QEAA@PEBD@Z 0000000180051834 f   libconcrt:Exceptions.obj
 0001:00050880       ??0invalid_scheduler_policy_thread_specification@Concurrency@@QEAA@XZ 0000000180051880 f   libconcrt:Exceptions.obj
 0001:00050898       ??0invalid_scheduler_policy_value@Concurrency@@QEAA@PEBD@Z 0000000180051898 f   libconcrt:Exceptions.obj
 0001:000508e4       ??0missing_wait@Concurrency@@QEAA@XZ 00000001800518e4 f   libconcrt:Exceptions.obj
 0001:000508fc       ??0nested_scheduler_missing_detach@Concurrency@@QEAA@XZ 00000001800518fc f   libconcrt:Exceptions.obj
 0001:00050914       ??0scheduler_resource_allocation_error@Concurrency@@QEAA@J@Z 0000000180051914 f   libconcrt:Exceptions.obj
 0001:00050930       ??0scheduler_worker_creation_error@Concurrency@@QEAA@J@Z 0000000180051930 f   libconcrt:Exceptions.obj
 0001:0005094c       ??0unsupported_os@Concurrency@@QEAA@XZ 000000018005194c f   libconcrt:Exceptions.obj
 0001:00050964       ??1invalid_oversubscribe_operation@Concurrency@@UEAA@XZ 0000000180051964 f i libconcrt:Exceptions.obj
 0001:00050964       ??1bad_cast@std@@UEAA@XZ   0000000180051964 f i libcpmt:locale.obj
 0001:00050964       ??1improper_scheduler_reference@Concurrency@@UEAA@XZ 0000000180051964 f i libconcrt:SchedulerBase.obj
 0001:00050964       ??1length_error@std@@UEAA@XZ 0000000180051964 f i libcpmt:xthrow.obj
 0001:00050964       ??1_Interruption_exception@details@Concurrency@@UEAA@XZ 0000000180051964 f i libconcrt:TaskCollection.obj
 0001:00050964       ??1invalid_scheduler_policy_key@Concurrency@@UEAA@XZ 0000000180051964 f i libconcrt:Exceptions.obj
 0001:00050964       ??1context_self_unblock@Concurrency@@UEAA@XZ 0000000180051964 f i libconcrt:Exceptions.obj
 0001:00050964       ??1out_of_range@std@@UEAA@XZ 0000000180051964 f i libcpmt:xthrow.obj
 0001:00050964       ??1bad_array_new_length@std@@UEAA@XZ 0000000180051964 f i LIBCMT:throw_bad_alloc.obj
 0001:00050964       ??1scheduler_worker_creation_error@Concurrency@@UEAA@XZ 0000000180051964 f i libconcrt:Exceptions.obj
 0001:00050964       ??1bad_function_call@std@@UEAA@XZ 0000000180051964 f i libcpmt:xthrow.obj
 0001:00050964       ??1missing_wait@Concurrency@@UEAA@XZ 0000000180051964 f i libconcrt:Exceptions.obj
 0001:00050964       ??1invalid_scheduler_policy_value@Concurrency@@UEAA@XZ 0000000180051964 f i libconcrt:Exceptions.obj
 0001:00050964       ??1improper_scheduler_attach@Concurrency@@UEAA@XZ 0000000180051964 f i libconcrt:SchedulerBase.obj
 0001:00050964       ??1bad_alloc@std@@UEAA@XZ  0000000180051964 f i libcpmt:xthrow.obj
 0001:00050964       ??1unsupported_os@Concurrency@@UEAA@XZ 0000000180051964 f i libconcrt:ResourceManager.obj
 0001:00050964       ??1improper_lock@Concurrency@@UEAA@XZ 0000000180051964 f i libconcrt:rtlocks.obj
 0001:00050964       ??1context_unblock_unbalanced@Concurrency@@UEAA@XZ 0000000180051964 f i libconcrt:Exceptions.obj
 0001:00050964       ??1__non_rtti_object@std@@UEAA@XZ 0000000180051964 f i libvcruntime:rtti.obj
 0001:00050964       ??1scheduler_resource_allocation_error@Concurrency@@UEAA@XZ 0000000180051964 f i libconcrt:Platform.obj
 0001:00050964       ??1invalid_argument@std@@UEAA@XZ 0000000180051964 f i libcpmt:xthrow.obj
 0001:00050964       ??1bad_exception@std@@UEAA@XZ 0000000180051964 f i libvcruntime:frame.obj
 0001:00050964       ??1invalid_operation@Concurrency@@UEAA@XZ 0000000180051964 f i libconcrt:ResourceManager.obj
 0001:00050964       ??1invalid_scheduler_policy_thread_specification@Concurrency@@UEAA@XZ 0000000180051964 f i libconcrt:Exceptions.obj
 0001:00050964       ??1nested_scheduler_missing_detach@Concurrency@@UEAA@XZ 0000000180051964 f i libconcrt:Exceptions.obj
 0001:00050978       ??_Ginvalid_scheduler_policy_value@Concurrency@@UEAAPEAXI@Z 0000000180051978 f i libconcrt:Exceptions.obj
 0001:00050978       ??_E__non_rtti_object@std@@UEAAPEAXI@Z 0000000180051978 f i libvcruntime:rtti.obj
 0001:00050978       ??_Eimproper_scheduler_reference@Concurrency@@UEAAPEAXI@Z 0000000180051978 f i libconcrt:SchedulerBase.obj
 0001:00050978       ??_Ginvalid_oversubscribe_operation@Concurrency@@UEAAPEAXI@Z 0000000180051978 f i libconcrt:Exceptions.obj
 0001:00050978       ??_Einvalid_oversubscribe_operation@Concurrency@@UEAAPEAXI@Z 0000000180051978 f i libconcrt:Exceptions.obj
 0001:00050978       ??_Emissing_wait@Concurrency@@UEAAPEAXI@Z 0000000180051978 f i libconcrt:Exceptions.obj
 0001:00050978       ??_Ginvalid_scheduler_policy_thread_specification@Concurrency@@UEAAPEAXI@Z 0000000180051978 f i libconcrt:Exceptions.obj
 0001:00050978       ??_G_Interruption_exception@details@Concurrency@@UEAAPEAXI@Z 0000000180051978 f i libconcrt:TaskCollection.obj
 0001:00050978       ??_Elength_error@std@@UEAAPEAXI@Z 0000000180051978 f i libcpmt:xthrow.obj
 0001:00050978       ??_Gcontext_unblock_unbalanced@Concurrency@@UEAAPEAXI@Z 0000000180051978 f i libconcrt:Exceptions.obj
 0001:00050978       ??_Ebad_function_call@std@@UEAAPEAXI@Z 0000000180051978 f i libcpmt:xthrow.obj
 0001:00050978       ??_Ebad_array_new_length@std@@UEAAPEAXI@Z 0000000180051978 f i LIBCMT:throw_bad_alloc.obj
 0001:00050978       ??_Gnested_scheduler_missing_detach@Concurrency@@UEAAPEAXI@Z 0000000180051978 f i libconcrt:Exceptions.obj
 0001:00050978       ??_Gbad_exception@std@@UEAAPEAXI@Z 0000000180051978 f i libvcruntime:frame.obj
 0001:00050978       ??_Ebad_typeid@std@@UEAAPEAXI@Z 0000000180051978 f i libvcruntime:rtti.obj
 0001:00050978       ??_Eexception@std@@UEAAPEAXI@Z 0000000180051978 f i libcpmt:xonce.obj
 0001:00050978       ??_Econtext_unblock_unbalanced@Concurrency@@UEAAPEAXI@Z 0000000180051978 f i libconcrt:Exceptions.obj
 0001:00050978       ??_Ginvalid_scheduler_policy_key@Concurrency@@UEAAPEAXI@Z 0000000180051978 f i libconcrt:Exceptions.obj
 0001:00050978       ??_Eimproper_scheduler_attach@Concurrency@@UEAAPEAXI@Z 0000000180051978 f i libconcrt:SchedulerBase.obj
 0001:00050978       ??_Ginvalid_operation@Concurrency@@UEAAPEAXI@Z 0000000180051978 f i libconcrt:ResourceManager.obj
 0001:00050978       ??_Einvalid_scheduler_policy_key@Concurrency@@UEAAPEAXI@Z 0000000180051978 f i libconcrt:Exceptions.obj
 0001:00050978       ??_E_Interruption_exception@details@Concurrency@@UEAAPEAXI@Z 0000000180051978 f i libconcrt:TaskCollection.obj
 0001:00050978       ??_Gbad_alloc@std@@UEAAPEAXI@Z 0000000180051978 f i libcpmt:xthrow.obj
 0001:00050978       ??_Gcontext_self_unblock@Concurrency@@UEAAPEAXI@Z 0000000180051978 f i libconcrt:Exceptions.obj
 0001:00050978       ??_Gimproper_scheduler_attach@Concurrency@@UEAAPEAXI@Z 0000000180051978 f i libconcrt:SchedulerBase.obj
 0001:00050978       ??_Gbad_function_call@std@@UEAAPEAXI@Z 0000000180051978 f i libcpmt:xthrow.obj
 0001:00050978       ??_Einvalid_scheduler_policy_value@Concurrency@@UEAAPEAXI@Z 0000000180051978 f i libconcrt:Exceptions.obj
 0001:00050978       ??_Eunsupported_os@Concurrency@@UEAAPEAXI@Z 0000000180051978 f i libconcrt:ResourceManager.obj
 0001:00050978       ??_Econtext_self_unblock@Concurrency@@UEAAPEAXI@Z 0000000180051978 f i libconcrt:Exceptions.obj
 0001:00050978       ??_Gunsupported_os@Concurrency@@UEAAPEAXI@Z 0000000180051978 f i libconcrt:ResourceManager.obj
 0001:00050978       ??_G__non_rtti_object@std@@UEAAPEAXI@Z 0000000180051978 f i libvcruntime:rtti.obj
 0001:00050978       ??_Eout_of_range@std@@UEAAPEAXI@Z 0000000180051978 f i libcpmt:xthrow.obj
 0001:00050978       ??_Einvalid_scheduler_policy_thread_specification@Concurrency@@UEAAPEAXI@Z 0000000180051978 f i libconcrt:Exceptions.obj
 0001:00050978       ??_Gexception@std@@UEAAPEAXI@Z 0000000180051978 f i libcpmt:xonce.obj
 0001:00050978       ??_Ebad_alloc@std@@UEAAPEAXI@Z 0000000180051978 f i libcpmt:xthrow.obj
 0001:00050978       ??_Ebad_exception@std@@UEAAPEAXI@Z 0000000180051978 f i libvcruntime:frame.obj
 0001:00050978       ??_Gimproper_scheduler_reference@Concurrency@@UEAAPEAXI@Z 0000000180051978 f i libconcrt:SchedulerBase.obj
 0001:00050978       ??_Gout_of_range@std@@UEAAPEAXI@Z 0000000180051978 f i libcpmt:xthrow.obj
 0001:00050978       ??_Ebad_cast@std@@UEAAPEAXI@Z 0000000180051978 f i libcpmt:locale.obj
 0001:00050978       ??_Gbad_array_new_length@std@@UEAAPEAXI@Z 0000000180051978 f i LIBCMT:throw_bad_alloc.obj
 0001:00050978       ??_Einvalid_operation@Concurrency@@UEAAPEAXI@Z 0000000180051978 f i libconcrt:ResourceManager.obj
 0001:00050978       ??_Ginvalid_argument@std@@UEAAPEAXI@Z 0000000180051978 f i libcpmt:xthrow.obj
 0001:00050978       ??_Gbad_cast@std@@UEAAPEAXI@Z 0000000180051978 f i libcpmt:locale.obj
 0001:00050978       ??_Gimproper_lock@Concurrency@@UEAAPEAXI@Z 0000000180051978 f i libconcrt:rtlocks.obj
 0001:00050978       ??_Gbad_typeid@std@@UEAAPEAXI@Z 0000000180051978 f i libvcruntime:rtti.obj
 0001:00050978       ??_Eimproper_lock@Concurrency@@UEAAPEAXI@Z 0000000180051978 f i libconcrt:rtlocks.obj
 0001:00050978       ??_Enested_scheduler_missing_detach@Concurrency@@UEAAPEAXI@Z 0000000180051978 f i libconcrt:Exceptions.obj
 0001:00050978       ??_Gmissing_wait@Concurrency@@UEAAPEAXI@Z 0000000180051978 f i libconcrt:Exceptions.obj
 0001:00050978       ??_Einvalid_argument@std@@UEAAPEAXI@Z 0000000180051978 f i libcpmt:xthrow.obj
 0001:00050978       ??_Glength_error@std@@UEAAPEAXI@Z 0000000180051978 f i libcpmt:xthrow.obj
 0001:000509bc       ??0ContextBase@details@Concurrency@@QEAA@PEAVSchedulerBase@12@_N@Z 00000001800519bc f   libconcrt:ContextBase.obj
 0001:00050b1c       ??1?$Hash@PEAV_TaskCollection@details@Concurrency@@PEAV123@@details@Concurrency@@QEAA@XZ 0000000180051b1c f i libconcrt:ContextBase.obj
 0001:00050b38       ??1?$StructuredWorkStealingQueue@V_UnrealizedChore@details@Concurrency@@V_CriticalNonReentrantLock@23@@details@Concurrency@@QEAA@XZ 0000000180051b38 f i libconcrt:ContextBase.obj
 0001:00050b58       ??1?$WorkStealingQueue@V_UnrealizedChore@details@Concurrency@@V_CriticalNonReentrantLock@23@@details@Concurrency@@QEAA@XZ 0000000180051b58 f i libconcrt:ContextBase.obj
 0001:00050b78       ??1CancellationBeaconStack@ContextBase@details@Concurrency@@QEAA@XZ 0000000180051b78 f i libconcrt:ContextBase.obj
 0001:00050bd8       ??1Context@Concurrency@@MEAA@XZ 0000000180051bd8 f i libconcrt:ContextBase.obj
 0001:00050be4       ??1ContextBase@details@Concurrency@@UEAA@XZ 0000000180051be4 f i libconcrt:ContextBase.obj
 0001:00050c70       ??1_Scoped_lock@_CriticalNonReentrantLock@details@Concurrency@@QEAA@XZ 0000000180051c70 f i libconcrt:ContextBase.obj
 0001:00050c8c       ??1_Scoped_lock_read@?$SafeRWList@UListEntry@details@Concurrency@@VNoCount@CollectionTypes@23@V_ReaderWriterLock@23@@details@Concurrency@@QEAA@XZ 0000000180051c8c f i libconcrt:ContextBase.obj
 0001:00050cac       ??_EContext@Concurrency@@MEAAPEAXI@Z 0000000180051cac f i libconcrt:ContextBase.obj
 0001:00050cac       ??_GContext@Concurrency@@MEAAPEAXI@Z 0000000180051cac f i libconcrt:ContextBase.obj
 0001:00050cd8       ??_GContextBase@details@Concurrency@@UEAAPEAXI@Z 0000000180051cd8 f i libconcrt:ContextBase.obj
 0001:00050cd8       ??_EContextBase@details@Concurrency@@UEAAPEAXI@Z 0000000180051cd8 f i libconcrt:ContextBase.obj
 0001:00050d0c       ?Add@?$ListArray@VWorkQueue@details@Concurrency@@@details@Concurrency@@QEAAHPEAVWorkQueue@23@@Z 0000000180051d0c f i libconcrt:ContextBase.obj
 0001:00050e8c       ?AddStealer@ContextBase@details@Concurrency@@QEAAXPEAV123@_N@Z 0000000180051e8c f   libconcrt:ContextBase.obj
 0001:00050edc       ?AddTail@?$SafeRWList@UListEntry@details@Concurrency@@VNoCount@CollectionTypes@23@V_ReaderWriterLock@23@@details@Concurrency@@QEAAXPEAUListEntry@23@@Z 0000000180051edc f i libconcrt:ContextBase.obj
 0001:00050f54       ?CancelCollection@ContextBase@details@Concurrency@@QEAAXH@Z 0000000180051f54 f   libconcrt:ContextBase.obj
 0001:00050fc4       ?CancelCollectionComplete@ContextBase@details@Concurrency@@QEAA_NH@Z 0000000180051fc4 f   libconcrt:ContextBase.obj
 0001:00051000       ?CancelStealers@ContextBase@details@Concurrency@@QEAAXPEAV_TaskCollectionBase@23@@Z 0000000180052000 f   libconcrt:ContextBase.obj
 0001:00051108       ?CheckForDeletion@?$ListArray@VWorkQueue@details@Concurrency@@@details@Concurrency@@AEAAXXZ 0000000180052108 f i libconcrt:ContextBase.obj
 0001:00051198       ?CheckForDeletionBridge@?$ListArray@VWorkQueue@details@Concurrency@@@details@Concurrency@@CAXPEAV123@@Z 0000000180052198 f i libconcrt:ContextBase.obj
 0001:000511a0       ?Claim@Slot@?$Mailbox@V_UnrealizedChore@details@Concurrency@@@details@Concurrency@@QEAA_NPEAPEAV_UnrealizedChore@34@@Z 00000001800521a0 f i libconcrt:ContextBase.obj
 0001:00051210       ?Cleanup@ContextBase@details@Concurrency@@QEAAXXZ 0000000180052210 f   libconcrt:ContextBase.obj
 0001:0005127c       ?ClearAliasTable@ContextBase@details@Concurrency@@QEAAXXZ 000000018005227c f   libconcrt:ContextBase.obj
 0001:00051344       ?ClearContextTls@ContextBase@details@Concurrency@@AEAAXXZ 0000000180052344 f   libconcrt:ContextBase.obj
 0001:00051354       ?CreateWorkQueue@ContextBase@details@Concurrency@@QEAAXXZ 0000000180052354 f   libconcrt:ContextBase.obj
 0001:000513fc       ?DetachStealers@ContextBase@details@Concurrency@@QEAAXXZ 00000001800523fc f   libconcrt:ContextBase.obj
 0001:000515d8       ?EnterCriticalRegionHelper@ContextBase@details@Concurrency@@UEAAHXZ 00000001800525d8 f i libconcrt:ContextBase.obj
 0001:000515e4       ?EnterHyperCriticalRegionHelper@ContextBase@details@Concurrency@@UEAAHXZ 00000001800525e4 f i libconcrt:ContextBase.obj
 0001:000515f0       ?ExitCriticalRegionHelper@ContextBase@details@Concurrency@@UEAAHXZ 00000001800525f0 f i libconcrt:ContextBase.obj
 0001:000515fc       ?ExitHyperCriticalRegionHelper@ContextBase@details@Concurrency@@UEAAHXZ 00000001800525fc f i libconcrt:ContextBase.obj
 0001:00051608       ?FindAndDelete@?$Hash@PEAV_TaskCollection@details@Concurrency@@PEAV123@@details@Concurrency@@QEAA_NAEBQEAV_TaskCollection@23@PEAPEAV423@@Z 0000000180052608 f i libconcrt:ContextBase.obj
 0001:000516bc       ?FlagCancellationBeacons@ContextBase@details@Concurrency@@QEAAXH@Z 00000001800526bc f   libconcrt:ContextBase.obj
 0001:00051738       ?GetCriticalRegionType@ContextBase@details@Concurrency@@UEBA?AW4CriticalRegionType@3@XZ 0000000180052738 f i libconcrt:ContextBase.obj
 0001:0005174c       ?GetId@ContextBase@details@Concurrency@@UEBAIXZ 000000018005274c f   libconcrt:ContextBase.obj
 0001:00051750       ?GetIndirectAlias@ContextBase@details@Concurrency@@QEBAPEAV_TaskCollection@23@XZ 0000000180052750 f   libconcrt:ContextBase.obj
 0001:00051758       ?GetScheduleGroup@ContextBase@details@Concurrency@@QEBAPEAVScheduleGroupBase@23@XZ 0000000180052758 f   libconcrt:ContextBase.obj
 0001:0005176c       ?GetScheduleGroupId@ContextBase@details@Concurrency@@UEBAIXZ 000000018005276c f   libconcrt:ContextBase.obj
 0001:000517ac       ?GetScheduleGroupSegment@ContextBase@details@Concurrency@@QEBAPEAVScheduleGroupSegmentBase@23@XZ 00000001800527ac f   libconcrt:ContextBase.obj
 0001:000517b4       ?GetScheduler@ContextBase@details@Concurrency@@QEBAPEAVSchedulerBase@23@XZ 00000001800527b4 f   libconcrt:ContextBase.obj
 0001:000517bc       ?IsCanceledAtDepth@ContextBase@details@Concurrency@@AEAA_NPEAV_TaskCollectionBase@23@H@Z 00000001800527bc f   libconcrt:ContextBase.obj
 0001:000518d8       ?Pop@?$WorkStealingQueue@V_UnrealizedChore@details@Concurrency@@V_CriticalNonReentrantLock@23@@details@Concurrency@@QEAAPEAV_UnrealizedChore@23@XZ 00000001800528d8 f i libconcrt:ContextBase.obj
 0001:0005198c       ?PopContextFromTls@ContextBase@details@Concurrency@@AEAAPEAV123@XZ 000000018005298c f   libconcrt:ContextBase.obj
 0001:000519c0       ?PushContextToTls@ContextBase@details@Concurrency@@AEAAXPEAV123@@Z 00000001800529c0 f   libconcrt:ContextBase.obj
 0001:000519d4       ?RecomputeMaximumCancellationDepth@ContextBase@details@Concurrency@@AEAAXXZ 00000001800529d4 f   libconcrt:ContextBase.obj
 0001:00051a78       ?ReferenceForCancellation@ContextBase@details@Concurrency@@QEAAXXZ 0000000180052a78 f   libconcrt:ContextBase.obj
 0001:00051a80       ?ReleaseWorkQueue@ContextBase@details@Concurrency@@IEAAXXZ 0000000180052a80 f   libconcrt:ContextBase.obj
 0001:00051b40       ?Remove@?$ListArray@VWorkQueue@details@Concurrency@@@details@Concurrency@@QEAA_NPEAVWorkQueue@23@H_N@Z 0000000180052b40 f i libconcrt:ContextBase.obj
 0001:00051c80       ?Remove@?$SafeRWList@UListEntry@details@Concurrency@@VNoCount@CollectionTypes@23@V_ReaderWriterLock@23@@details@Concurrency@@QEAAXPEAUListEntry@23@@Z 0000000180052c80 f i libconcrt:ContextBase.obj
 0001:00051cf0       ?RemoveStealer@ContextBase@details@Concurrency@@QEAAXPEAV123@@Z 0000000180052cf0 f   libconcrt:ContextBase.obj
 0001:00051d04       ?SetAsCurrentTls@ContextBase@details@Concurrency@@IEAAXXZ 0000000180052d04 f   libconcrt:ContextBase.obj
 0001:00051d14       ?StaticEnterHyperCriticalRegion@ContextBase@details@Concurrency@@SAXXZ 0000000180052d14 f   libconcrt:ContextBase.obj
 0001:00051d14       ?StaticExitHyperCriticalRegion@ContextBase@details@Concurrency@@SAXXZ 0000000180052d14 f   libconcrt:ContextBase.obj
 0001:00051d14       ?StaticEnterCriticalRegion@ContextBase@details@Concurrency@@SAXXZ 0000000180052d14 f   libconcrt:ContextBase.obj
 0001:00051d14       ?StaticExitCriticalRegion@ContextBase@details@Concurrency@@SAXXZ 0000000180052d14 f   libconcrt:ContextBase.obj
 0001:00051d1c       ?SweepAliasTable@ContextBase@details@Concurrency@@QEAAXXZ 0000000180052d1c f   libconcrt:ContextBase.obj
 0001:00051e2c       ?SweepUnstructured@ContextBase@details@Concurrency@@QEAAXP6A_NPEAV_UnrealizedChore@23@PEAX@Z12@Z 0000000180052e2c f   libconcrt:ContextBase.obj
 0001:00051e38       ?SyncPop@?$WorkStealingQueue@V_UnrealizedChore@details@Concurrency@@V_CriticalNonReentrantLock@23@@details@Concurrency@@AEAAPEAV_UnrealizedChore@23@XZ 0000000180052e38 f i libconcrt:ContextBase.obj
 0001:00051f2c       ?ThrowContextEvent@ContextBase@details@Concurrency@@KAXW4ConcRT_EventType@3@EKK@Z 0000000180052f2c f   libconcrt:ContextBase.obj
 0001:00051fc8       ?TryPop@?$WorkStealingQueue@V_UnrealizedChore@details@Concurrency@@V_CriticalNonReentrantLock@23@@details@Concurrency@@QEAAPEAV_UnrealizedChore@23@H@Z 0000000180052fc8 f i libconcrt:ContextBase.obj
 0001:0005208c       ?TryPopUnstructured@ContextBase@details@Concurrency@@QEAAPEAV_UnrealizedChore@23@H@Z 000000018005308c f   libconcrt:ContextBase.obj
 0001:0005209c       ?Wipe@?$Hash@PEAV_TaskCollection@details@Concurrency@@PEAV123@@details@Concurrency@@QEAAXXZ 000000018005309c f i libconcrt:ContextBase.obj
 0001:0005211c       ??0CancellationTokenRegistration_TaskProc@details@Concurrency@@QEAA@P6AXPEAX@Z0H@Z 000000018005311c f i libconcrt:TaskCollection.obj
 0001:000521a4       ??0_Interruption_exception@details@Concurrency@@QEAA@AEBV012@@Z 00000001800531a4 f i libconcrt:TaskCollection.obj
 0001:000521e4       ??0_Interruption_exception@details@Concurrency@@QEAA@XZ 00000001800531e4 f i libconcrt:TaskCollection.obj
 0001:000521fc       ??0_TaskCollection@details@Concurrency@@AEAA@PEAV012@_N@Z 00000001800531fc f   libconcrt:TaskCollection.obj
 0001:00052378       ??0missing_wait@Concurrency@@QEAA@AEBV01@@Z 0000000180053378 f i libconcrt:TaskCollection.obj
 0001:000523b8       ??1?$_MallocaArrayHolder@PEAVevent@Concurrency@@@details@Concurrency@@UEAA@XZ 00000001800533b8 f i libconcrt:TaskCollection.obj
 0001:000523e8       ??1_TaskCollection@details@Concurrency@@QEAA@XZ 00000001800533e8 f   libconcrt:TaskCollection.obj
 0001:00052514       ??1exception_ptr@std@@QEAA@XZ 0000000180053514 f i libconcrt:TaskCollection.obj
 0001:0005252c       ??_E?$_MallocaArrayHolder@PEAVevent@Concurrency@@@details@Concurrency@@UEAAPEAXI@Z 000000018005352c f i libconcrt:TaskCollection.obj
 0001:0005252c       ??_G?$_MallocaArrayHolder@PEAVevent@Concurrency@@@details@Concurrency@@UEAAPEAXI@Z 000000018005352c f i libconcrt:TaskCollection.obj
 0001:00052580       ??_GCancellationTokenRegistration_TaskProc@details@Concurrency@@UEAAPEAXI@Z 0000000180053580 f i libconcrt:TaskCollection.obj
 0001:00052580       ??_ECancellationTokenRegistration_TaskProc@details@Concurrency@@UEAAPEAXI@Z 0000000180053580 f i libconcrt:TaskCollection.obj
 0001:000525d8       ??_E_CancellationTokenRegistration@details@Concurrency@@MEAAPEAXI@Z 00000001800535d8 f i libconcrt:TaskCollection.obj
 0001:000525d8       ??_G_CancellationTokenRegistration@details@Concurrency@@MEAAPEAXI@Z 00000001800535d8 f i libconcrt:TaskCollection.obj
 0001:00052630       ??_G_RefCounter@details@Concurrency@@UEAAPEAXI@Z 0000000180053630 f i libconcrt:TaskCollection.obj
 0001:00052630       ??_E_RefCounter@details@Concurrency@@UEAAPEAXI@Z 0000000180053630 f i libconcrt:TaskCollection.obj
 0001:0005265c       ?Find@?$Hash@PEAV_TaskCollection@details@Concurrency@@PEAV123@@details@Concurrency@@QEAAPEAUListNode@123@AEBQEAV_TaskCollection@23@PEAPEAV523@@Z 000000018005365c f i libconcrt:TaskCollection.obj
 0001:000526d8       ?GetArbitraryAlias@ContextBase@details@Concurrency@@QEAAPEAV_TaskCollection@23@PEAV423@@Z 00000001800536d8 f i libconcrt:TaskCollection.obj
 0001:00052760       ?Insert@?$Hash@PEAV_TaskCollection@details@Concurrency@@PEAV123@@details@Concurrency@@QEAAPEAUListNode@123@AEBQEAV_TaskCollection@23@0@Z 0000000180053760 f i libconcrt:TaskCollection.obj
 0001:0005283c       ?_Abort@_TaskCollection@details@Concurrency@@AEAAX_N@Z 000000018005383c f   libconcrt:TaskCollection.obj
 0001:00052a08       ?_AbortiveSweep@_TaskCollection@details@Concurrency@@AEAAXPEAX@Z 0000000180053a08 f   libconcrt:TaskCollection.obj
 0001:00052a64       ?_Alias@_TaskCollection@details@Concurrency@@AEAAPEAV123@XZ 0000000180053a64 f   libconcrt:TaskCollection.obj
 0001:00052b60       ?_Cancel@_StructuredTaskCollection@details@Concurrency@@QEAAXXZ 0000000180053b60 f   libconcrt:TaskCollection.obj
 0001:00052bec       ?_Cancel@_TaskCollection@details@Concurrency@@AEAAX_NPEAV123@@Z 0000000180053bec f   libconcrt:TaskCollection.obj
 0001:00052ce0       ?_CancelDirectAliases@_TaskCollection@details@Concurrency@@AEAAX_NPEAV123@@Z 0000000180053ce0 f   libconcrt:TaskCollection.obj
 0001:00052d18       ?_CancelFromArbitraryThread@_TaskCollection@details@Concurrency@@AEAAX_N@Z 0000000180053d18 f   libconcrt:TaskCollection.obj
 0001:00052dd8       ?_CancelStolenContexts@_TaskCollection@details@Concurrency@@AEAAX_N0@Z 0000000180053dd8 f   libconcrt:TaskCollection.obj
 0001:00052e8c       ?_CollectionMatchPredicate@_TaskCollection@details@Concurrency@@CA_NPEAV_UnrealizedChore@23@PEAX@Z 0000000180053e8c f   libconcrt:TaskCollection.obj
 0001:00052e98       ?_CountUp@_StructuredTaskCollection@details@Concurrency@@AEAAXXZ 0000000180053e98 f   libconcrt:TaskCollection.obj
 0001:00052ec8       ?_DeregisterCallback@_CancellationTokenState@details@Concurrency@@QEAAXPEAV_CancellationTokenRegistration@23@@Z 0000000180053ec8 f i libconcrt:TaskCollection.obj
 0001:00053034       ?_Destroy@_RefCounter@details@Concurrency@@MEAAXXZ 0000000180054034 f i libconcrt:TaskCollection.obj
 0001:0005306c       ?_Exec@CancellationTokenRegistration_TaskProc@details@Concurrency@@MEAAXXZ 000000018005406c f i libconcrt:TaskCollection.obj
 0001:000530a0       ?_FullAliasWait@_TaskCollection@details@Concurrency@@AEAAXPEAV123@@Z 00000001800540a0 f   libconcrt:TaskCollection.obj
 0001:00053238       ?_GetStealTrackingList@_TaskCollection@details@Concurrency@@AEBAPEAXXZ 0000000180054238 f   libconcrt:TaskCollection.obj
 0001:00053240       ?_Initialize@_StructuredTaskCollection@details@Concurrency@@AEAAXXZ 0000000180054240 f   libconcrt:TaskCollection.obj
 0001:00053298       ?_Initialize@_TaskCollection@details@Concurrency@@AEAAXXZ 0000000180054298 f   libconcrt:TaskCollection.obj
 0001:000532d4       ?_Invoke@_CancellationTokenRegistration@details@Concurrency@@AEAAXXZ 00000001800542d4 f i libconcrt:TaskCollection.obj
 0001:000533a0       ?_IsMarkedForAbnormalExit@_TaskCollection@details@Concurrency@@QEBA_NXZ 00000001800543a0 f   libconcrt:TaskCollection.obj
 0001:000533b0       ?_IsStaleAlias@_TaskCollection@details@Concurrency@@AEBA_NXZ 00000001800543b0 f   libconcrt:TaskCollection.obj
 0001:000533bc       ?_NotifyCompletedChoreAndFree@_TaskCollection@details@Concurrency@@AEAAXPEAV_UnrealizedChore@23@@Z 00000001800543bc f   libconcrt:TaskCollection.obj
 0001:00053424       ?_OriginalCollection@_TaskCollection@details@Concurrency@@QEBAPEAV123@XZ 0000000180054424 f   libconcrt:TaskCollection.obj
 0001:0005342c       ?_RegisterCallback@_CancellationTokenState@details@Concurrency@@QEAAPEAV_CancellationTokenRegistration@23@P6AXPEAX@Z0H@Z 000000018005442c f i libconcrt:TaskCollection.obj
 0001:000534a4       ?_RegisterCallback@_CancellationTokenState@details@Concurrency@@QEAAXPEAV_CancellationTokenRegistration@23@@Z 00000001800544a4 f i libconcrt:TaskCollection.obj
 0001:00053570       ?_ReleaseAlias@_TaskCollection@details@Concurrency@@AEAAXXZ 0000000180054570 f   libconcrt:TaskCollection.obj
 0001:000535ac       ?_Reset@_TaskCollection@details@Concurrency@@AEAAXPEAV123@@Z 00000001800545ac f   libconcrt:TaskCollection.obj
 0001:000536dc       ?_SetCancelState@_TaskCollection@details@Concurrency@@AEAA_NJ@Z 00000001800546dc f   libconcrt:TaskCollection.obj
 0001:00053708       ?_SweepAbortedChore@_TaskCollection@details@Concurrency@@CA_NPEAV_UnrealizedChore@23@PEAX@Z 0000000180054708 f   libconcrt:TaskCollection.obj
 0001:00053728       ?_TaskCleanup@_TaskCollection@details@Concurrency@@AEAA_N_N@Z 0000000180054728 f   libconcrt:TaskCollection.obj
 0001:000537c4       ??0SchedulerPolicy@Concurrency@@QEAA@AEBV01@@Z 00000001800547c4 f   libconcrt:SchedulerPolicyBase.obj
 0001:0005380c       ??0SchedulerPolicy@Concurrency@@QEAA@_KZZ 000000018005480c f   libconcrt:SchedulerPolicyBase.obj
 0001:00053840       ??0invalid_scheduler_policy_key@Concurrency@@QEAA@AEBV01@@Z 0000000180054840 f i libconcrt:SchedulerPolicyBase.obj
 0001:00053880       ??0invalid_scheduler_policy_thread_specification@Concurrency@@QEAA@AEBV01@@Z 0000000180054880 f i libconcrt:SchedulerPolicyBase.obj
 0001:000538c0       ??0invalid_scheduler_policy_value@Concurrency@@QEAA@AEBV01@@Z 00000001800548c0 f i libconcrt:SchedulerPolicyBase.obj
 0001:00053900       ??1SchedulerPolicy@Concurrency@@QEAA@XZ 0000000180054900 f   libconcrt:SchedulerPolicyBase.obj
 0001:00053910       ??4SchedulerPolicy@Concurrency@@QEAAAEAV01@AEBV01@@Z 0000000180054910 f   libconcrt:SchedulerPolicyBase.obj
 0001:00053934       ?GetPolicyValue@SchedulerPolicy@Concurrency@@QEBAIW4PolicyElementKey@2@@Z 0000000180054934 f   libconcrt:SchedulerPolicyBase.obj
 0001:00053974       ?_Initialize@SchedulerPolicy@Concurrency@@AEAAX_KPEAPEAD@Z 0000000180054974 f   libconcrt:SchedulerPolicyBase.obj
 0001:00053ab4       ?_ResolvePolicyValues@SchedulerPolicy@Concurrency@@AEAAXXZ 0000000180054ab4 f   libconcrt:SchedulerPolicyBase.obj
 0001:00053b20       ?_StringFromPolicyKey@SchedulerPolicy@Concurrency@@CAPEADI@Z 0000000180054b20 f   libconcrt:SchedulerPolicyBase.obj
 0001:00053b38       ?_ValidPolicyValue@SchedulerPolicy@Concurrency@@CA_NW4PolicyElementKey@2@I@Z 0000000180054b38 f   libconcrt:SchedulerPolicyBase.obj
 0001:00053bec       ?_ValidateConcRTPolicy@SchedulerPolicy@Concurrency@@QEBAXXZ 0000000180054bec f   libconcrt:SchedulerPolicyBase.obj
 0001:00053c58       ??0ExecutionResource@details@Concurrency@@QEAA@PEAVSchedulerProxy@12@PEAUSchedulerNode@12@I@Z 0000000180054c58 f   libconcrt:ExecutionResource.obj
 0001:00053cbc       ??0ExecutionResource@details@Concurrency@@QEAA@PEAVSchedulerProxy@12@PEAV012@@Z 0000000180054cbc f   libconcrt:ExecutionResource.obj
 0001:00053d0c       ?CurrentSubscriptionLevel@ExecutionResource@details@Concurrency@@UEBAIXZ 0000000180054d0c f   libconcrt:ExecutionResource.obj
 0001:00053d20       ?DecrementUseCounts@ExecutionResource@details@Concurrency@@QEAAXXZ 0000000180054d20 f   libconcrt:ExecutionResource.obj
 0001:00053dac       ?GetExecutionResourceId@ExecutionResource@details@Concurrency@@UEBAIXZ 0000000180054dac f i libconcrt:ExecutionResource.obj
 0001:00053db0       ?GetNodeId@ExecutionResource@details@Concurrency@@UEBAIXZ 0000000180054db0 f i libconcrt:ExecutionResource.obj
 0001:00053db4       ?IncrementUseCounts@ExecutionResource@details@Concurrency@@QEAAXXZ 0000000180054db4 f   libconcrt:ExecutionResource.obj
 0001:00053eac       ?Remove@ExecutionResource@details@Concurrency@@UEAAXPEAUIScheduler@3@@Z 0000000180054eac f   libconcrt:ExecutionResource.obj
 0001:00053f4c       ?ResetCurrent@ExecutionResource@details@Concurrency@@QEAAXXZ 0000000180054f4c f   libconcrt:ExecutionResource.obj
 0001:00053f78       ?SetAsCurrent@ExecutionResource@details@Concurrency@@QEAAXXZ 0000000180054f78 f   libconcrt:ExecutionResource.obj
 0001:00053fb4       ??0HillClimbing@details@Concurrency@@QEAA@IIPEAVSchedulerProxy@12@@Z 0000000180054fb4 f   libconcrt:HillClimbing.obj
 0001:00054028       ?CalculateThroughputSlope@HillClimbing@details@Concurrency@@AEAANHH@Z 0000000180055028 f   libconcrt:HillClimbing.obj
 0001:000541a0       ?CoefficientOfVariationMean@MeasuredHistory@HillClimbing@details@Concurrency@@QEAANXZ 00000001800551a0 f   libconcrt:HillClimbing.obj
 0001:00054200       ?EstablishControlSetting@HillClimbing@details@Concurrency@@AEAAXI@Z 0000000180055200 f   libconcrt:HillClimbing.obj
 0001:00054260       ?FlushHistories@HillClimbing@details@Concurrency@@AEAAXXZ 0000000180055260 f   libconcrt:HillClimbing.obj
 0001:000542a8       ?IsStableHistory@HillClimbing@details@Concurrency@@AEAA_NPEAVMeasuredHistory@123@@Z 00000001800552a8 f   libconcrt:HillClimbing.obj
 0001:000542e0       ?RecommendControlSetting@HillClimbing@details@Concurrency@@AEAAII@Z 00000001800552e0 f   libconcrt:HillClimbing.obj
 0001:00054400       ?Update@HillClimbing@details@Concurrency@@QEAAIIIII@Z 0000000180055400 f   libconcrt:HillClimbing.obj
 0001:00054670       ?Variance@MeasuredHistory@HillClimbing@details@Concurrency@@QEAANXZ 0000000180055670 f   libconcrt:HillClimbing.obj
 0001:000546c4       ??0SchedulerProxy@details@Concurrency@@QEAA@PEAUIScheduler@2@PEAVResourceManager@12@AEBVSchedulerPolicy@2@@Z 00000001800556c4 f   libconcrt:SchedulerProxy.obj
 0001:0005495c       ??1SchedulerProxy@details@Concurrency@@IEAA@XZ 000000018005595c f   libconcrt:SchedulerProxy.obj
 0001:000549a8       ??1_Scoped_lock@_ReentrantBlockingLock@details@Concurrency@@QEAA@XZ 00000001800559a8 f i libconcrt:SchedulerProxy.obj
 0001:000549c4       ?AddCore@SchedulerProxy@details@Concurrency@@QEAAXPEAUSchedulerNode@23@I_N@Z 00000001800559c4 f   libconcrt:SchedulerProxy.obj
 0001:00054ad0       ?AddExecutionResource@SchedulerProxy@details@Concurrency@@QEAAXPEAVExecutionResource@23@@Z 0000000180055ad0 f   libconcrt:SchedulerProxy.obj
 0001:00054b70       ?AddThreadSubscription@SchedulerProxy@details@Concurrency@@QEAAXPEAVExecutionResource@23@@Z 0000000180055b70 f   libconcrt:SchedulerProxy.obj
 0001:00054bc8       ?AddVirtualProcessorRoots@SchedulerProxy@details@Concurrency@@QEAAXPEAPEAUIVirtualProcessorRoot@3@I@Z 0000000180055bc8 f   libconcrt:SchedulerProxy.obj
 0001:00054ce0       ?AdjustAllocationIncrease@SchedulerProxy@details@Concurrency@@QEBAII@Z 0000000180055ce0 f   libconcrt:SchedulerProxy.obj
 0001:00054d68       ?BindContext@SchedulerProxy@details@Concurrency@@UEAAXPEAUIExecutionContext@3@@Z 0000000180055d68 f   libconcrt:SchedulerProxy.obj
 0001:00054de8       ?Cleanup@SchedulerProxy@details@Concurrency@@IEAAXXZ 0000000180055de8 f   libconcrt:SchedulerProxy.obj
 0001:00054ebc       ?CreateExternalThreadResource@SchedulerProxy@details@Concurrency@@QEAAPEAVExecutionResource@23@PEAUSchedulerNode@23@I@Z 0000000180055ebc f   libconcrt:SchedulerProxy.obj
 0001:00054f2c       ?CreateOversubscriber@SchedulerProxy@details@Concurrency@@UEAAPEAUIVirtualProcessorRoot@3@PEAUIExecutionResource@3@@Z 0000000180055f2c f   libconcrt:SchedulerProxy.obj
 0001:00055058       ?CreateVirtualProcessorRoot@SchedulerProxy@details@Concurrency@@UEAAPEAVVirtualProcessorRoot@23@PEAUSchedulerNode@23@I@Z 0000000180056058 f   libconcrt:SchedulerProxy.obj
 0001:000550b4       ?DecrementCoreSubscription@SchedulerProxy@details@Concurrency@@QEAAXPEAVExecutionResource@23@@Z 00000001800560b4 f   libconcrt:SchedulerProxy.obj
 0001:0005510c       ?DecrementFixedCoreCount@SchedulerProxy@details@Concurrency@@QEAAXII_N@Z 000000018005610c f   libconcrt:SchedulerProxy.obj
 0001:000551b8       ?DeleteThis@SchedulerProxy@details@Concurrency@@MEAAXXZ 00000001800561b8 f i libconcrt:SchedulerProxy.obj
 0001:000551e0       ?DestroyExecutionResource@SchedulerProxy@details@Concurrency@@QEAAXPEAVExecutionResource@23@@Z 00000001800561e0 f   libconcrt:SchedulerProxy.obj
 0001:000552dc       ?DestroyVirtualProcessorRoot@SchedulerProxy@details@Concurrency@@QEAAXPEAVVirtualProcessorRoot@23@@Z 00000001800562dc f   libconcrt:SchedulerProxy.obj
 0001:000553b8       ?FinalShutdown@SchedulerProxy@details@Concurrency@@UEAAXXZ 00000001800563b8 f   libconcrt:SchedulerProxy.obj
 0001:000553ec       ?GetCurrentThreadExecutionResource@SchedulerProxy@details@Concurrency@@QEAAPEAVExecutionResource@23@XZ 00000001800563ec f   libconcrt:SchedulerProxy.obj
 0001:00055418       ?GetNewThreadProxy@SchedulerProxy@details@Concurrency@@UEAAPEAUIThreadProxy@3@PEAUIExecutionContext@3@@Z 0000000180056418 f   libconcrt:SchedulerProxy.obj
 0001:000554a8       ?GetResourceForNewSubscription@SchedulerProxy@details@Concurrency@@QEAAPEAVExecutionResource@23@PEAV423@@Z 00000001800564a8 f   libconcrt:SchedulerProxy.obj
 0001:00055514       ?GrantAllocation@SchedulerProxy@details@Concurrency@@QEAAPEAVExecutionResource@23@I_N0@Z 0000000180056514 f   libconcrt:SchedulerProxy.obj
 0001:00055900       ?IncrementCoreSubscription@SchedulerProxy@details@Concurrency@@QEAAXPEAVExecutionResource@23@@Z 0000000180056900 f   libconcrt:SchedulerProxy.obj
 0001:0005595c       ?IncrementFixedCoreCount@SchedulerProxy@details@Concurrency@@QEAAXII_N@Z 000000018005695c f   libconcrt:SchedulerProxy.obj
 0001:00055a08       ?ReferenceCurrentThreadExecutionResource@SchedulerProxy@details@Concurrency@@QEAAPEAVExecutionResource@23@XZ 0000000180056a08 f   libconcrt:SchedulerProxy.obj
 0001:00055ae8       ?RemoveCore@SchedulerProxy@details@Concurrency@@QEAAXPEAUSchedulerNode@23@I@Z 0000000180056ae8 f   libconcrt:SchedulerProxy.obj
 0001:00055bfc       ?RemoveThreadSubscription@SchedulerProxy@details@Concurrency@@QEAAXPEAVExecutionResource@23@@Z 0000000180056bfc f   libconcrt:SchedulerProxy.obj
 0001:00055c58       ?RequestInitialVirtualProcessors@SchedulerProxy@details@Concurrency@@UEAAPEAUIExecutionResource@3@_N@Z 0000000180056c58 f   libconcrt:SchedulerProxy.obj
 0001:00055c68       ?SendCoreNotification@SchedulerProxy@details@Concurrency@@QEAAXPEAUSchedulerCore@23@_N@Z 0000000180056c68 f   libconcrt:SchedulerProxy.obj
 0001:00055d84       ?Shutdown@SchedulerProxy@details@Concurrency@@UEAAXXZ 0000000180056d84 f   libconcrt:SchedulerProxy.obj
 0001:00055d90       ?SubscribeCurrentThread@SchedulerProxy@details@Concurrency@@UEAAPEAUIExecutionResource@3@XZ 0000000180056d90 f   libconcrt:SchedulerProxy.obj
 0001:00055d9c       ?ToggleBorrowedState@SchedulerProxy@details@Concurrency@@QEAAXPEAUSchedulerNode@23@I@Z 0000000180056d9c f   libconcrt:SchedulerProxy.obj
 0001:00055ddc       ?UnbindContext@SchedulerProxy@details@Concurrency@@UEAAXPEAUIExecutionContext@3@@Z 0000000180056ddc f   libconcrt:SchedulerProxy.obj
 0001:00055e38       ?Initialize@UMS@details@Concurrency@@SAXXZ 0000000180056e38 f   libconcrt:UMSWrapper.obj
 0001:000564ec       ?Initialize@WinRT@details@Concurrency@@SAXXZ 00000001800574ec f   libconcrt:WinRTWrapper.obj
 0001:00056624       ?RoInitialize@WinRT@details@Concurrency@@SAJW4RO_INIT_TYPE@@@Z 0000000180057624 f   libconcrt:WinRTWrapper.obj
 0001:0005665c       ?RoUninitialize@WinRT@details@Concurrency@@SAXXZ 000000018005765c f   libconcrt:WinRTWrapper.obj
 0001:00056684       ??0ThreadProxyFactoryManager@details@Concurrency@@QEAA@XZ 0000000180057684 f   libconcrt:ThreadProxyFactoryManager.obj
 0001:000566c0       ??1ThreadProxyFactoryManager@details@Concurrency@@QEAA@XZ 00000001800576c0 f   libconcrt:ThreadProxyFactoryManager.obj
 0001:0005673c       ??_E?$ThreadProxyFactory@VFreeThreadProxy@details@Concurrency@@@details@Concurrency@@UEAAPEAXI@Z 000000018005773c f i libconcrt:ThreadProxyFactoryManager.obj
 0001:0005673c       ??_G?$ThreadProxyFactory@VFreeThreadProxy@details@Concurrency@@@details@Concurrency@@UEAAPEAXI@Z 000000018005773c f i libconcrt:ThreadProxyFactoryManager.obj
 0001:00056768       ??_EFreeThreadProxy@details@Concurrency@@UEAAPEAXI@Z 0000000180057768 f i libconcrt:ThreadProxyFactoryManager.obj
 0001:00056768       ??_GFreeThreadProxy@details@Concurrency@@UEAAPEAXI@Z 0000000180057768 f i libconcrt:ThreadProxyFactoryManager.obj
 0001:000567a8       ??_EFreeThreadProxyFactory@details@Concurrency@@UEAAPEAXI@Z 00000001800577a8 f i libconcrt:ThreadProxyFactoryManager.obj
 0001:000567a8       ??_GFreeThreadProxyFactory@details@Concurrency@@UEAAPEAXI@Z 00000001800577a8 f i libconcrt:ThreadProxyFactoryManager.obj
 0001:000567d4       ??_GIThreadProxyFactory@details@Concurrency@@UEAAPEAXI@Z 00000001800577d4 f i libconcrt:ThreadProxyFactoryManager.obj
 0001:000567d4       ??_EIThreadProxyFactory@details@Concurrency@@UEAAPEAXI@Z 00000001800577d4 f i libconcrt:ThreadProxyFactoryManager.obj
 0001:00056800       ?Create@FreeThreadProxyFactory@details@Concurrency@@EEAAPEAVFreeThreadProxy@23@I@Z 0000000180057800 f i libconcrt:ThreadProxyFactoryManager.obj
 0001:00056880       ?CreateFactory@FreeThreadProxyFactory@details@Concurrency@@SAPEAV123@PEAVThreadProxyFactoryManager@23@@Z 0000000180057880 f i libconcrt:ThreadProxyFactoryManager.obj
 0001:00056918       ?GetExecutionResourceTls@?$ThreadProxyFactory@VFreeThreadProxy@details@Concurrency@@@details@Concurrency@@UEAAKXZ 0000000180057918 f i libconcrt:ThreadProxyFactoryManager.obj
 0001:0005691c       ?GetFreeThreadProxyFactory@ThreadProxyFactoryManager@details@Concurrency@@QEAAPEAVFreeThreadProxyFactory@23@XZ 000000018005791c f   libconcrt:ThreadProxyFactoryManager.obj
 0001:00056974       ?Prepare@?$ThreadProxyFactory@VFreeThreadProxy@details@Concurrency@@@details@Concurrency@@MEAAXPEAVFreeThreadProxy@23@H@Z 0000000180057974 f i libconcrt:ThreadProxyFactoryManager.obj
 0001:00056994       ?ReclaimProxy@?$ThreadProxyFactory@VFreeThreadProxy@details@Concurrency@@@details@Concurrency@@UEAAXPEAUIThreadProxy@3@@Z 0000000180057994 f i libconcrt:ThreadProxyFactoryManager.obj
 0001:00056a2c       ?ReclaimProxy@FreeThreadProxyFactory@details@Concurrency@@UEAAXPEAUIThreadProxy@3@@Z 0000000180057a2c f i libconcrt:ThreadProxyFactoryManager.obj
 0001:00056b20       ?Reference@FreeThreadProxyFactory@details@Concurrency@@UEAAJXZ 0000000180057b20 f i libconcrt:ThreadProxyFactoryManager.obj
 0001:00056b30       ?Release@FreeThreadProxyFactory@details@Concurrency@@UEAAJXZ 0000000180057b30 f i libconcrt:ThreadProxyFactoryManager.obj
 0001:00056b80       ?RequestProxy@?$ThreadProxyFactory@VFreeThreadProxy@details@Concurrency@@@details@Concurrency@@UEAAPEAUIThreadProxy@3@IH@Z 0000000180057b80 f i libconcrt:ThreadProxyFactoryManager.obj
 0001:00056c3c       ?Retire@FreeThreadProxyFactory@details@Concurrency@@EEAAXPEAVFreeThreadProxy@23@@Z 0000000180057c3c f i libconcrt:ThreadProxyFactoryManager.obj
 0001:00056c44       ?RetireThreadProxies@?$ThreadProxyFactory@VFreeThreadProxy@details@Concurrency@@@details@Concurrency@@QEAAXXZ 0000000180057c44 f i libconcrt:ThreadProxyFactoryManager.obj
 0001:00056cd0       ?ShutdownFactory@FreeThreadProxyFactory@details@Concurrency@@UEAAXXZ 0000000180057cd0 f i libconcrt:ThreadProxyFactoryManager.obj
 0001:00056d08       ?YieldToSystem@FreeThreadProxy@details@Concurrency@@UEAAXXZ 0000000180057d08 f i libconcrt:ThreadProxyFactoryManager.obj
 0001:00056d10       ??0Etw@details@Concurrency@@AEAA@XZ 0000000180057d10 f   libconcrt:Trace.obj
 0001:00056e18       ?ControlCallback@details@Concurrency@@YAKW4WMIDPREQUESTCODE@@PEAXPEAK1@Z 0000000180057e18 f   libconcrt:Trace.obj
 0001:00056ee0       ?GetEnableFlags@Etw@details@Concurrency@@QEAAK_K@Z 0000000180057ee0 f   libconcrt:Trace.obj
 0001:00056f30       ?GetEnableLevel@Etw@details@Concurrency@@QEAAE_K@Z 0000000180057f30 f   libconcrt:Trace.obj
 0001:00056f80       ?GetLoggerHandle@Etw@details@Concurrency@@QEAA_KPEAX@Z 0000000180057f80 f   libconcrt:Trace.obj
 0001:00056fd4       ?RegisterGuids@Etw@details@Concurrency@@QEAAKP6AKW4WMIDPREQUESTCODE@@PEAXPEAK1@ZPEBU_GUID@@KPEAU_TRACE_GUID_REGISTRATION@@PEA_K@Z 0000000180057fd4 f   libconcrt:Trace.obj
 0001:00057060       ?Trace@Etw@details@Concurrency@@QEAAK_KPEAU_EVENT_TRACE_HEADER@@@Z 0000000180058060 f   libconcrt:Trace.obj
 0001:000570b8       ?UnregisterGuids@Etw@details@Concurrency@@QEAAK_K@Z 00000001800580b8 f   libconcrt:Trace.obj
 0001:00057100       ?_RegisterConcRTEventTracing@details@Concurrency@@YAXXZ 0000000180058100 f   libconcrt:Trace.obj
 0001:000571c0       ?_UnregisterConcRTEventTracing@details@Concurrency@@YAXXZ 00000001800581c0 f   libconcrt:Trace.obj
 0001:0005720c       ??0?$StructuredWorkStealingQueue@VInternalContextBase@details@Concurrency@@V_HyperNonReentrantLock@23@@details@Concurrency@@QEAA@PEAV_HyperNonReentrantLock@12@@Z 000000018005820c f i libconcrt:VirtualProcessor.obj
 0001:0005720c       ??0?$StructuredWorkStealingQueue@V_UnrealizedChore@details@Concurrency@@V_CriticalNonReentrantLock@23@@details@Concurrency@@QEAA@PEAV_CriticalNonReentrantLock@12@@Z 000000018005820c f i libconcrt:WorkQueue.obj
 0001:00057288       ??0VirtualProcessor@details@Concurrency@@QEAA@XZ 0000000180058288 f   libconcrt:VirtualProcessor.obj
 0001:000572fc       ??1VirtualProcessor@details@Concurrency@@UEAA@XZ 00000001800582fc f   libconcrt:VirtualProcessor.obj
 0001:00057358       ??_GVirtualProcessor@details@Concurrency@@UEAAPEAXI@Z 0000000180058358 f i libconcrt:VirtualProcessor.obj
 0001:00057358       ??_EVirtualProcessor@details@Concurrency@@UEAAPEAXI@Z 0000000180058358 f i libconcrt:VirtualProcessor.obj
 0001:0005738c       ?Affinitize@VirtualProcessor@details@Concurrency@@MEAAXPEAVInternalContextBase@23@@Z 000000018005838c f   libconcrt:VirtualProcessor.obj
 0001:000573f8       ?CheckAffinityNotification@VirtualProcessor@details@Concurrency@@QEAA_NXZ 00000001800583f8 f   libconcrt:VirtualProcessor.obj
 0001:00057454       ?CheckForDeletion@?$ListArray@VVirtualProcessor@details@Concurrency@@@details@Concurrency@@AEAAXXZ 0000000180058454 f i libconcrt:VirtualProcessor.obj
 0001:000574d4       ?CheckForDeletionBridge@?$ListArray@VVirtualProcessor@details@Concurrency@@@details@Concurrency@@CAXPEAV123@@Z 00000001800584d4 f i libconcrt:VirtualProcessor.obj
 0001:000574dc       ?ClaimExclusiveOwnership@VirtualProcessor@details@Concurrency@@QEAA_NAEAVClaimTicket@123@K_N@Z 00000001800584dc f   libconcrt:VirtualProcessor.obj
 0001:00057574       ?Deactivate@VirtualProcessor@details@Concurrency@@QEAA_NPEAUIExecutionContext@3@@Z 0000000180058574 f   libconcrt:VirtualProcessor.obj
 0001:000575b8       ?EnsureAllTasksVisible@VirtualProcessor@details@Concurrency@@QEAAXPEAUIExecutionContext@3@@Z 00000001800585b8 f   libconcrt:VirtualProcessor.obj
 0001:000575fc       ?ExerciseClaim@VirtualProcessor@details@Concurrency@@AEAA_NW4AvailabilityType@123@PEAVScheduleGroupSegmentBase@23@PEAVInternalContextBase@23@@Z 00000001800585fc f   libconcrt:VirtualProcessor.obj
 0001:000576d8       ?ExerciseWith@ClaimTicket@VirtualProcessor@details@Concurrency@@QEAA_NPEAVInternalContextBase@34@@Z 00000001800586d8 f   libconcrt:VirtualProcessor.obj
 0001:0005770c       ?GetCurrentSubAllocator@VirtualProcessor@details@Concurrency@@QEAAPEAVSubAllocator@23@XZ 000000018005870c f   libconcrt:VirtualProcessor.obj
 0001:00057738       ?Initialize@VirtualProcessor@details@Concurrency@@MEAAXPEAVSchedulingNode@23@PEAUIVirtualProcessorRoot@3@@Z 0000000180058738 f   libconcrt:VirtualProcessor.obj
 0001:000579a8       ?InterlockedClear@ReferenceCountedQuickBitSet@details@Concurrency@@QEAAII@Z 00000001800589a8 f i libconcrt:VirtualProcessor.obj
 0001:00057a44       ?InterlockedSet@ReferenceCountedQuickBitSet@details@Concurrency@@QEAAII@Z 0000000180058a44 f i libconcrt:VirtualProcessor.obj
 0001:00057ae0       ?MakeAvailable@VirtualProcessor@details@Concurrency@@IEAAXW4AvailabilityType@123@_N@Z 0000000180058ae0 f   libconcrt:VirtualProcessor.obj
 0001:00057b60       ?MarkForRetirement@VirtualProcessor@details@Concurrency@@AEAAXXZ 0000000180058b60 f   libconcrt:VirtualProcessor.obj
 0001:00057be4       ?Oversubscribe@VirtualProcessor@details@Concurrency@@EEAAPEAV123@XZ 0000000180058be4 f   libconcrt:VirtualProcessor.obj
 0001:00057c40       ?Pop@?$StructuredWorkStealingQueue@VInternalContextBase@details@Concurrency@@V_HyperNonReentrantLock@23@@details@Concurrency@@QEAAPEAVInternalContextBase@23@XZ 0000000180058c40 f i libconcrt:VirtualProcessor.obj
 0001:00057cec       ?Remove@?$ListArray@VVirtualProcessor@details@Concurrency@@@details@Concurrency@@QEAA_NPEAVVirtualProcessor@23@H_N@Z 0000000180058cec f i libconcrt:VirtualProcessor.obj
 0001:00057e2c       ?Retire@VirtualProcessor@details@Concurrency@@MEAAXXZ 0000000180058e2c f   libconcrt:VirtualProcessor.obj
 0001:00058030       ?SafePoint@VirtualProcessor@details@Concurrency@@QEAA_NXZ 0000000180059030 f   libconcrt:VirtualProcessor.obj
 0001:00058044       ?StartupWorkerContext@VirtualProcessor@details@Concurrency@@EEAA_NPEAVScheduleGroupSegmentBase@23@PEAVInternalContextBase@23@@Z 0000000180059044 f   libconcrt:VirtualProcessor.obj
 0001:0005813c       ?StaticDelete@Segment@?$Mailbox@VInternalContextBase@details@Concurrency@@@details@Concurrency@@SAXPEAU1234@@Z 000000018005913c f i libconcrt:VirtualProcessor.obj
 0001:0005813c       ?StaticDelete@Segment@?$Mailbox@V_UnrealizedChore@details@Concurrency@@@details@Concurrency@@SAXPEAU1234@@Z 000000018005913c f i libconcrt:ContextBase.obj
 0001:00058170       ?ThrowVirtualProcessorEvent@VirtualProcessor@details@Concurrency@@CAXW4ConcRT_EventType@3@EKK@Z 0000000180059170 f   libconcrt:VirtualProcessor.obj
 0001:0005820c       ?ToInternalContext@VirtualProcessor@details@Concurrency@@MEAAPEAVInternalContextBase@23@PEAUIExecutionContext@3@@Z 000000018005920c f   libconcrt:VirtualProcessor.obj
 0001:00058210       ?UpdateWorkState@VirtualProcessor@details@Concurrency@@QEAAX_N0@Z 0000000180059210 f   libconcrt:VirtualProcessor.obj
 0001:000582c4       ?Wipe@QuickBitSet@details@Concurrency@@QEAAXXZ 00000001800592c4 f i libconcrt:VirtualProcessor.obj
 0001:00058358       ??0SchedulingNode@details@Concurrency@@QEAA@AEBVQuickBitSet@12@KPEAVSchedulingRing@12@@Z 0000000180059358 f   libconcrt:SchedulingNode.obj
 0001:0005841c       ??1?$ListArray@VVirtualProcessor@details@Concurrency@@@details@Concurrency@@QEAA@XZ 000000018005941c f i libconcrt:SchedulingNode.obj
 0001:00058568       ??1SchedulingNode@details@Concurrency@@QEAA@XZ 0000000180059568 f   libconcrt:SchedulingNode.obj
 0001:000585a4       ?Add@?$ListArray@VVirtualProcessor@details@Concurrency@@@details@Concurrency@@QEAAHPEAVVirtualProcessor@23@@Z 00000001800595a4 f i libconcrt:SchedulingNode.obj
 0001:00058724       ?AddVirtualProcessor@SchedulingNode@details@Concurrency@@QEAAPEAVVirtualProcessor@23@PEAUIVirtualProcessorRoot@3@_N@Z 0000000180059724 f   libconcrt:SchedulingNode.obj
 0001:00058894       ?FindMatchingVirtualProcessor@SchedulingNode@details@Concurrency@@QEAAPEAVVirtualProcessor@23@PEAUIVirtualProcessorRoot@3@@Z 0000000180059894 f   libconcrt:SchedulingNode.obj
 0001:0005892c       ?FindVirtualProcessorByLocation@SchedulingNode@details@Concurrency@@QEAAPEAVVirtualProcessor@23@PEBVlocation@3@@Z 000000018005992c f   libconcrt:SchedulingNode.obj
 0001:000589e8       ?FoundAvailableVirtualProcessor@SchedulingNode@details@Concurrency@@AEAA_NAEAVClaimTicket@VirtualProcessor@23@Vlocation@3@K@Z 00000001800599e8 f   libconcrt:SchedulingNode.obj
 0001:00058ae8       ?GetLocation@SchedulingNode@details@Concurrency@@QEAA?AVlocation@3@XZ 0000000180059ae8 f   libconcrt:SchedulingNode.obj
 0001:00058b4c       ??0AllocatorBucket@details@Concurrency@@QEAA@XZ 0000000180059b4c f   libconcrt:SubAllocator.obj
 0001:00058b6c       ??1AllocatorBucket@details@Concurrency@@QEAA@XZ 0000000180059b6c f   libconcrt:SubAllocator.obj
 0001:00058ba8       ?Alloc@AllocatorBucket@details@Concurrency@@QEAAPEATAllocationEntry@23@XZ 0000000180059ba8 f   libconcrt:SubAllocator.obj
 0001:00058bd0       ?Alloc@SubAllocator@details@Concurrency@@QEAAPEAX_K@Z 0000000180059bd0 f   libconcrt:SubAllocator.obj
 0001:00058c44       ?Free@AllocatorBucket@details@Concurrency@@QEAA_NPEATAllocationEntry@23@@Z 0000000180059c44 f   libconcrt:SubAllocator.obj
 0001:00058c74       ?Free@SubAllocator@details@Concurrency@@QEAAXPEAX@Z 0000000180059c74 f   libconcrt:SubAllocator.obj
 0001:00058cc0       ?GetBucketIndex@SubAllocator@details@Concurrency@@SAH_K@Z 0000000180059cc0 f   libconcrt:SubAllocator.obj
 0001:00058d14       ?StaticAlloc@SubAllocator@details@Concurrency@@SAPEAX_K@Z 0000000180059d14 f   libconcrt:SubAllocator.obj
 0001:00058d64       ??0InternalContextBase@details@Concurrency@@QEAA@PEAVSchedulerBase@12@@Z 0000000180059d64 f   libconcrt:InternalContextBase.obj
 0001:00058df4       ??0context_self_unblock@Concurrency@@QEAA@AEBV01@@Z 0000000180059df4 f i libconcrt:InternalContextBase.obj
 0001:00058e34       ??0context_unblock_unbalanced@Concurrency@@QEAA@AEBV01@@Z 0000000180059e34 f i libconcrt:InternalContextBase.obj
 0001:00058e74       ??0invalid_oversubscribe_operation@Concurrency@@QEAA@AEBV01@@Z 0000000180059e74 f i libconcrt:InternalContextBase.obj
 0001:00058eb4       ??0nested_scheduler_missing_detach@Concurrency@@QEAA@AEBV01@@Z 0000000180059eb4 f i libconcrt:InternalContextBase.obj
 0001:00058ef4       ??1InternalContextBase@details@Concurrency@@UEAA@XZ 0000000180059ef4 f   libconcrt:InternalContextBase.obj
 0001:00058f30       ??1ScopedCriticalRegion@ContextBase@details@Concurrency@@QEAA@XZ 0000000180059f30 f i libconcrt:InternalContextBase.obj
 0001:00058f4c       ??_EInternalContextBase@details@Concurrency@@WBA@EAAPEAXI@Z 0000000180059f4c f i libconcrt:InternalContextBase.obj
 0001:00058f58       ??_GInternalContextBase@details@Concurrency@@UEAAPEAXI@Z 0000000180059f58 f i libconcrt:InternalContextBase.obj
 0001:00058f58       ??_EInternalContextBase@details@Concurrency@@UEAAPEAXI@Z 0000000180059f58 f i libconcrt:InternalContextBase.obj
 0001:00058f8c       ?AddToRunnables@InternalContextBase@details@Concurrency@@MEAAXVlocation@3@@Z 0000000180059f8c f   libconcrt:InternalContextBase.obj
 0001:000591d4       ?Alloc@InternalContextBase@details@Concurrency@@UEAAPEAX_K@Z 000000018005a1d4 f   libconcrt:InternalContextBase.obj
 0001:00059244       ?Block@InternalContextBase@details@Concurrency@@UEAAXXZ 000000018005a244 f   libconcrt:InternalContextBase.obj
 0001:0005941c       ?Cancel@InternalContextBase@details@Concurrency@@MEAAXXZ 000000018005a41c f   libconcrt:InternalContextBase.obj
 0001:000594b0       ?Cleanup@InternalContextBase@details@Concurrency@@IEAAXXZ 000000018005a4b0 f   libconcrt:InternalContextBase.obj
 0001:000594d4       ?CleanupDispatchedContextOnCancel@InternalContextBase@details@Concurrency@@IEAAXXZ 000000018005a4d4 f   libconcrt:InternalContextBase.obj
 0001:000594fc       ?Dispatch@InternalContextBase@details@Concurrency@@UEAAXPEAUDispatchState@3@@Z 000000018005a4fc f   libconcrt:InternalContextBase.obj
 0001:000596cc       ?ExecuteChoreInline@InternalContextBase@details@Concurrency@@IEAAXPEAVWorkItem@23@@Z 000000018005a6cc f   libconcrt:InternalContextBase.obj
 0001:00059724       ?ExecutedAssociatedChore@InternalContextBase@details@Concurrency@@IEAA_NXZ 000000018005a724 f   libconcrt:InternalContextBase.obj
 0001:000597c4       ?FindWorkForBlockingOrNesting@InternalContextBase@details@Concurrency@@AEAAPEAV123@AEA_N0@Z 000000018005a7c4 f   libconcrt:InternalContextBase.obj
 0001:00059964       ?Free@InternalContextBase@details@Concurrency@@UEAAXPEAX@Z 000000018005a964 f   libconcrt:InternalContextBase.obj
 0001:000599a4       ?GetAndResetOversubscribedVProc@InternalContextBase@details@Concurrency@@QEAAPEAVVirtualProcessor@23@PEAV423@@Z 000000018005a9a4 f   libconcrt:InternalContextBase.obj
 0001:000599cc       ?Id@ScheduleGroupBase@details@Concurrency@@UEBAIXZ 000000018005a9cc f   libconcrt:SchedulerBase.obj
 0001:000599cc       ?GetId@InternalContextBase@details@Concurrency@@UEBAIXZ 000000018005a9cc f   libconcrt:InternalContextBase.obj
 0001:000599d0       ?GetId@InternalContextBase@details@Concurrency@@WBA@EBAIXZ 000000018005a9d0 f i libconcrt:InternalContextBase.obj
 0001:000599dc       ?GetProxy@InternalContextBase@details@Concurrency@@UEAAPEAUIThreadProxy@3@XZ 000000018005a9dc f   libconcrt:InternalContextBase.obj
 0001:000599e4       ?GetScheduler@InternalContextBase@details@Concurrency@@UEAAPEAUIScheduler@3@XZ 000000018005a9e4 f   libconcrt:InternalContextBase.obj
 0001:00059a14       ?GetVirtualProcessorId@InternalContextBase@details@Concurrency@@UEBAIXZ 000000018005aa14 f   libconcrt:InternalContextBase.obj
 0001:00059a5c       ?GrowAndPush@?$StructuredWorkStealingQueue@VInternalContextBase@details@Concurrency@@V_HyperNonReentrantLock@23@@details@Concurrency@@AEAAXPEAVInternalContextBase@23@VSlot@?$Mailbox@VInternalContextBase@details@Concurrency@@@23@@Z 000000018005aa5c f i libconcrt:InternalContextBase.obj
 0001:00059c1c       ?IsSynchronouslyBlocked@InternalContextBase@details@Concurrency@@UEBA_NXZ 000000018005ac1c f i libconcrt:InternalContextBase.obj
 0001:00059c28       ?IsVirtualProcessorRetired@InternalContextBase@details@Concurrency@@IEAA_NXZ 000000018005ac28 f   libconcrt:InternalContextBase.obj
 0001:00059c98       ?LeaveScheduler@InternalContextBase@details@Concurrency@@AEAAXXZ 000000018005ac98 f   libconcrt:InternalContextBase.obj
 0001:00059ddc       ?Oversubscribe@InternalContextBase@details@Concurrency@@UEAAX_N@Z 000000018005addc f   libconcrt:InternalContextBase.obj
 0001:00059e90       ?PrepareForUse@InternalContextBase@details@Concurrency@@QEAAXPEAVScheduleGroupSegmentBase@23@PEAU_Chore@23@_N@Z 000000018005ae90 f   libconcrt:InternalContextBase.obj
 0001:00059ee4       ?PrepareToRun@InternalContextBase@details@Concurrency@@MEAAXPEAVVirtualProcessor@23@@Z 000000018005aee4 f i libconcrt:InternalContextBase.obj
 0001:00059ef4       ?ReclaimVirtualProcessor@InternalContextBase@details@Concurrency@@IEAAXXZ 000000018005aef4 f   libconcrt:InternalContextBase.obj
 0001:00059f68       ?RejoinScheduler@InternalContextBase@details@Concurrency@@AEAAXXZ 000000018005af68 f   libconcrt:InternalContextBase.obj
 0001:00059fa0       ?RemoveFromUse@InternalContextBase@details@Concurrency@@QEAAXXZ 000000018005afa0 f   libconcrt:InternalContextBase.obj
 0001:00059fd4       ?SetProxy@InternalContextBase@details@Concurrency@@UEAAXPEAUIThreadProxy@3@@Z 000000018005afd4 f   libconcrt:InternalContextBase.obj
 0001:0005a00c       ?SpinUntilBlocked@InternalContextBase@details@Concurrency@@IEAAXXZ 000000018005b00c f   libconcrt:InternalContextBase.obj
 0001:0005a044       ?SpinYield@InternalContextBase@details@Concurrency@@UEAAXXZ 000000018005b044 f   libconcrt:InternalContextBase.obj
 0001:0005a170       ?SwapScheduleGroupSegment@InternalContextBase@details@Concurrency@@QEAAXPEAVScheduleGroupSegmentBase@23@_N@Z 000000018005b170 f   libconcrt:InternalContextBase.obj
 0001:0005a230       ?SwitchOut@InternalContextBase@details@Concurrency@@IEAA_NW4ReasonForSwitch@123@@Z 000000018005b230 f   libconcrt:InternalContextBase.obj
 0001:0005a3c8       ?SwitchTo@InternalContextBase@details@Concurrency@@IEAAXPEAV123@W4ReasonForSwitch@123@@Z 000000018005b3c8 f   libconcrt:InternalContextBase.obj
 0001:0005a5bc       ?Unblock@InternalContextBase@details@Concurrency@@UEAAXXZ 000000018005b5bc f   libconcrt:InternalContextBase.obj
 0001:0005a714       ?WaitForWork@InternalContextBase@details@Concurrency@@IEAAXXZ 000000018005b714 f   libconcrt:InternalContextBase.obj
 0001:0005a874       ?WorkWasFound@InternalContextBase@details@Concurrency@@IEAA_NPEAVWorkItem@23@@Z 000000018005b874 f   libconcrt:InternalContextBase.obj
 0001:0005a920       ?Yield@InternalContextBase@details@Concurrency@@UEAAXXZ 000000018005b920 f   libconcrt:InternalContextBase.obj
 0001:0005ab48       ??0SchedulingRing@details@Concurrency@@QEAA@PEAVSchedulerBase@12@H@Z 000000018005bb48 f   libconcrt:SchedulingRing.obj
 0001:0005ac08       ??1?$ListArray@VScheduleGroupSegmentBase@details@Concurrency@@@details@Concurrency@@QEAA@XZ 000000018005bc08 f i libconcrt:SchedulingRing.obj
 0001:0005ad54       ??1SchedulingRing@details@Concurrency@@QEAA@XZ 000000018005bd54 f   libconcrt:SchedulingRing.obj
 0001:0005ad7c       ?Activate@SchedulingRing@details@Concurrency@@QEAAXXZ 000000018005bd7c f   libconcrt:SchedulingRing.obj
 0001:0005ad88       ?CheckForDeletion@?$ListArray@VScheduleGroupSegmentBase@details@Concurrency@@@details@Concurrency@@AEAAXXZ 000000018005bd88 f i libconcrt:SchedulingRing.obj
 0001:0005ae08       ?CheckForDeletionBridge@?$ListArray@VScheduleGroupSegmentBase@details@Concurrency@@@details@Concurrency@@CAXPEAV123@@Z 000000018005be08 f i libconcrt:SchedulingRing.obj
 0001:0005ae10       ?Remove@?$ListArray@VScheduleGroupSegmentBase@details@Concurrency@@@details@Concurrency@@QEAA_NPEAVScheduleGroupSegmentBase@23@H_N@Z 000000018005be10 f i libconcrt:SchedulingRing.obj
 0001:0005af50       ?RemoveScheduleGroupSegment@SchedulingRing@details@Concurrency@@AEAAXPEAVScheduleGroupSegmentBase@23@@Z 000000018005bf50 f   libconcrt:SchedulingRing.obj
 0001:0005af80       ??0?$Mailbox@V_UnrealizedChore@details@Concurrency@@@details@Concurrency@@QEAA@PEAVSchedulerBase@12@AEBVQuickBitSet@12@_NI@Z 000000018005bf80 f i libconcrt:ScheduleGroupBase.obj
 0001:0005b044       ??0ScheduleGroupBase@details@Concurrency@@QEAA@PEAVSchedulerBase@12@PEAVlocation@2@@Z 000000018005c044 f   libconcrt:ScheduleGroupBase.obj
 0001:0005b0d8       ??0ScheduleGroupSegmentBase@details@Concurrency@@IEAA@PEAVScheduleGroupBase@12@PEAVSchedulingRing@12@PEAVlocation@2@@Z 000000018005c0d8 f   libconcrt:ScheduleGroupBase.obj
 0001:0005b1e4       ??0Segment@?$Mailbox@V_UnrealizedChore@details@Concurrency@@@details@Concurrency@@QEAA@PEAVSchedulerBase@23@AEBVQuickBitSet@23@II@Z 000000018005c1e4 f i libconcrt:ScheduleGroupBase.obj
 0001:0005b26c       ??1?$ListArray@U?$ListArrayInlineLink@VWorkQueue@details@Concurrency@@@details@Concurrency@@@details@Concurrency@@QEAA@XZ 000000018005c26c f i libconcrt:ScheduleGroupBase.obj
 0001:0005b360       ??1?$ListArray@VWorkQueue@details@Concurrency@@@details@Concurrency@@QEAA@XZ 000000018005c360 f i libconcrt:ScheduleGroupBase.obj
 0001:0005b51c       ??1?$Mailbox@V_UnrealizedChore@details@Concurrency@@@details@Concurrency@@QEAA@XZ 000000018005c51c f i libconcrt:ScheduleGroupBase.obj
 0001:0005b590       ??1ScheduleGroupSegmentBase@details@Concurrency@@UEAA@XZ 000000018005c590 f   libconcrt:ScheduleGroupBase.obj
 0001:0005b614       ??_GCacheLocalScheduleGroup@details@Concurrency@@UEAAPEAXI@Z 000000018005c614 f i libconcrt:SchedulerBase.obj
 0001:0005b614       ??_ECacheLocalScheduleGroup@details@Concurrency@@UEAAPEAXI@Z 000000018005c614 f i libconcrt:SchedulerBase.obj
 0001:0005b614       ??_GScheduleGroupBase@details@Concurrency@@UEAAPEAXI@Z 000000018005c614 f i libconcrt:ScheduleGroupBase.obj
 0001:0005b614       ??_EScheduleGroupBase@details@Concurrency@@UEAAPEAXI@Z 000000018005c614 f i libconcrt:ScheduleGroupBase.obj
 0001:0005b640       ??_EScheduleGroupSegmentBase@details@Concurrency@@UEAAPEAXI@Z 000000018005c640 f i libconcrt:ScheduleGroupBase.obj
 0001:0005b640       ??_GScheduleGroupSegmentBase@details@Concurrency@@UEAAPEAXI@Z 000000018005c640 f i libconcrt:ScheduleGroupBase.obj
 0001:0005b674       ?Add@?$ListArray@VExternalStatistics@details@Concurrency@@@details@Concurrency@@QEAAHPEAVExternalStatistics@23@@Z 000000018005c674 f i libconcrt:ScheduleGroupBase.obj
 0001:0005b674       ?Add@?$ListArray@U?$ListArrayInlineLink@VWorkQueue@details@Concurrency@@@details@Concurrency@@@details@Concurrency@@QEAAHPEAU?$ListArrayInlineLink@VWorkQueue@details@Concurrency@@@23@@Z 000000018005c674 f i libconcrt:ScheduleGroupBase.obj
 0001:0005b7f0       ?Add@?$ListArray@VScheduleGroupSegmentBase@details@Concurrency@@@details@Concurrency@@QEAAHPEAVScheduleGroupSegmentBase@23@@Z 000000018005c7f0 f i libconcrt:ScheduleGroupBase.obj
 0001:0005b970       ?AddRunnableContext@ScheduleGroupSegmentBase@details@Concurrency@@IEAAXPEAVInternalContextBase@23@Vlocation@3@@Z 000000018005c970 f   libconcrt:ScheduleGroupBase.obj
 0001:0005bac4       ?CheckForDeletionBridge@?$ListArray@U?$ListArrayInlineLink@VWorkQueue@details@Concurrency@@@details@Concurrency@@@details@Concurrency@@CAXPEAV123@@Z 000000018005cac4 f i libconcrt:ScheduleGroupBase.obj
 0001:0005bb18       ?CreateSegment@ScheduleGroupBase@details@Concurrency@@IEAAPEAVScheduleGroupSegmentBase@23@PEAVlocation@3@PEAVSchedulingRing@23@@Z 000000018005cb18 f   libconcrt:ScheduleGroupBase.obj
 0001:0005bc0c       ?DemandInitialize@?$Mailbox@V_UnrealizedChore@details@Concurrency@@@details@Concurrency@@AEAAXXZ 000000018005cc0c f i libconcrt:ScheduleGroupBase.obj
 0001:0005bc9c       ?Dequeue@?$Mailbox@V_UnrealizedChore@details@Concurrency@@@details@Concurrency@@QEAA_NPEAPEAV_UnrealizedChore@23@@Z 000000018005cc9c f i libconcrt:ScheduleGroupBase.obj
 0001:0005bd8c       ?DetachActiveWorkQueue@ScheduleGroupSegmentBase@details@Concurrency@@IEAAXPEAVWorkQueue@23@@Z 000000018005cd8c f   libconcrt:ScheduleGroupBase.obj
 0001:0005be1c       ?FindSegment@ScheduleGroupBase@details@Concurrency@@MEAAPEAVScheduleGroupSegmentBase@23@PEAVlocation@3@PEAVSchedulingRing@23@@Z 000000018005ce1c f   libconcrt:ScheduleGroupBase.obj
 0001:0005be94       ?GetDetachedWorkQueue@ScheduleGroupSegmentBase@details@Concurrency@@IEAAPEAVWorkQueue@23@XZ 000000018005ce94 f   libconcrt:ScheduleGroupBase.obj
 0001:0005bfa4       ?GetInternalContext@ScheduleGroupSegmentBase@details@Concurrency@@IEAAPEAVInternalContextBase@23@PEAU_Chore@23@_N@Z 000000018005cfa4 f   libconcrt:ScheduleGroupBase.obj
 0001:0005c004       ?GetRealizedChore@ScheduleGroupSegmentBase@details@Concurrency@@IEAAPEAVRealizedChore@23@XZ 000000018005d004 f   libconcrt:ScheduleGroupBase.obj
 0001:0005c070       ?HasRealizedChores@ScheduleGroupSegmentBase@details@Concurrency@@IEBA_NXZ 000000018005d070 f   libconcrt:ScheduleGroupBase.obj
 0001:0005c07c       ?HasUnrealizedChores@ScheduleGroupSegmentBase@details@Concurrency@@IEAA_NXZ 000000018005d07c f   libconcrt:ScheduleGroupBase.obj
 0001:0005c090       ?Initialize@ScheduleGroupBase@details@Concurrency@@QEAAXPEAVlocation@3@@Z 000000018005d090 f   libconcrt:ScheduleGroupBase.obj
 0001:0005c0cc       ?Initialize@ScheduleGroupSegmentBase@details@Concurrency@@IEAAXPEAVScheduleGroupBase@23@PEAVSchedulingRing@23@PEAVlocation@3@@Z 000000018005d0cc f   libconcrt:ScheduleGroupBase.obj
 0001:0005c1ec       ?LocateMailboxSegment@?$Mailbox@V_UnrealizedChore@details@Concurrency@@@details@Concurrency@@AEAAPEAUSegment@123@I_N@Z 000000018005d1ec f i libconcrt:ScheduleGroupBase.obj
 0001:0005c2a4       ?LocateSegment@ScheduleGroupBase@details@Concurrency@@UEAAPEAVScheduleGroupSegmentBase@23@PEAVlocation@3@_N@Z 000000018005d2a4 f   libconcrt:ScheduleGroupBase.obj
 0001:0005c428       ?LocateUnrealizedChores@ScheduleGroupSegmentBase@details@Concurrency@@IEAAPEAVWorkQueue@23@XZ 000000018005d428 f   libconcrt:ScheduleGroupBase.obj
 0001:0005c514       ?RedetachQueue@ScheduleGroupSegmentBase@details@Concurrency@@QEAAXPEAVWorkQueue@23@@Z 000000018005d514 f   libconcrt:ScheduleGroupBase.obj
 0001:0005c524       ?ReleaseInternalContext@ScheduleGroupSegmentBase@details@Concurrency@@IEAAXPEAVInternalContextBase@23@@Z 000000018005d524 f   libconcrt:ScheduleGroupBase.obj
 0001:0005c55c       ?Remove@?$ListArray@U?$ListArrayInlineLink@VWorkQueue@details@Concurrency@@@details@Concurrency@@@details@Concurrency@@QEAA_NPEAU?$ListArrayInlineLink@VWorkQueue@details@Concurrency@@@23@H_N@Z 000000018005d55c f i libconcrt:ScheduleGroupBase.obj
 0001:0005c69c       ?Remove@ScheduleGroupSegmentBase@details@Concurrency@@IEAAXXZ 000000018005d69c f   libconcrt:ScheduleGroupBase.obj
 0001:0005c6d0       ?RemoveSegments@ScheduleGroupBase@details@Concurrency@@MEAAXXZ 000000018005d6d0 f   libconcrt:ScheduleGroupBase.obj
 0001:0005c72c       ?RetireDetachedQueue@ScheduleGroupSegmentBase@details@Concurrency@@QEAAXPEAVWorkQueue@23@@Z 000000018005d72c f   libconcrt:ScheduleGroupBase.obj
 0001:0005c794       ?SafelyDeleteDetachedWorkQueue@ScheduleGroupSegmentBase@details@Concurrency@@IEAA_NPEAVWorkQueue@23@@Z 000000018005d794 f   libconcrt:ScheduleGroupBase.obj
 0001:0005c7f4       ?ScheduleTask@ScheduleGroupBase@details@Concurrency@@QEAAXP6AXPEAX@Z0AEAVlocation@3@@Z 000000018005d7f4 f   libconcrt:ScheduleGroupBase.obj
 0001:0005c85c       ?ScheduleTask@ScheduleGroupBase@details@Concurrency@@UEAAXP6AXPEAX@Z0@Z 000000018005d85c f   libconcrt:ScheduleGroupBase.obj
 0001:0005c8c4       ?ScheduleTask@ScheduleGroupSegmentBase@details@Concurrency@@QEAAXP6AXPEAX@Z0@Z 000000018005d8c4 f   libconcrt:ScheduleGroupBase.obj
 0001:0005ca74       ?StealUnrealizedChore@ScheduleGroupSegmentBase@details@Concurrency@@IEAAPEAV_UnrealizedChore@23@_N@Z 000000018005da74 f   libconcrt:ScheduleGroupBase.obj
 0001:0005cdc0       ??IQuickBitSet@details@Concurrency@@QEBA?AV012@AEBV012@@Z 000000018005ddc0 f i libconcrt:CacheLocalScheduleGroup.obj
 0001:0005ce64       ?AddToRunnablesCollection@CacheLocalScheduleGroupSegment@details@Concurrency@@EEAAXPEAVInternalContextBase@23@@Z 000000018005de64 f   libconcrt:CacheLocalScheduleGroup.obj
 0001:0005cec8       ?Enqueue@?$Mailbox@V_UnrealizedChore@details@Concurrency@@@details@Concurrency@@QEAA?AVSlot@123@PEAV_UnrealizedChore@23@@Z 000000018005dec8 f i libconcrt:CacheLocalScheduleGroup.obj
 0001:0005cf58       ?MailChore@CacheLocalScheduleGroup@details@Concurrency@@UEAA?AVSlot@?$Mailbox@V_UnrealizedChore@details@Concurrency@@@23@PEAV_UnrealizedChore@23@PEAVlocation@3@PEAPEAVScheduleGroupSegmentBase@23@@Z 000000018005df58 f   libconcrt:CacheLocalScheduleGroup.obj
 0001:0005cfcc       ?NotifyAffinitizedWork@CacheLocalScheduleGroupSegment@details@Concurrency@@UEAAXXZ 000000018005dfcc f   libconcrt:CacheLocalScheduleGroup.obj
 0001:0005d030       ?PostAffinityMessage@SchedulerBase@details@Concurrency@@QEAAXAEBVQuickBitSet@23@@Z 000000018005e030 f i libconcrt:CacheLocalScheduleGroup.obj
 0001:0005d0d8       ?AddToRunnablesCollection@FairScheduleGroupSegment@details@Concurrency@@EEAAXPEAVInternalContextBase@23@@Z 000000018005e0d8 f   libconcrt:FairScheduleGroup.obj
 0001:0005d13c       ?FindSegment@FairScheduleGroup@details@Concurrency@@MEAAPEAVScheduleGroupSegmentBase@23@PEAVlocation@3@PEAVSchedulingRing@23@@Z 000000018005e13c f   libconcrt:FairScheduleGroup.obj
 0001:0005d170       ?LocateSegment@FairScheduleGroup@details@Concurrency@@UEAAPEAVScheduleGroupSegmentBase@23@PEAVlocation@3@_N@Z 000000018005e170 f   libconcrt:FairScheduleGroup.obj
 0001:0005d210       ??0ExternalContextBase@details@Concurrency@@QEAA@PEAVSchedulerBase@12@_N@Z 000000018005e210 f   libconcrt:ExternalContextBase.obj
 0001:0005d2cc       ??_GExternalContextBase@details@Concurrency@@UEAAPEAXI@Z 000000018005e2cc f i libconcrt:ExternalContextBase.obj
 0001:0005d2cc       ??_EExternalContextBase@details@Concurrency@@UEAAPEAXI@Z 000000018005e2cc f i libconcrt:ExternalContextBase.obj
 0001:0005d320       ?Alloc@ExternalContextBase@details@Concurrency@@UEAAPEAX_K@Z 000000018005e320 f   libconcrt:ExternalContextBase.obj
 0001:0005d370       ?Block@ExternalContextBase@details@Concurrency@@UEAAXXZ 000000018005e370 f   libconcrt:ExternalContextBase.obj
 0001:0005d404       ?Cleanup@ExternalContextBase@details@Concurrency@@AEAAXXZ 000000018005e404 f   libconcrt:ExternalContextBase.obj
 0001:0005d46c       ?Free@ExternalContextBase@details@Concurrency@@UEAAXPEAX@Z 000000018005e46c f   libconcrt:ExternalContextBase.obj
 0001:0005d4bc       ?ImplicitDetachHandler@ExternalContextBase@details@Concurrency@@CAXPEAU_TP_CALLBACK_INSTANCE@@PEAXPEAU_TP_WAIT@@K@Z 000000018005e4bc f   libconcrt:ExternalContextBase.obj
 0001:0005d4f0       ?ImplicitDetachHandlerXP@ExternalContextBase@details@Concurrency@@CAXPEAXE@Z 000000018005e4f0 f   libconcrt:ExternalContextBase.obj
 0001:0005d51c       ?IsSynchronouslyBlocked@ExternalContextBase@details@Concurrency@@UEBA_NXZ 000000018005e51c f i libconcrt:ExternalContextBase.obj
 0001:0005d528       ?Oversubscribe@ExternalContextBase@details@Concurrency@@UEAAX_N@Z 000000018005e528 f   libconcrt:ExternalContextBase.obj
 0001:0005d564       ?PrepareForUse@ExternalContextBase@details@Concurrency@@QEAAX_N@Z 000000018005e564 f   libconcrt:ExternalContextBase.obj
 0001:0005d694       ?RemoveFromUse@ExternalContextBase@details@Concurrency@@QEAAXXZ 000000018005e694 f   libconcrt:ExternalContextBase.obj
 0001:0005d6c4       ?SpinYield@ExternalContextBase@details@Concurrency@@UEAAXXZ 000000018005e6c4 f i libconcrt:ExternalContextBase.obj
 0001:0005d6f4       ?Unblock@ExternalContextBase@details@Concurrency@@UEAAXXZ 000000018005e6f4 f   libconcrt:ExternalContextBase.obj
 0001:0005d7d4       ?Yield@ExternalContextBase@details@Concurrency@@UEAAXXZ 000000018005e7d4 f   libconcrt:ExternalContextBase.obj
 0001:0005d83c       ??0ThreadScheduler@details@Concurrency@@QEAA@AEBVSchedulerPolicy@2@@Z 000000018005e83c f   libconcrt:ThreadScheduler.obj
 0001:0005d880       ??_EThreadInternalContext@details@Concurrency@@WBA@EAAPEAXI@Z 000000018005e880 f i libconcrt:ThreadScheduler.obj
 0001:0005d88c       ??_EThreadScheduler@details@Concurrency@@WBA@EAAPEAXI@Z 000000018005e88c f i libconcrt:ThreadScheduler.obj
 0001:0005d898       ??_EThreadInternalContext@details@Concurrency@@UEAAPEAXI@Z 000000018005e898 f i libconcrt:ThreadScheduler.obj
 0001:0005d898       ??_GThreadInternalContext@details@Concurrency@@UEAAPEAXI@Z 000000018005e898 f i libconcrt:ThreadScheduler.obj
 0001:0005d8e4       ??_GThreadScheduler@details@Concurrency@@UEAAPEAXI@Z 000000018005e8e4 f i libconcrt:ThreadScheduler.obj
 0001:0005d8e4       ??_EThreadScheduler@details@Concurrency@@UEAAPEAXI@Z 000000018005e8e4 f i libconcrt:ThreadScheduler.obj
 0001:0005d930       ?AddVirtualProcessors@ThreadScheduler@details@Concurrency@@UEAAXPEAPEAUIVirtualProcessorRoot@3@I@Z 000000018005e930 f i libconcrt:ThreadScheduler.obj
 0001:0005d93c       ?Create@ThreadScheduler@details@Concurrency@@SAPEAV123@AEBVSchedulerPolicy@3@@Z 000000018005e93c f   libconcrt:ThreadScheduler.obj
 0001:0005d978       ?CreateInternalContext@ThreadScheduler@details@Concurrency@@MEAAPEAVInternalContextBase@23@XZ 000000018005e978 f   libconcrt:ThreadScheduler.obj
 0001:0005d9e4       ?CreateVirtualProcessor@ThreadScheduler@details@Concurrency@@UEAAPEAVVirtualProcessor@23@PEAVSchedulingNode@23@PEAUIVirtualProcessorRoot@3@@Z 000000018005e9e4 f   libconcrt:ThreadScheduler.obj
 0001:0005da30       DllMain                    000000018005ea30 f i LIBCMT:dll_dllmain_stub.obj
 0001:0005da30       _get_startup_argv_mode     000000018005ea30 f i LIBCMT:argv_mode.obj
 0001:0005da30       ?GetContextKind@ThreadInternalContext@details@Concurrency@@UEBA?AW4ContextKind@ContextBase@23@XZ 000000018005ea30 f i libconcrt:ThreadScheduler.obj
 0001:0005da38       ?GetIScheduler@ThreadScheduler@details@Concurrency@@UEAAPEAUIScheduler@3@XZ 000000018005ea38 f i libconcrt:ThreadScheduler.obj
 0001:0005da40       ?GetId@ThreadScheduler@details@Concurrency@@UEBAIXZ 000000018005ea40 f i libconcrt:ThreadScheduler.obj
 0001:0005da70       ?GetPolicy@ThreadScheduler@details@Concurrency@@UEBA?AVSchedulerPolicy@3@XZ 000000018005ea70 f i libconcrt:ThreadScheduler.obj
 0001:0005da8c       ?GetPolicy@ThreadScheduler@details@Concurrency@@WBA@EBA?AVSchedulerPolicy@3@XZ 000000018005ea8c f i libconcrt:ThreadScheduler.obj
 0001:0005da98       ?RemoveVirtualProcessors@ThreadScheduler@details@Concurrency@@UEAAXPEAPEAUIVirtualProcessorRoot@3@I@Z 000000018005ea98 f i libconcrt:ThreadScheduler.obj
 0001:0005daa4       ?Statistics@ThreadScheduler@details@Concurrency@@UEAAXPEAI00@Z 000000018005eaa4 f i libconcrt:ThreadScheduler.obj
 0001:0005dab0       ?OneShotStaticConstruction@UMSThreadScheduler@details@Concurrency@@SAXXZ 000000018005eab0 f   libconcrt:UMSThreadScheduler.obj
 0001:0005dafc       ?OneShotStaticDestruction@UMSThreadScheduler@details@Concurrency@@SAXXZ 000000018005eafc f   libconcrt:UMSThreadScheduler.obj
 0001:0005db18       ??0exception_ptr@std@@QEAA@AEBV01@@Z 000000018005eb18 f i libconcrt:TaskCollectionBase.obj
 0001:0005db3c       ?_FinishCancelState@_TaskCollectionBase@details@Concurrency@@IEAAX_K@Z 000000018005eb3c f   libconcrt:TaskCollectionBase.obj
 0001:0005db74       ?_GetTokenState@_TaskCollectionBase@details@Concurrency@@QEAAPEAV_CancellationTokenState@23@PEAPEAV_CancellationTokenRegistration@23@@Z 000000018005eb74 f   libconcrt:TaskCollectionBase.obj
 0001:0005dba0       ?_MarkCancellation@_TaskCollectionBase@details@Concurrency@@IEAA_NXZ 000000018005eba0 f   libconcrt:TaskCollectionBase.obj
 0001:0005dbc0       ?_RaisedException@_TaskCollectionBase@details@Concurrency@@IEAAXXZ 000000018005ebc0 f   libconcrt:TaskCollectionBase.obj
 0001:0005dc5c       ?_RethrowException@_TaskCollectionBase@details@Concurrency@@IEAAXXZ 000000018005ec5c f   libconcrt:TaskCollectionBase.obj
 0001:0005dce4       ?_RethrowException@exception_ptr@std@@QEBAXXZ 000000018005ece4 f i libconcrt:TaskCollectionBase.obj
 0001:0005dcf0       ?rethrow_exception@std@@YAXVexception_ptr@1@@Z 000000018005ecf0 f i libconcrt:TaskCollectionBase.obj
 0001:0005dd08       ??0?$WorkStealingQueue@V_UnrealizedChore@details@Concurrency@@V_CriticalNonReentrantLock@23@@details@Concurrency@@QEAA@PEAV_CriticalNonReentrantLock@12@@Z 000000018005ed08 f i libconcrt:WorkQueue.obj
 0001:0005dd80       ??0WorkQueue@details@Concurrency@@QEAA@XZ 000000018005ed80 f   libconcrt:WorkQueue.obj
 0001:0005ddf8       ?DeferToAffineSearchers@Slot@?$Mailbox@V_UnrealizedChore@details@Concurrency@@@details@Concurrency@@QEBA_NXZ 000000018005edf8 f i libconcrt:WorkQueue.obj
 0001:0005ddf8       ?DeferToAffineSearchers@Slot@?$Mailbox@VInternalContextBase@details@Concurrency@@@details@Concurrency@@QEBA_NXZ 000000018005edf8 f i libconcrt:SchedulingNode.obj
 0001:0005de98       ?RedetachFromScheduleGroupAtSafePoint@WorkQueue@details@Concurrency@@QEAAXPEAVScheduleGroupSegmentBase@23@@Z 000000018005ee98 f   libconcrt:WorkQueue.obj
 0001:0005dec0       ?Reinitialize@WorkQueue@details@Concurrency@@AEAAXXZ 000000018005eec0 f   libconcrt:WorkQueue.obj
 0001:0005df2c       ?RetireAtSafePoint@WorkQueue@details@Concurrency@@QEAAXPEAVScheduleGroupSegmentBase@23@@Z 000000018005ef2c f   libconcrt:WorkQueue.obj
 0001:0005df54       ?StaticRedetachFromScheduleGroup@WorkQueue@details@Concurrency@@CAXPEAV123@@Z 000000018005ef54 f   libconcrt:WorkQueue.obj
 0001:0005df64       ?StaticRetire@WorkQueue@details@Concurrency@@CAXPEAV123@@Z 000000018005ef64 f   libconcrt:WorkQueue.obj
 0001:0005df74       ?Steal@WorkQueue@details@Concurrency@@QEAAPEAV_UnrealizedChore@23@_N@Z 000000018005ef74 f   libconcrt:WorkQueue.obj
 0001:0005dfd0       ?Sweep@?$WorkStealingQueue@V_UnrealizedChore@details@Concurrency@@V_CriticalNonReentrantLock@23@@details@Concurrency@@QEAAXP6A_NPEAV_UnrealizedChore@23@PEAX@Z12@Z 000000018005efd0 f i libconcrt:WorkQueue.obj
 0001:0005e0a8       ?SweepUnstructured@WorkQueue@details@Concurrency@@QEAAXP6A_NPEAV_UnrealizedChore@23@PEAX@Z12@Z 000000018005f0a8 f   libconcrt:WorkQueue.obj
 0001:0005e0b4       ?TryToSteal@WorkQueue@details@Concurrency@@QEAAPEAV_UnrealizedChore@23@_NAEA_N@Z 000000018005f0b4 f   libconcrt:WorkQueue.obj
 0001:0005e120       ?UnlockedSteal@?$StructuredWorkStealingQueue@V_UnrealizedChore@details@Concurrency@@V_CriticalNonReentrantLock@23@@details@Concurrency@@QEAAPEAV_UnrealizedChore@23@_N@Z 000000018005f120 f i libconcrt:WorkQueue.obj
 0001:0005e120       ?UnlockedSteal@?$StructuredWorkStealingQueue@VInternalContextBase@details@Concurrency@@V_HyperNonReentrantLock@23@@details@Concurrency@@QEAAPEAVInternalContextBase@23@_N@Z 000000018005f120 f i libconcrt:SchedulingNode.obj
 0001:0005e22c       ?UnlockedSteal@?$WorkStealingQueue@V_UnrealizedChore@details@Concurrency@@V_CriticalNonReentrantLock@23@@details@Concurrency@@QEAAPEAV_UnrealizedChore@23@_N0@Z 000000018005f22c f i libconcrt:WorkQueue.obj
 0001:0005e350       ?UnlockedSteal@WorkQueue@details@Concurrency@@AEAAPEAV_UnrealizedChore@23@_N@Z 000000018005f350 f   libconcrt:WorkQueue.obj
 0001:0005e474       ?_CancelViaToken@_UnrealizedChore@details@Concurrency@@CAXPEAVContextBase@23@@Z 000000018005f474 f   libconcrt:Chores.obj
 0001:0005e4a4       ?_InternalFree@_UnrealizedChore@details@Concurrency@@CAXPEAV123@@Z 000000018005f4a4 f   libconcrt:Chores.obj
 0001:0005e4d8       ?_PrepareSteal@_UnrealizedChore@details@Concurrency@@QEAAXPEAVContextBase@23@@Z 000000018005f4d8 f   libconcrt:Chores.obj
 0001:0005e4f0       ?_PrepareStealStructured@_UnrealizedChore@details@Concurrency@@AEAAXPEAVContextBase@23@@Z 000000018005f4f0 f   libconcrt:Chores.obj
 0001:0005e534       ?_PrepareStealUnstructured@_UnrealizedChore@details@Concurrency@@AEAAXPEAVContextBase@23@@Z 000000018005f534 f   libconcrt:Chores.obj
 0001:0005e5ec       ?_SetDetached@_UnrealizedChore@details@Concurrency@@QEAAX_N@Z 000000018005f5ec f   libconcrt:Chores.obj
 0001:0005e5f0       ?_StructuredChoreWrapper@_UnrealizedChore@details@Concurrency@@CAXPEAV123@@Z 000000018005f5f0 f   libconcrt:Chores.obj
 0001:0005e7b0       ??0VirtualProcessorRoot@details@Concurrency@@QEAA@PEAVSchedulerProxy@12@PEAUSchedulerNode@12@I@Z 000000018005f7b0 f   libconcrt:VirtualProcessorRoot.obj
 0001:0005e808       ??_EVirtualProcessorRoot@details@Concurrency@@UEAAPEAXI@Z 000000018005f808 f i libconcrt:VirtualProcessorRoot.obj
 0001:0005e808       ??_GVirtualProcessorRoot@details@Concurrency@@UEAAPEAXI@Z 000000018005f808 f i libconcrt:VirtualProcessorRoot.obj
 0001:0005e840       ?CurrentSubscriptionLevel@VirtualProcessorRoot@details@Concurrency@@UEBAIXZ 000000018005f840 f i libconcrt:VirtualProcessorRoot.obj
 0001:0005e84c       ?GetExecutionResourceId@VirtualProcessorRoot@details@Concurrency@@UEBAIXZ 000000018005f84c f i libconcrt:VirtualProcessorRoot.obj
 0001:0005e850       ?GetId@VirtualProcessorRoot@details@Concurrency@@UEBAIXZ 000000018005f850 f i libconcrt:VirtualProcessorRoot.obj
 0001:0005e854       ?GetNodeId@VirtualProcessorRoot@details@Concurrency@@UEBAIXZ 000000018005f854 f i libconcrt:VirtualProcessorRoot.obj
 0001:0005e858       ?Remove@VirtualProcessorRoot@details@Concurrency@@UEAAXPEAUIScheduler@3@@Z 000000018005f858 f   libconcrt:VirtualProcessorRoot.obj
 0001:0005e8c8       ?ResetSubscriptionLevel@VirtualProcessorRoot@details@Concurrency@@QEAAXXZ 000000018005f8c8 f   libconcrt:VirtualProcessorRoot.obj
 0001:0005e8ec       ?Subscribe@VirtualProcessorRoot@details@Concurrency@@QEAAXXZ 000000018005f8ec f   libconcrt:VirtualProcessorRoot.obj
 0001:0005e8fc       ?Unsubscribe@VirtualProcessorRoot@details@Concurrency@@QEAAXXZ 000000018005f8fc f   libconcrt:VirtualProcessorRoot.obj
 0001:0005e90c       ??0FreeVirtualProcessorRoot@details@Concurrency@@QEAA@PEAVSchedulerProxy@12@PEAUSchedulerNode@12@I@Z 000000018005f90c f   libconcrt:FreeVirtualProcessorRoot.obj
 0001:0005e944       ??_EFreeVirtualProcessorRoot@details@Concurrency@@UEAAPEAXI@Z 000000018005f944 f i libconcrt:FreeVirtualProcessorRoot.obj
 0001:0005e944       ??_GFreeVirtualProcessorRoot@details@Concurrency@@UEAAPEAXI@Z 000000018005f944 f i libconcrt:FreeVirtualProcessorRoot.obj
 0001:0005e97c       ?Activate@FreeVirtualProcessorRoot@details@Concurrency@@UEAAXPEAUIExecutionContext@3@@Z 000000018005f97c f   libconcrt:FreeVirtualProcessorRoot.obj
 0001:0005eabc       ?Affinitize@FreeVirtualProcessorRoot@details@Concurrency@@QEAAXPEAVFreeThreadProxy@23@@Z 000000018005fabc f   libconcrt:FreeVirtualProcessorRoot.obj
 0001:0005eb7c       ?Deactivate@FreeVirtualProcessorRoot@details@Concurrency@@UEAA_NPEAUIExecutionContext@3@@Z 000000018005fb7c f   libconcrt:FreeVirtualProcessorRoot.obj
 0001:0005eca8       ?DeleteThis@FreeVirtualProcessorRoot@details@Concurrency@@UEAAXXZ 000000018005fca8 f   libconcrt:FreeVirtualProcessorRoot.obj
 0001:0005ed50       ?EnsureAllTasksVisible@FreeVirtualProcessorRoot@details@Concurrency@@UEAAXPEAUIExecutionContext@3@@Z 000000018005fd50 f   libconcrt:FreeVirtualProcessorRoot.obj
 0001:0005ee10       ?ResetOnIdle@FreeVirtualProcessorRoot@details@Concurrency@@QEAAXW4SwitchingProxyState@3@@Z 000000018005fe10 f   libconcrt:FreeVirtualProcessorRoot.obj
 0001:0005eee0       ?AssociateExecutionContext@FreeThreadProxy@details@Concurrency@@QEAAXPEAUIExecutionContext@3@@Z 000000018005fee0 f   libconcrt:FreeThreadProxy.obj
 0001:0005ef24       ?Dispatch@FreeThreadProxy@details@Concurrency@@EEAAXXZ 000000018005ff24 f   libconcrt:FreeThreadProxy.obj
 0001:0005f004       ?ReturnIdleProxy@FreeThreadProxy@details@Concurrency@@QEAAXXZ 0000000180060004 f   libconcrt:FreeThreadProxy.obj
 0001:0005f04c       ?SwitchOut@FreeThreadProxy@details@Concurrency@@UEAAXW4SwitchingProxyState@3@@Z 000000018006004c f   libconcrt:FreeThreadProxy.obj
 0001:0005f0a4       ?SwitchTo@FreeThreadProxy@details@Concurrency@@UEAAXPEAUIExecutionContext@3@W4SwitchingProxyState@3@@Z 00000001800600a4 f   libconcrt:FreeThreadProxy.obj
 0001:0005f198       ??0ThreadProxy@details@Concurrency@@QEAA@PEAUIThreadProxyFactory@12@I@Z 0000000180060198 f   libconcrt:ThreadProxy.obj
 0001:0005f2a0       ??0scheduler_worker_creation_error@Concurrency@@QEAA@AEBV01@@Z 00000001800602a0 f i libconcrt:ThreadProxy.obj
 0001:0005f2f8       ??1ThreadProxy@details@Concurrency@@UEAA@XZ 00000001800602f8 f   libconcrt:ThreadProxy.obj
 0001:0005f354       ??_EThreadProxy@details@Concurrency@@UEAAPEAXI@Z 0000000180060354 f i libconcrt:ThreadProxy.obj
 0001:0005f354       ??_GThreadProxy@details@Concurrency@@UEAAPEAXI@Z 0000000180060354 f i libconcrt:ThreadProxy.obj
 0001:0005f388       ?Cancel@ThreadProxy@details@Concurrency@@QEAAXXZ 0000000180060388 f   libconcrt:ThreadProxy.obj
 0001:0005f39c       ?GetId@ThreadProxy@details@Concurrency@@UEBAIXZ 000000018006039c f   libconcrt:ThreadProxy.obj
 0001:0005f3a0       ?ResumeExecution@ThreadProxy@details@Concurrency@@QEAAXXZ 00000001800603a0 f   libconcrt:ThreadProxy.obj
 0001:0005f3ac       ?SetPriority@ThreadProxy@details@Concurrency@@QEAAXH@Z 00000001800603ac f   libconcrt:ThreadProxy.obj
 0001:0005f3b8       ?SpinUntilBlocked@ThreadProxy@details@Concurrency@@QEAAXXZ 00000001800603b8 f   libconcrt:ThreadProxy.obj
 0001:0005f3f0       ?SuspendExecution@ThreadProxy@details@Concurrency@@QEAAXXZ 00000001800603f0 f   libconcrt:ThreadProxy.obj
 0001:0005f41c       ?ThreadProxyMain@ThreadProxy@details@Concurrency@@CAKPEAX@Z 000000018006041c f   libconcrt:ThreadProxy.obj
 0001:0005f480       ??0location@Concurrency@@QEAA@W4_Type@01@IIPEAX@Z 0000000180060480 f   libconcrt:location.obj
 0001:0005f4a4       ?_FastNodeIntersects@location@Concurrency@@QEBA_NAEBV12@@Z 00000001800604a4 f   libconcrt:location.obj
 0001:0005f544       ?_FastVPIntersects@location@Concurrency@@QEBA_NAEBV12@@Z 0000000180060544 f   libconcrt:location.obj
 0001:0005f58c       ??0WorkItem@details@Concurrency@@QEAA@PEAVInternalContextBase@12@@Z 000000018006058c f   libconcrt:SearchAlgorithms.obj
 0001:0005f5c4       ?Bind@WorkItem@details@Concurrency@@QEAAPEAVInternalContextBase@23@XZ 00000001800605c4 f   libconcrt:SearchAlgorithms.obj
 0001:0005f620       ?BindTo@WorkItem@details@Concurrency@@QEAAXPEAVInternalContextBase@23@@Z 0000000180060620 f   libconcrt:SearchAlgorithms.obj
 0001:0005f668       ?GetLocalRunnable@WorkSearchContext@details@Concurrency@@AEAA_NPEAVWorkItem@23@PEAVVirtualProcessor@23@_N@Z 0000000180060668 f   libconcrt:SearchAlgorithms.obj
 0001:0005f724       ?GetPseudoRRAffineScheduleGroupSegment@SchedulingRing@details@Concurrency@@QEAAPEAVScheduleGroupSegmentBase@23@PEAH@Z 0000000180060724 f i libconcrt:SearchAlgorithms.obj
 0001:0005f790       ?GetPseudoRRNonAffineScheduleGroupSegment@SchedulingRing@details@Concurrency@@QEAAPEAVScheduleGroupSegmentBase@23@PEAH@Z 0000000180060790 f i libconcrt:SearchAlgorithms.obj
 0001:0005f800       ?GetRealizedChore@WorkSearchContext@details@Concurrency@@AEAA_NPEAVWorkItem@23@PEAVScheduleGroupSegmentBase@23@_N@Z 0000000180060800 f   libconcrt:SearchAlgorithms.obj
 0001:0005f86c       ?GetRealizedChoreWithinGroup@WorkSearchContext@details@Concurrency@@AEAA_NPEAVWorkItem@23@PEAVScheduleGroupSegmentBase@23@_NW4SearchAffinity@123@2@Z 000000018006086c f   libconcrt:SearchAlgorithms.obj
 0001:0005f93c       ?GetRunnableContext@WorkSearchContext@details@Concurrency@@AEAA_NPEAVWorkItem@23@PEAVScheduleGroupSegmentBase@23@@Z 000000018006093c f   libconcrt:SearchAlgorithms.obj
 0001:0005f99c       ?GetRunnableContextWithinGroup@WorkSearchContext@details@Concurrency@@AEAA_NPEAVWorkItem@23@PEAVScheduleGroupSegmentBase@23@W4SearchAffinity@123@_N@Z 000000018006099c f   libconcrt:SearchAlgorithms.obj
 0001:0005fa58       ?GetUnrealizedChore@WorkSearchContext@details@Concurrency@@AEAA_NPEAVWorkItem@23@PEAVScheduleGroupSegmentBase@23@_N2@Z 0000000180060a58 f   libconcrt:SearchAlgorithms.obj
 0001:0005fad0       ?GetUnrealizedChoreWithinGroup@WorkSearchContext@details@Concurrency@@AEAA_NPEAVWorkItem@23@PEAVScheduleGroupSegmentBase@23@_NW4SearchAffinity@123@2@Z 0000000180060ad0 f   libconcrt:SearchAlgorithms.obj
 0001:0005fba8       ?Invoke@WorkItem@details@Concurrency@@QEAAXXZ 0000000180060ba8 f   libconcrt:SearchAlgorithms.obj
 0001:0005fc04       ?PreSearch@WorkSearchContext@details@Concurrency@@AEAA_NPEAVWorkItem@23@@Z 0000000180060c04 f   libconcrt:SearchAlgorithms.obj
 0001:0005fc64       ?QuickSearch@WorkSearchContext@details@Concurrency@@AEAA_NPEAVScheduleGroupSegmentBase@23@PEAVWorkItem@23@_NK@Z 0000000180060c64 f   libconcrt:SearchAlgorithms.obj
 0001:0005fd08       ?QuickSearchYield@WorkSearchContext@details@Concurrency@@AEAA_NPEAVScheduleGroupSegmentBase@23@PEAVWorkItem@23@_NK@Z 0000000180060d08 f   libconcrt:SearchAlgorithms.obj
 0001:0005fd98       ?Reset@WorkSearchContext@details@Concurrency@@QEAAXPEAVVirtualProcessor@23@W4Algorithm@123@@Z 0000000180060d98 f   libconcrt:SearchAlgorithms.obj
 0001:0005fe0c       ?ResolveToken@WorkItem@details@Concurrency@@QEAA_NXZ 0000000180060e0c f   libconcrt:SearchAlgorithms.obj
 0001:0005fea0       ?SearchCacheLocal@WorkSearchContext@details@Concurrency@@AEAA_NPEAVWorkItem@23@PEAVScheduleGroupSegmentBase@23@_NK@Z 0000000180060ea0 f   libconcrt:SearchAlgorithms.obj
 0001:000602ac       ?SearchCacheLocalYield@WorkSearchContext@details@Concurrency@@AEAA_NPEAVWorkItem@23@PEAVScheduleGroupSegmentBase@23@_NK@Z 00000001800612ac f   libconcrt:SearchAlgorithms.obj
 0001:000605f4       ?SearchCacheLocal_Realized@WorkSearchContext@details@Concurrency@@AEAA_NPEAVWorkItem@23@PEAVSchedulingRing@23@PEAVScheduleGroupSegmentBase@23@_NW4SearchAffinity@123@K3@Z 00000001800615f4 f   libconcrt:SearchAlgorithms.obj
 0001:000607bc       ?SearchCacheLocal_Runnables@WorkSearchContext@details@Concurrency@@AEAA_NPEAVWorkItem@23@PEAVSchedulingRing@23@PEAVScheduleGroupSegmentBase@23@_NW4SearchAffinity@123@K3@Z 00000001800617bc f   libconcrt:SearchAlgorithms.obj
 0001:000609a0       ?SearchCacheLocal_Unrealized@WorkSearchContext@details@Concurrency@@AEAA_NPEAVWorkItem@23@PEAVSchedulingRing@23@PEAVScheduleGroupSegmentBase@23@_NW4SearchAffinity@123@K3@Z 00000001800619a0 f   libconcrt:SearchAlgorithms.obj
 0001:00060b70       ?SearchFair@WorkSearchContext@details@Concurrency@@AEAA_NPEAVWorkItem@23@PEAVScheduleGroupSegmentBase@23@_NK@Z 0000000180061b70 f   libconcrt:SearchAlgorithms.obj
 0001:00060ccc       ?SearchFairYield@WorkSearchContext@details@Concurrency@@AEAA_NPEAVWorkItem@23@PEAVScheduleGroupSegmentBase@23@_NK@Z 0000000180061ccc f   libconcrt:SearchAlgorithms.obj
 0001:00060e1c       ?SearchFair_Realized@WorkSearchContext@details@Concurrency@@AEAA_NPEAVWorkItem@23@PEAVSchedulingRing@23@_N@Z 0000000180061e1c f   libconcrt:SearchAlgorithms.obj
 0001:00060eec       ?SearchFair_Runnables@WorkSearchContext@details@Concurrency@@AEAA_NPEAVWorkItem@23@PEAVSchedulingRing@23@@Z 0000000180061eec f   libconcrt:SearchAlgorithms.obj
 0001:00060fa0       ?SearchFair_Unrealized@WorkSearchContext@details@Concurrency@@AEAA_NPEAVWorkItem@23@PEAVSchedulingRing@23@_N@Z 0000000180061fa0 f   libconcrt:SearchAlgorithms.obj
 0001:00061074       ?SkipSegmentSearch@WorkSearchContext@details@Concurrency@@AEAA_NPEAVScheduleGroupSegmentBase@23@0W4SearchAffinity@123@_N@Z 0000000180062074 f   libconcrt:SearchAlgorithms.obj
 0001:0006114c       ?StealForeignLocalRunnable@WorkSearchContext@details@Concurrency@@AEAA_NPEAVWorkItem@23@PEAVSchedulingNode@23@@Z 000000018006214c f   libconcrt:SearchAlgorithms.obj
 0001:00061224       ?StealLocalRunnable@WorkSearchContext@details@Concurrency@@AEAA_NPEAVWorkItem@23@PEAVSchedulingNode@23@PEAVVirtualProcessor@23@@Z 0000000180062224 f   libconcrt:SearchAlgorithms.obj
 0001:000612e8       ?StealLocalRunnableContext@VirtualProcessor@details@Concurrency@@AEAAPEAVInternalContextBase@23@XZ 00000001800622e8 f i libconcrt:SearchAlgorithms.obj
 0001:0006134c       ?TransferReferences@WorkItem@details@Concurrency@@QEAAXPEAVInternalContextBase@23@@Z 000000018006234c f   libconcrt:SearchAlgorithms.obj
 0001:000613e0       ?Invoke@RealizedChore@details@Concurrency@@QEAAXXZ 00000001800623e0 f   libconcrt:RealizedChore.obj
 0001:00061410       ??0ThreadVirtualProcessor@details@Concurrency@@QEAA@PEAVSchedulingNode@12@PEAUIVirtualProcessorRoot@2@@Z 0000000180062410 f   libconcrt:ThreadVirtualProcessor.obj
 0001:00061468       ??_EThreadVirtualProcessor@details@Concurrency@@UEAAPEAXI@Z 0000000180062468 f i libconcrt:ThreadVirtualProcessor.obj
 0001:00061468       ??_GThreadVirtualProcessor@details@Concurrency@@UEAAPEAXI@Z 0000000180062468 f i libconcrt:ThreadVirtualProcessor.obj
 0001:000614a8       ?_ExecutionInCatch@@YAHPEAU_xDISPATCHER_CONTEXT@@PEBU_s_FuncInfo@@@Z 00000001800624a8 f   libvcruntime:risctrnsctrl.obj
 0001:0006151c       ?_GetEstablisherFrame@@YAPEA_KPEA_KPEAU_xDISPATCHER_CONTEXT@@PEBU_s_FuncInfo@@0@Z 000000018006251c f   libvcruntime:risctrnsctrl.obj
 0001:000615e8       ?_GetRangeOfTrysToCheck@@YAPEBU_s_TryBlockMapEntry@@PEA_KPEBU_s_FuncInfo@@HHPEAI2PEAU_xDISPATCHER_CONTEXT@@@Z 00000001800625e8 f   libvcruntime:risctrnsctrl.obj
 0001:00061714       ?__FrameUnwindToEmptyState@@YAXPEA_KPEAU_xDISPATCHER_CONTEXT@@PEBU_s_FuncInfo@@@Z 0000000180062714 f   libvcruntime:risctrnsctrl.obj
 0001:000617a8       _CallSETranslator          00000001800627a8 f   libvcruntime:risctrnsctrl.obj
 0001:00061800       _CreateFrameInfo           0000000180062800 f   libvcruntime:risctrnsctrl.obj
 0001:0006183c       _FindAndUnlinkFrame        000000018006283c f   libvcruntime:risctrnsctrl.obj
 0001:00061898       _GetImageBase              0000000180062898 f   libvcruntime:risctrnsctrl.obj
 0001:000618ac       _GetThrowImageBase         00000001800628ac f   libvcruntime:risctrnsctrl.obj
 0001:000618c0       _SetImageBase              00000001800628c0 f   libvcruntime:risctrnsctrl.obj
 0001:000618d8       _SetThrowImageBase         00000001800628d8 f   libvcruntime:risctrnsctrl.obj
 0001:000618f0       _UnwindNestedFrames        00000001800628f0 f   libvcruntime:risctrnsctrl.obj
 0001:00061a14       __CxxFrameHandler3         0000000180062a14 f   libvcruntime:risctrnsctrl.obj
 0001:00061a94       __DestructExceptionObject  0000000180062a94 f   libvcruntime:ehhelpers.obj
 0001:00061b18       ?_CallMemberFunction0@@YAXQEAX0@Z 0000000180062b18 f i libvcruntime:ehhelpers.obj
 0001:00061b1c       _IsExceptionObjectToBeDestroyed 0000000180062b1c f   libvcruntime:ehhelpers.obj
 0001:00061b4c       __AdjustPointer            0000000180062b4c f   libvcruntime:ehhelpers.obj
 0001:00061b70       __FrameUnwindFilter        0000000180062b70 f   libvcruntime:ehhelpers.obj
 0001:00061bbc       __current_exception        0000000180062bbc f   libvcruntime:ehhelpers.obj
 0001:00061bd0       __processing_throw         0000000180062bd0 f   libvcruntime:ehhelpers.obj
 0001:00061be4       __std_terminate            0000000180062be4 f   libvcruntime:ehhelpers.obj
 0001:00061bf0       __uncaught_exception       0000000180062bf0 f   libvcruntime:ehhelpers.obj
 0001:00061c20       memmove                    0000000180062c20 f   libvcruntime:memcpy.obj
 0001:00061c20       memcpy                     0000000180062c20 f   libvcruntime:memcpy.obj
 0001:00062068       _purecall                  0000000180063068 f   libvcruntime:purevirt.obj
 0001:000620a0       __std_type_info_compare    00000001800630a0 f   libvcruntime:std_type_info.obj
 0001:000620c8       __std_type_info_destroy_list 00000001800630c8 f   libvcruntime:std_type_info.obj
 0001:000620f4       strchr                     00000001800630f4 f   libvcruntime:strchr.obj
 0001:00062180       __std_exception_copy       0000000180063180 f   libvcruntime:std_exception.obj
 0001:00062210       __std_exception_destroy    0000000180063210 f   libvcruntime:std_exception.obj
 0001:00062238       _CxxThrowException         0000000180063238 f   libvcruntime:throw.obj
 0001:00062320       memset                     0000000180063320 f   libvcruntime:memset.obj
 0001:000624e0       memchr                     00000001800634e0 f   libvcruntime:memchr.obj
 0001:00062560       memcmp                     0000000180063560 f   libvcruntime:memcmp.obj
 0001:00062800       __vcrt_FlsAlloc            0000000180063800 f   libvcruntime:winapi_downlevel.obj
 0001:00062854       __vcrt_FlsFree             0000000180063854 f   libvcruntime:winapi_downlevel.obj
 0001:000628a8       __vcrt_FlsGetValue         00000001800638a8 f   libvcruntime:winapi_downlevel.obj
 0001:000628fc       __vcrt_FlsSetValue         00000001800638fc f   libvcruntime:winapi_downlevel.obj
 0001:00062964       __vcrt_InitializeCriticalSectionEx 0000000180063964 f   libvcruntime:winapi_downlevel.obj
 0001:000629dc       __vcrt_initialize_winapi_thunks 00000001800639dc f   libvcruntime:winapi_downlevel.obj
 0001:00062a20       __vcrt_uninitialize_winapi_thunks 0000000180063a20 f   libvcruntime:winapi_downlevel.obj
 0001:00062a60       __vcrt_initialize          0000000180063a60 f   libvcruntime:initialization.obj
 0001:00062a94       __vcrt_thread_attach       0000000180063a94 f   libvcruntime:initialization.obj
 0001:00062aa8       __vcrt_thread_detach       0000000180063aa8 f   libvcruntime:initialization.obj
 0001:00062abc       __vcrt_uninitialize        0000000180063abc f   libvcruntime:initialization.obj
 0001:00062adc       __vcrt_uninitialize_critical 0000000180063adc f   libvcruntime:initialization.obj
 0001:00062aec       __C_specific_handler       0000000180063aec f   libvcruntime:_riscchandler_.obj
 0001:00062cf8       ??0__non_rtti_object@std@@QEAA@AEBV01@@Z 0000000180063cf8 f i libvcruntime:rtti.obj
 0001:00062d38       ??0bad_typeid@std@@QEAA@AEBV01@@Z 0000000180063d38 f i libvcruntime:rtti.obj
 0001:00063220       ?__construct_from_string_literal@__non_rtti_object@std@@SA?AV12@QEBD@Z 0000000180064220 f i libvcruntime:rtti.obj
 0001:00063238       ?__construct_from_string_literal@bad_cast@std@@SA?AV12@QEBD@Z 0000000180064238 f i libvcruntime:rtti.obj
 0001:00063250       __RTDynamicCast            0000000180064250 f   libvcruntime:rtti.obj
 0001:000633cc       __vcrt_freefls             00000001800643cc f   libvcruntime:per_thread_data.obj
 0001:000633ec       __vcrt_freeptd             00000001800643ec f   libvcruntime:per_thread_data.obj
 0001:0006343c       __vcrt_getptd              000000018006443c f   libvcruntime:per_thread_data.obj
 0001:00063458       __vcrt_getptd_noexit       0000000180064458 f   libvcruntime:per_thread_data.obj
 0001:00063510       __vcrt_getptd_noinit       0000000180064510 f   libvcruntime:per_thread_data.obj
 0001:00063560       __vcrt_initialize_ptd      0000000180064560 f   libvcruntime:per_thread_data.obj
 0001:000635b4       __vcrt_uninitialize_ptd    00000001800645b4 f   libvcruntime:per_thread_data.obj
 0001:000635d8       ?__GetCurrentState@@YAHPEA_KPEAU_xDISPATCHER_CONTEXT@@PEBU_s_FuncInfo@@@Z 00000001800645d8 f   libvcruntime:riscehstate.obj
 0001:00063600       ?__GetUnwindTryBlock@@YAHPEA_KPEAU_xDISPATCHER_CONTEXT@@PEBU_s_FuncInfo@@@Z 0000000180064600 f   libvcruntime:riscehstate.obj
 0001:0006362c       ?__SetState@@YAXPEA_KPEAU_xDISPATCHER_CONTEXT@@PEBU_s_FuncInfo@@H@Z 000000018006462c f   libvcruntime:riscehstate.obj
 0001:00063638       ?__SetUnwindTryBlock@@YAXPEA_KPEAU_xDISPATCHER_CONTEXT@@PEBU_s_FuncInfo@@H@Z 0000000180064638 f   libvcruntime:riscehstate.obj
 0001:00063674       ?__StateFromControlPc@@YAHPEBU_s_FuncInfo@@PEAU_xDISPATCHER_CONTEXT@@@Z 0000000180064674 f   libvcruntime:riscehstate.obj
 0001:0006367c       ?__StateFromIp@@YAHPEBU_s_FuncInfo@@PEAU_xDISPATCHER_CONTEXT@@_K@Z 000000018006467c f   libvcruntime:riscehstate.obj
 0001:000636e8       ??0bad_exception@std@@QEAA@AEBV01@@Z 00000001800646e8 f i libvcruntime:frame.obj
 0001:00063728       ??0bad_exception@std@@QEAA@XZ 0000000180064728 f i libvcruntime:frame.obj
 0001:00064090       ?_CallMemberFunction1@@YAXQEAX00@Z 0000000180065090 f i libvcruntime:frame.obj
 0001:0006409c       ?_CallMemberFunction2@@YAXQEAX00H@Z 000000018006509c f i libvcruntime:frame.obj
 0001:000640ac       __BuildCatchObject         00000001800650ac f   libvcruntime:frame.obj
 0001:00064170       __BuildCatchObjectHelper   0000000180065170 f   libvcruntime:frame.obj
 0001:00064374       __CxxCallCatchBlock        0000000180065374 f   libvcruntime:frame.obj
 0001:00064560       __FrameUnwindToState       0000000180065560 f   libvcruntime:frame.obj
 0001:000646f4       __InternalCxxFrameHandler  00000001800656f4 f   libvcruntime:frame.obj
 0001:00064944       __TypeMatch                0000000180065944 f   libvcruntime:frame.obj
 0001:00064a88       __vcrt_initialize_pure_virtual_call_handler 0000000180065a88 f   libvcruntime:purevirt_data.obj
 0001:00064aac       __vcrt_initialize_locks    0000000180065aac f   libvcruntime:locks.obj
 0001:00064af4       __vcrt_uninitialize_locks  0000000180065af4 f   libvcruntime:locks.obj
 0001:00064b40       _local_unwind              0000000180065b40 f   libvcruntime:_jmpuwind_.obj
 0001:00064b70       _NLG_Notify                0000000180065b70 f   libvcruntime:_jmpuwind_.obj
 0001:00064b90       __NLG_Dispatch2            0000000180065b90 f   libvcruntime:_jmpuwind_.obj
 0001:00064ba0       __NLG_Return2              0000000180065ba0 f   libvcruntime:_jmpuwind_.obj
 0001:00064ba4       __except_validate_context_record 0000000180065ba4 f   libvcruntime:jbcxrval.obj
 0001:00064bf0       _CallSettingFrame          0000000180065bf0 f   libvcruntime:handlers.obj
 0001:00064c30       calloc                     0000000180065c30 f   libucrt:calloc.obj
 0001:00064c38       free                       0000000180065c38 f   libucrt:free.obj
 0001:00064c4c       malloc                     0000000180065c4c f   libucrt:malloc.obj
 0001:00065628       ??$ftprintf@PEAU_iobuf@@PEB_WAEBQEB_WAEBQEB_WAEBI@?$__crt_char_traits@_W@@SAH$$QEAPEAU_iobuf@@$$QEAPEB_WAEBQEB_W2AEBI@Z 0000000180066628 f i libucrt:assert.obj
 0001:00065650       _wassert                   0000000180066650 f   libucrt:assert.obj
 0001:000656d4       swprintf                   00000001800666d4 f i libucrt:assert.obj
 0001:00065728       abort                      0000000180066728 f   libucrt:abort.obj
 0001:00065780       __acrt_initialize_stdio    0000000180066780 f   libucrt:_file.obj
 0001:000658a0       __acrt_iob_func            00000001800668a0 f   libucrt:_file.obj
 0001:000658b4       __acrt_uninitialize_stdio  00000001800668b4 f   libucrt:_file.obj
 0001:00065910       _lock_file                 0000000180066910 f   libucrt:_file.obj
 0001:0006591c       _unlock_file               000000018006691c f   libucrt:_file.obj
 0001:00065928       __acrt_call_reportfault    0000000180066928 f   libucrt:invalid_parameter.obj
 0001:00065a84       __acrt_initialize_invalid_parameter_handler 0000000180066a84 f   libucrt:invalid_parameter.obj
 0001:00065a8c       _invalid_parameter         0000000180066a8c f   libucrt:invalid_parameter.obj
 0001:00065b3c       _invalid_parameter_noinfo  0000000180066b3c f   libucrt:invalid_parameter.obj
 0001:00065b5c       _invalid_parameter_noinfo_noreturn 0000000180066b5c f   libucrt:invalid_parameter.obj
 0001:00065b8c       _invoke_watson             0000000180066b8c f   libucrt:invalid_parameter.obj
 0001:00065ff4       ??$ensure_buffer_is_big_enough@D@formatting_buffer@__crt_stdio_output@@QEAA_N_K@Z 0000000180066ff4 f i libucrt:output.obj
 0001:0006609c       ??$ensure_buffer_is_big_enough@_W@formatting_buffer@__crt_stdio_output@@QEAA_N_K@Z 000000018006709c f i libucrt:output.obj
 0001:00066148       ??$is_wide_character_specifier@_W@__crt_stdio_output@@YA_N_K_WW4length_modifier@0@@Z 0000000180067148 f i libucrt:output.obj
 0001:00066188       ??$type_case_integer_parse_into_buffer@I@?$output_processor@DV?$string_output_adapter@D@__crt_stdio_output@@V?$format_validation_base@DV?$string_output_adapter@D@__crt_stdio_output@@@2@@__crt_stdio_output@@AEAAXII_N@Z 0000000180067188 f i libucrt:output.obj
 0001:00066188       ??$type_case_integer_parse_into_buffer@I@?$output_processor@DV?$stream_output_adapter@D@__crt_stdio_output@@V?$standard_base@DV?$stream_output_adapter@D@__crt_stdio_output@@@2@@__crt_stdio_output@@AEAAXII_N@Z 0000000180067188 f i libucrt:output.obj
 0001:00066210       ??$type_case_integer_parse_into_buffer@I@?$output_processor@_WV?$stream_output_adapter@_W@__crt_stdio_output@@V?$standard_base@_WV?$stream_output_adapter@_W@__crt_stdio_output@@@2@@__crt_stdio_output@@AEAAXII_N@Z 0000000180067210 f i libucrt:output.obj
 0001:00066210       ??$type_case_integer_parse_into_buffer@I@?$output_processor@_WV?$string_output_adapter@_W@__crt_stdio_output@@V?$standard_base@_WV?$string_output_adapter@_W@__crt_stdio_output@@@2@@__crt_stdio_output@@AEAAXII_N@Z 0000000180067210 f i libucrt:output.obj
 0001:000662ac       ??$type_case_integer_parse_into_buffer@_K@?$output_processor@DV?$stream_output_adapter@D@__crt_stdio_output@@V?$standard_base@DV?$stream_output_adapter@D@__crt_stdio_output@@@2@@__crt_stdio_output@@AEAAX_KI_N@Z 00000001800672ac f i libucrt:output.obj
 0001:000662ac       ??$type_case_integer_parse_into_buffer@_K@?$output_processor@DV?$string_output_adapter@D@__crt_stdio_output@@V?$format_validation_base@DV?$string_output_adapter@D@__crt_stdio_output@@@2@@__crt_stdio_output@@AEAAX_KI_N@Z 00000001800672ac f i libucrt:output.obj
 0001:0006633c       ??$type_case_integer_parse_into_buffer@_K@?$output_processor@_WV?$string_output_adapter@_W@__crt_stdio_output@@V?$standard_base@_WV?$string_output_adapter@_W@__crt_stdio_output@@@2@@__crt_stdio_output@@AEAAX_KI_N@Z 000000018006733c f i libucrt:output.obj
 0001:0006633c       ??$type_case_integer_parse_into_buffer@_K@?$output_processor@_WV?$stream_output_adapter@_W@__crt_stdio_output@@V?$standard_base@_WV?$stream_output_adapter@_W@__crt_stdio_output@@@2@@__crt_stdio_output@@AEAAX_KI_N@Z 000000018006733c f i libucrt:output.obj
 0001:000663dc       ??$write_multiple_characters@V?$stream_output_adapter@D@__crt_stdio_output@@D@__crt_stdio_output@@YAXAEBV?$stream_output_adapter@D@0@DHQEAH@Z 00000001800673dc f i libucrt:output.obj
 0001:00066460       ??$write_multiple_characters@V?$stream_output_adapter@_W@__crt_stdio_output@@D@__crt_stdio_output@@YAXAEBV?$stream_output_adapter@_W@0@DHQEAH@Z 0000000180067460 f i libucrt:output.obj
 0001:000664ec       ??$write_multiple_characters@V?$string_output_adapter@D@__crt_stdio_output@@D@__crt_stdio_output@@YAXAEBV?$string_output_adapter@D@0@DHQEAH@Z 00000001800674ec f i libucrt:output.obj
 0001:00066548       ??$write_multiple_characters@V?$string_output_adapter@_W@__crt_stdio_output@@D@__crt_stdio_output@@YAXAEBV?$string_output_adapter@_W@0@DHQEAH@Z 0000000180067548 f i libucrt:output.obj
 0001:000665b8       ??0_LocaleUpdate@@QEAA@QEAU__crt_locale_pointers@@@Z 00000001800675b8 f i libucrt:output.obj
 0001:000668ac       ?force_decimal_point@__crt_stdio_output@@YAXPEADQEAU__crt_locale_pointers@@@Z 00000001800678ac f i libucrt:output.obj
 0001:0006691c       ?parse_int_from_format_string@?$output_processor@DV?$string_output_adapter@D@__crt_stdio_output@@V?$format_validation_base@DV?$string_output_adapter@D@__crt_stdio_output@@@2@@__crt_stdio_output@@AEAA_NQEAH@Z 000000018006791c f i libucrt:output.obj
 0001:0006691c       ?parse_int_from_format_string@?$output_processor@DV?$stream_output_adapter@D@__crt_stdio_output@@V?$standard_base@DV?$stream_output_adapter@D@__crt_stdio_output@@@2@@__crt_stdio_output@@AEAA_NQEAH@Z 000000018006791c f i libucrt:output.obj
 0001:000669c0       ?parse_int_from_format_string@?$output_processor@_WV?$stream_output_adapter@_W@__crt_stdio_output@@V?$standard_base@_WV?$stream_output_adapter@_W@__crt_stdio_output@@@2@@__crt_stdio_output@@AEAA_NQEAH@Z 00000001800679c0 f i libucrt:output.obj
 0001:000669c0       ?parse_int_from_format_string@?$output_processor@_WV?$string_output_adapter@_W@__crt_stdio_output@@V?$standard_base@_WV?$string_output_adapter@_W@__crt_stdio_output@@@2@@__crt_stdio_output@@AEAA_NQEAH@Z 00000001800679c0 f i libucrt:output.obj
 0001:00066a64       ?process@?$output_processor@DV?$stream_output_adapter@D@__crt_stdio_output@@V?$standard_base@DV?$stream_output_adapter@D@__crt_stdio_output@@@2@@__crt_stdio_output@@QEAAHXZ 0000000180067a64 f i libucrt:output.obj
 0001:00066c78       ?process@?$output_processor@DV?$string_output_adapter@D@__crt_stdio_output@@V?$format_validation_base@DV?$string_output_adapter@D@__crt_stdio_output@@@2@@__crt_stdio_output@@QEAAHXZ 0000000180067c78 f i libucrt:output.obj
